---
triple:          'arm64-apple-darwin'
binary-path:     GraphTest
relocations:
  - { offsetInCU: 0x52, offset: 0x52, size: 0x8, addend: 0x0, symName: __ZL13TESTS_ORDERED, symObjAddr: 0x98148, symBinAddr: 0x10002C000, symSize: 0x0 }
  - { offsetInCU: 0x85ED, offset: 0x85ED, size: 0x8, addend: 0x0, symName: __ZNSt3__124__put_character_sequenceB8ue170006IcNS_11char_traitsIcEEEERNS_13basic_ostreamIT_T0_EES7_PKS4_m, symObjAddr: 0x6660, symBinAddr: 0x100008444, symSize: 0x1EC }
  - { offsetInCU: 0xF19C, offset: 0xF19C, size: 0x8, addend: 0x0, symName: __ZNSt3__1lsB8ue170006INS_11char_traitsIcEEEERNS_13basic_ostreamIcT_EES6_PKc, symObjAddr: 0x179C, symBinAddr: 0x100003580, symSize: 0x48 }
  - { offsetInCU: 0xF1E2, offset: 0xF1E2, size: 0x8, addend: 0x0, symName: __ZNSt3__14endlB8ue170006IcNS_11char_traitsIcEEEERNS_13basic_ostreamIT_T0_EES7_, symObjAddr: 0x1810, symBinAddr: 0x1000035F4, symSize: 0x58 }
  - { offsetInCU: 0xF222, offset: 0xF222, size: 0x8, addend: 0x0, symName: __ZNSt3__1eqB8ue170006ERKNS_21__hash_const_iteratorIPNS_11__hash_nodeINS_12basic_stringIcNS_11char_traitsIcEENS_9allocatorIcEEEEPvEEEESD_, symObjAddr: 0x1868, symBinAddr: 0x10000364C, symSize: 0x30 }
  - { offsetInCU: 0xF25F, offset: 0xF25F, size: 0x8, addend: 0x0, symName: __ZNSt3__1lsB8ue170006IcNS_11char_traitsIcEENS_9allocatorIcEEEERNS_13basic_ostreamIT_T0_EES9_RKNS_12basic_stringIS6_S7_T1_EE, symObjAddr: 0x18F8, symBinAddr: 0x1000036DC, symSize: 0x4C }
  - { offsetInCU: 0xF2B7, offset: 0xF2B7, size: 0x8, addend: 0x0, symName: __ZNSt3__1neB8ue170006IPNS_12basic_stringIcNS_11char_traitsIcEENS_9allocatorIcEEEEEEbRKNS_11__wrap_iterIT_EESC_, symObjAddr: 0x19A4, symBinAddr: 0x100003788, symSize: 0x34 }
  - { offsetInCU: 0xF2FA, offset: 0xF2FA, size: 0x8, addend: 0x0, symName: __ZNSt3__1lsB8ue170006INS_11char_traitsIcEEEERNS_13basic_ostreamIcT_EES6_c, symObjAddr: 0x19F0, symBinAddr: 0x1000037D4, symSize: 0x34 }
  - { offsetInCU: 0xF340, offset: 0xF340, size: 0x8, addend: 0x0, symName: __ZNSt3__1neB8ue170006IPNS_5tupleIJNS_12basic_stringIcNS_11char_traitsIcEENS_9allocatorIcEEEES7_dEEEEEbRKNS_11__wrap_iterIT_EESE_, symObjAddr: 0x1AD0, symBinAddr: 0x1000038B4, symSize: 0x34 }
  - { offsetInCU: 0xF383, offset: 0xF383, size: 0x8, addend: 0x0, symName: __ZNSt3__13getB8ue170006ILm0EJNS_12basic_stringIcNS_11char_traitsIcEENS_9allocatorIcEEEES6_dEEERKNS_13tuple_elementIXT_ENS_5tupleIJDpT0_EEEE4typeERKSB_, symObjAddr: 0x1B1C, symBinAddr: 0x100003900, symSize: 0x24 }
  - { offsetInCU: 0xF3D0, offset: 0xF3D0, size: 0x8, addend: 0x0, symName: __ZNSt3__13getB8ue170006ILm1EJNS_12basic_stringIcNS_11char_traitsIcEENS_9allocatorIcEEEES6_dEEERKNS_13tuple_elementIXT_ENS_5tupleIJDpT0_EEEE4typeERKSB_, symObjAddr: 0x1B40, symBinAddr: 0x100003924, symSize: 0x28 }
  - { offsetInCU: 0xF41D, offset: 0xF41D, size: 0x8, addend: 0x0, symName: __ZNSt3__13getB8ue170006ILm2EJNS_12basic_stringIcNS_11char_traitsIcEENS_9allocatorIcEEEES6_dEEERKNS_13tuple_elementIXT_ENS_5tupleIJDpT0_EEEE4typeERKSB_, symObjAddr: 0x1B68, symBinAddr: 0x10000394C, symSize: 0x28 }
  - { offsetInCU: 0xF46A, offset: 0xF46A, size: 0x8, addend: 0x0, symName: __ZNSt3__14sortB8ue170006INS_11__wrap_iterIPdEEEEvT_S4_, symObjAddr: 0x1CC8, symBinAddr: 0x100003AAC, symSize: 0x3C }
  - { offsetInCU: 0xF4AC, offset: 0xF4AC, size: 0x8, addend: 0x0, symName: __ZNSt3__1neB8ue170006IPNS_6vectorINS_12basic_stringIcNS_11char_traitsIcEENS_9allocatorIcEEEENS5_IS7_EEEEEEbRKNS_11__wrap_iterIT_EESF_, symObjAddr: 0x1E10, symBinAddr: 0x100003BF4, symSize: 0x34 }
  - { offsetInCU: 0xF4EF, offset: 0xF4EF, size: 0x8, addend: 0x0, symName: __ZNSt3__1neB8ue170006IPKNS_12basic_stringIcNS_11char_traitsIcEENS_9allocatorIcEEEEEEbRKNS_11__wrap_iterIT_EESD_, symObjAddr: 0x1EBC, symBinAddr: 0x100003CA0, symSize: 0x34 }
  - { offsetInCU: 0x11732, offset: 0x11732, size: 0x8, addend: 0x0, symName: __ZNSt3__1eqB8ue170006IPNS_12basic_stringIcNS_11char_traitsIcEENS_9allocatorIcEEEEEEbRKNS_11__wrap_iterIT_EESC_, symObjAddr: 0x1FCC, symBinAddr: 0x100003DB0, symSize: 0x48 }
  - { offsetInCU: 0x11775, offset: 0x11775, size: 0x8, addend: 0x0, symName: __ZNSt3__1eqB8ue170006IPNS_5tupleIJNS_12basic_stringIcNS_11char_traitsIcEENS_9allocatorIcEEEES7_dEEEEEbRKNS_11__wrap_iterIT_EESE_, symObjAddr: 0x202C, symBinAddr: 0x100003E10, symSize: 0x48 }
  - { offsetInCU: 0x117B8, offset: 0x117B8, size: 0x8, addend: 0x0, symName: __ZNSt3__1eqB8ue170006IPNS_6vectorINS_12basic_stringIcNS_11char_traitsIcEENS_9allocatorIcEEEENS5_IS7_EEEEEEbRKNS_11__wrap_iterIT_EESF_, symObjAddr: 0x208C, symBinAddr: 0x100003E70, symSize: 0x48 }
  - { offsetInCU: 0x117FB, offset: 0x117FB, size: 0x8, addend: 0x0, symName: __ZNSt3__1eqB8ue170006IPKNS_12basic_stringIcNS_11char_traitsIcEENS_9allocatorIcEEEEEEbRKNS_11__wrap_iterIT_EESD_, symObjAddr: 0x20EC, symBinAddr: 0x100003ED0, symSize: 0x48 }
  - { offsetInCU: 0x119BE, offset: 0x119BE, size: 0x8, addend: 0x0, symName: __ZNSt3__119__libcpp_deallocateB8ue170006EPvmm, symObjAddr: 0x285C, symBinAddr: 0x100004640, symSize: 0x30 }
  - { offsetInCU: 0x11A06, offset: 0x11A06, size: 0x8, addend: 0x0, symName: __ZNSt3__127__do_deallocate_handle_sizeB8ue170006IJEEEvPvmDpT_, symObjAddr: 0x288C, symBinAddr: 0x100004670, symSize: 0x28 }
  - { offsetInCU: 0x11A44, offset: 0x11A44, size: 0x8, addend: 0x0, symName: __ZNSt3__124__libcpp_operator_deleteB8ue170006IJPvEEEvDpT_, symObjAddr: 0x28B4, symBinAddr: 0x100004698, symSize: 0x24 }
  - { offsetInCU: 0x11A79, offset: 0x11A79, size: 0x8, addend: 0x0, symName: __ZNSt3__118__constexpr_strlenB8ue170006EPKc, symObjAddr: 0x2FF0, symBinAddr: 0x100004DD4, symSize: 0x24 }
  - { offsetInCU: 0x11AA5, offset: 0x11AA5, size: 0x8, addend: 0x0, symName: __ZNSt3__116__constrain_hashB8ue170006Emm, symObjAddr: 0x3CD4, symBinAddr: 0x100005AB8, symSize: 0x98 }
  - { offsetInCU: 0x11ADF, offset: 0x11ADF, size: 0x8, addend: 0x0, symName: __ZNSt3__13maxB8ue170006ImEERKT_S3_S3_, symObjAddr: 0x3FF4, symBinAddr: 0x100005DD8, symSize: 0x2C }
  - { offsetInCU: 0x11B22, offset: 0x11B22, size: 0x8, addend: 0x0, symName: __ZNSt3__116__is_hash_power2B8ue170006Em, symObjAddr: 0x4020, symBinAddr: 0x100005E04, symSize: 0x50 }
  - { offsetInCU: 0x11B4E, offset: 0x11B4E, size: 0x8, addend: 0x0, symName: __ZNSt3__116__do_string_hashB8ue170006IPKcEEmT_S3_, symObjAddr: 0x4238, symBinAddr: 0x10000601C, symSize: 0x3C }
  - { offsetInCU: 0x11B94, offset: 0x11B94, size: 0x8, addend: 0x0, symName: __ZNSt3__110__loadwordB8ue170006ImEET_PKv, symObjAddr: 0x4CA8, symBinAddr: 0x100006A8C, symSize: 0x20 }
  - { offsetInCU: 0x11BD7, offset: 0x11BD7, size: 0x8, addend: 0x0, symName: __ZNSt3__14swapB8ue170006ImEENS_9enable_ifIXaasr21is_move_constructibleIT_EE5valuesr18is_move_assignableIS2_EE5valueEvE4typeERS2_S5_, symObjAddr: 0x4E64, symBinAddr: 0x100006C48, symSize: 0x3C }
  - { offsetInCU: 0x11C28, offset: 0x11C28, size: 0x8, addend: 0x0, symName: __ZNSt3__110__loadwordB8ue170006IjEET_PKv, symObjAddr: 0x4EF4, symBinAddr: 0x100006CD8, symSize: 0x20 }
  - { offsetInCU: 0x11C6B, offset: 0x11C6B, size: 0x8, addend: 0x0, symName: __ZNSt3__112__to_addressB8ue170006IKcEEPT_S3_, symObjAddr: 0x505C, symBinAddr: 0x100006E40, symSize: 0x14 }
  - { offsetInCU: 0x11CD3, offset: 0x11CD3, size: 0x8, addend: 0x0, symName: __ZNSt3__1eqB8ue170006INS_9allocatorIcEEEEbRKNS_12basic_stringIcNS_11char_traitsIcEET_EES9_, symObjAddr: 0x5324, symBinAddr: 0x100007108, symSize: 0x148 }
  - { offsetInCU: 0x11D97, offset: 0x11D97, size: 0x8, addend: 0x0, symName: __ZNSt3__117__libcpp_allocateB8ue170006Emm, symObjAddr: 0x56E4, symBinAddr: 0x1000074C8, symSize: 0x28 }
  - { offsetInCU: 0x11DD4, offset: 0x11DD4, size: 0x8, addend: 0x0, symName: __ZNSt3__121__libcpp_operator_newB8ue170006IJmEEEPvDpT_, symObjAddr: 0x5724, symBinAddr: 0x100007508, symSize: 0x24 }
  - { offsetInCU: 0x11E0D, offset: 0x11E0D, size: 0x8, addend: 0x0, symName: __ZNSt3__116__next_hash_pow2B8ue170006Em, symObjAddr: 0x5D8C, symBinAddr: 0x100007B70, symSize: 0x6C }
  - { offsetInCU: 0x11E55, offset: 0x11E55, size: 0x8, addend: 0x0, symName: __ZNSt3__112__libcpp_clzB8ue170006Em, symObjAddr: 0x6134, symBinAddr: 0x100007F18, symSize: 0x1C }
  - { offsetInCU: 0x11E81, offset: 0x11E81, size: 0x8, addend: 0x0, symName: __ZNSt3__13maxB8ue170006ImNS_6__lessIvvEEEERKT_S5_S5_T0_, symObjAddr: 0x6150, symBinAddr: 0x100007F34, symSize: 0x54 }
  - { offsetInCU: 0x11F20, offset: 0x11F20, size: 0x8, addend: 0x0, symName: __ZNSt3__116__pad_and_outputB8ue170006IcNS_11char_traitsIcEEEENS_19ostreambuf_iteratorIT_T0_EES6_PKS4_S8_S8_RNS_8ios_baseES4_, symObjAddr: 0x6868, symBinAddr: 0x10000864C, symSize: 0x240 }
  - { offsetInCU: 0x11FEF, offset: 0x11FEF, size: 0x8, addend: 0x0, symName: __ZNSt3__19use_facetB8ue170006INS_5ctypeIcEEEERKT_RKNS_6localeE, symObjAddr: 0x6DF4, symBinAddr: 0x100008BD8, symSize: 0x2C }
  - { offsetInCU: 0x124BC, offset: 0x124BC, size: 0x8, addend: 0x0, symName: __ZNSt3__112__to_addressB8ue170006INS_12basic_stringIcNS_11char_traitsIcEENS_9allocatorIcEEEEEEPT_S8_, symObjAddr: 0x74FC, symBinAddr: 0x1000092E0, symSize: 0x14 }
  - { offsetInCU: 0x124F1, offset: 0x124F1, size: 0x8, addend: 0x0, symName: __ZNSt3__112__to_addressB8ue170006INS_5tupleIJNS_12basic_stringIcNS_11char_traitsIcEENS_9allocatorIcEEEES7_dEEEEEPT_SA_, symObjAddr: 0x7A58, symBinAddr: 0x10000983C, symSize: 0x14 }
  - { offsetInCU: 0x12526, offset: 0x12526, size: 0x8, addend: 0x0, symName: __ZNSt3__112__to_addressB8ue170006IdEEPT_S2_, symObjAddr: 0x8260, symBinAddr: 0x10000A044, symSize: 0x14 }
  - { offsetInCU: 0x1255B, offset: 0x1255B, size: 0x8, addend: 0x0, symName: __ZNSt3__13minB8ue170006ImEERKT_S3_S3_, symObjAddr: 0x8948, symBinAddr: 0x10000A72C, symSize: 0x2C }
  - { offsetInCU: 0x1279F, offset: 0x1279F, size: 0x8, addend: 0x0, symName: __ZNSt3__13minB8ue170006ImNS_6__lessIvvEEEERKT_S5_S5_T0_, symObjAddr: 0x89D4, symBinAddr: 0x10000A7B8, symSize: 0x54 }
  - { offsetInCU: 0x127F9, offset: 0x127F9, size: 0x8, addend: 0x0, symName: __ZNSt3__120__throw_length_errorB8ue170006EPKc, symObjAddr: 0x8A7C, symBinAddr: 0x10000A860, symSize: 0x64 }
  - { offsetInCU: 0x12823, offset: 0x12823, size: 0x8, addend: 0x0, symName: __ZNSt3__119__allocate_at_leastB8ue170006INS_9allocatorIdEEEENS_19__allocation_resultINS_16allocator_traitsIT_E7pointerEEERS5_m, symObjAddr: 0x8C70, symBinAddr: 0x10000AA54, symSize: 0x40 }
  - { offsetInCU: 0x12866, offset: 0x12866, size: 0x8, addend: 0x0, symName: __ZNSt3__142__uninitialized_allocator_move_if_noexceptB8ue170006INS_9allocatorIdEENS_16reverse_iteratorIPdEES5_dvEET1_RT_T0_S9_S6_, symObjAddr: 0x8E24, symBinAddr: 0x10000AC08, symSize: 0x78 }
  - { offsetInCU: 0x128E3, offset: 0x128E3, size: 0x8, addend: 0x0, symName: __ZNSt3__14swapB8ue170006IPdEENS_9enable_ifIXaasr21is_move_constructibleIT_EE5valuesr18is_move_assignableIS3_EE5valueEvE4typeERS3_S6_, symObjAddr: 0x8EE8, symBinAddr: 0x10000ACCC, symSize: 0x3C }
  - { offsetInCU: 0x12934, offset: 0x12934, size: 0x8, addend: 0x0, symName: __ZNSt3__14moveB8ue170006INS_16reverse_iteratorIPdEES3_EET0_T_S5_S4_, symObjAddr: 0x8FD0, symBinAddr: 0x10000ADB4, symSize: 0x78 }
  - { offsetInCU: 0x1298E, offset: 0x1298E, size: 0x8, addend: 0x0, symName: __ZNSt3__16__moveB8ue170006INS_17_ClassicAlgPolicyENS_16reverse_iteratorIPdEES4_S4_EENS_4pairIT0_T2_EES6_T1_S7_, symObjAddr: 0x9048, symBinAddr: 0x10000AE2C, symSize: 0x64 }
  - { offsetInCU: 0x129FA, offset: 0x129FA, size: 0x8, addend: 0x0, symName: __ZNSt3__123__dispatch_copy_or_moveB8ue170006INS_17_ClassicAlgPolicyENS_11__move_loopIS1_EENS_14__move_trivialENS_16reverse_iteratorIPdEES7_S7_EENS_4pairIT2_T4_EES9_T3_SA_, symObjAddr: 0x90AC, symBinAddr: 0x10000AE90, symSize: 0x64 }
  - { offsetInCU: 0x12A78, offset: 0x12A78, size: 0x8, addend: 0x0, symName: __ZNSt3__121__unwrap_and_dispatchB8ue170006INS_10__overloadINS_11__move_loopINS_17_ClassicAlgPolicyEEENS_14__move_trivialEEENS_16reverse_iteratorIPdEES9_S9_Li0EEENS_4pairIT0_T2_EESB_T1_SC_, symObjAddr: 0x9110, symBinAddr: 0x10000AEF4, symSize: 0x12C }
  - { offsetInCU: 0x12B08, offset: 0x12B08, size: 0x8, addend: 0x0, symName: __ZNSt3__114__unwrap_rangeB8ue170006INS_16reverse_iteratorIPdEES3_EENS_4pairIT0_S5_EET_S7_, symObjAddr: 0x923C, symBinAddr: 0x10000B020, symSize: 0x84 }
  - { offsetInCU: 0x12C83, offset: 0x12C83, size: 0x8, addend: 0x0, symName: __ZNSt3__113__unwrap_iterB8ue170006INS_16reverse_iteratorIPdEENS_18__unwrap_iter_implIS3_Lb0EEELi0EEEDTclsrT0_8__unwrapclsr3stdE7declvalIT_EEEES7_, symObjAddr: 0x9360, symBinAddr: 0x10000B144, symSize: 0x44 }
  - { offsetInCU: 0x12CC7, offset: 0x12CC7, size: 0x8, addend: 0x0, symName: __ZNSt3__19make_pairB8ue170006INS_16reverse_iteratorIPdEES3_EENS_4pairINS_18__unwrap_ref_decayIT_E4typeENS5_IT0_E4typeEEEOS6_OS9_, symObjAddr: 0x93A4, symBinAddr: 0x10000B188, symSize: 0x38 }
  - { offsetInCU: 0x12D16, offset: 0x12D16, size: 0x8, addend: 0x0, symName: __ZNSt3__114__rewrap_rangeB8ue170006INS_16reverse_iteratorIPdEES3_EET_S4_T0_, symObjAddr: 0x93DC, symBinAddr: 0x10000B1C0, symSize: 0x5C }
  - { offsetInCU: 0x12D62, offset: 0x12D62, size: 0x8, addend: 0x0, symName: __ZNSt3__113__rewrap_iterB8ue170006INS_16reverse_iteratorIPdEES3_NS_18__unwrap_iter_implIS3_Lb0EEEEET_S6_T0_, symObjAddr: 0x9438, symBinAddr: 0x10000B21C, symSize: 0x74 }
  - { offsetInCU: 0x12DB7, offset: 0x12DB7, size: 0x8, addend: 0x0, symName: __ZNSt3__1neB8ue170006IPdS1_EEbRKNS_16reverse_iteratorIT_EERKNS2_IT0_EE, symObjAddr: 0x94AC, symBinAddr: 0x10000B290, symSize: 0x48 }
  - { offsetInCU: 0x12EB5, offset: 0x12EB5, size: 0x8, addend: 0x0, symName: __ZNSt3__14sortB8ue170006INS_11__wrap_iterIPdEENS_6__lessIvvEEEEvT_S6_T0_, symObjAddr: 0x98C0, symBinAddr: 0x10000B6A4, symSize: 0x40 }
  - { offsetInCU: 0x12F0F, offset: 0x12F0F, size: 0x8, addend: 0x0, symName: __ZNSt3__111__sort_implB8ue170006INS_17_ClassicAlgPolicyENS_11__wrap_iterIPdEENS_6__lessIvvEEEEvT0_S7_RT1_, symObjAddr: 0x9900, symBinAddr: 0x10000B6E4, symSize: 0xA8 }
  - { offsetInCU: 0x12F72, offset: 0x12F72, size: 0x8, addend: 0x0, symName: __ZNSt3__123__debug_randomize_rangeB8ue170006INS_17_ClassicAlgPolicyENS_11__wrap_iterIPdEES4_EEvT0_T1_, symObjAddr: 0x99A8, symBinAddr: 0x10000B78C, symSize: 0x14 }
  - { offsetInCU: 0x12FC3, offset: 0x12FC3, size: 0x8, addend: 0x0, symName: __ZNSt3__115__sort_dispatchB8ue170006INS_17_ClassicAlgPolicyEdLi0EEEvPT0_S3_RNS_6__lessIvvEE, symObjAddr: 0x99BC, symBinAddr: 0x10000B7A0, symSize: 0x34 }
  - { offsetInCU: 0x1302E, offset: 0x1302E, size: 0x8, addend: 0x0, symName: __ZNSt3__113__unwrap_iterB8ue170006INS_11__wrap_iterIPdEENS_18__unwrap_iter_implIS3_Lb1EEELi0EEEDTclsrT0_8__unwrapclsr3stdE7declvalIT_EEEES7_, symObjAddr: 0x99F0, symBinAddr: 0x10000B7D4, symSize: 0x2C }
  - { offsetInCU: 0x13072, offset: 0x13072, size: 0x8, addend: 0x0, symName: __ZNSt3__135__check_strict_weak_ordering_sortedB8ue170006IPdNS_6__lessIvvEEEEvT_S4_RT0_, symObjAddr: 0x9A1C, symBinAddr: 0x10000B800, symSize: 0x18 }
  - { offsetInCU: 0x1311B, offset: 0x1311B, size: 0x8, addend: 0x0, symName: __ZNSt3__112__to_addressB8ue170006INS_11__wrap_iterIPdEEvEEu7__decayIDTclsr19__to_address_helperIT_EE6__callclsr3stdE7declvalIRKS4_EEEEES6_, symObjAddr: 0x9A5C, symBinAddr: 0x10000B840, symSize: 0x24 }
  - { offsetInCU: 0x131F6, offset: 0x131F6, size: 0x8, addend: 0x0, symName: __ZNSt3__112__to_addressB8ue170006INS_6vectorINS_12basic_stringIcNS_11char_traitsIcEENS_9allocatorIcEEEENS5_IS7_EEEEEEPT_SB_, symObjAddr: 0x9E6C, symBinAddr: 0x10000BC50, symSize: 0x14 }
  - { offsetInCU: 0x13609, offset: 0x13609, size: 0x8, addend: 0x0, symName: __ZSt28__throw_bad_array_new_lengthB8ue170006v, symObjAddr: 0x56B0, symBinAddr: 0x100007494, symSize: 0x34 }
  - { offsetInCU: 0x137FA, offset: 0x137FA, size: 0x8, addend: 0x0, symName: __ZL5TESTS, symObjAddr: 0x981C0, symBinAddr: 0x10002C078, symSize: 0x0 }
  - { offsetInCU: 0x1475D, offset: 0x1475D, size: 0x8, addend: 0x0, symName: __ZNSt3__16vectorIdNS_9allocatorIdEEE26__swap_out_circular_bufferERNS_14__split_bufferIdRS2_EE, symObjAddr: 0x8790, symBinAddr: 0x10000A574, symSize: 0x110 }
  - { offsetInCU: 0x16BFF, offset: 0x16BFF, size: 0x8, addend: 0x0, symName: __ZNSt3__112basic_stringIcNS_11char_traitsIcEENS_9allocatorIcEEEC1B8ue170006ILi0EEEPKc, symObjAddr: 0x0, symBinAddr: 0x100001DE4, symSize: 0x34 }
  - { offsetInCU: 0x16C3D, offset: 0x16C3D, size: 0x8, addend: 0x0, symName: __ZNSt3__113unordered_setINS_12basic_stringIcNS_11char_traitsIcEENS_9allocatorIcEEEENS_4hashIS6_EENS_8equal_toIS6_EENS4_IS6_EEEC1IPKS6_EET_SG_, symObjAddr: 0x34, symBinAddr: 0x100001E18, symSize: 0x3C }
  - { offsetInCU: 0x16C8F, offset: 0x16C8F, size: 0x8, addend: 0x0, symName: __ZNSt3__113unordered_setINS_12basic_stringIcNS_11char_traitsIcEENS_9allocatorIcEEEENS_4hashIS6_EENS_8equal_toIS6_EENS4_IS6_EEED1B8ue170006Ev, symObjAddr: 0x70, symBinAddr: 0x100001E54, symSize: 0x2C }
  - { offsetInCU: 0x16CB8, offset: 0x16CB8, size: 0x8, addend: 0x0, symName: _main, symObjAddr: 0x9C, symBinAddr: 0x100001E80, symSize: 0x1700 }
  - { offsetInCU: 0x173B5, offset: 0x173B5, size: 0x8, addend: 0x0, symName: __ZNSt3__113basic_ostreamIcNS_11char_traitsIcEEElsB8ue170006EPFRS3_S4_E, symObjAddr: 0x17E4, symBinAddr: 0x1000035C8, symSize: 0x2C }
  - { offsetInCU: 0x173E8, offset: 0x173E8, size: 0x8, addend: 0x0, symName: __ZNKSt3__113unordered_setINS_12basic_stringIcNS_11char_traitsIcEENS_9allocatorIcEEEENS_4hashIS6_EENS_8equal_toIS6_EENS4_IS6_EEE4findB8ue170006ERKS6_, symObjAddr: 0x1898, symBinAddr: 0x10000367C, symSize: 0x34 }
  - { offsetInCU: 0x1741C, offset: 0x1741C, size: 0x8, addend: 0x0, symName: __ZNKSt3__113unordered_setINS_12basic_stringIcNS_11char_traitsIcEENS_9allocatorIcEEEENS_4hashIS6_EENS_8equal_toIS6_EENS4_IS6_EEE3endB8ue170006Ev, symObjAddr: 0x18CC, symBinAddr: 0x1000036B0, symSize: 0x2C }
  - { offsetInCU: 0x17440, offset: 0x17440, size: 0x8, addend: 0x0, symName: __ZNSt3__16vectorINS_12basic_stringIcNS_11char_traitsIcEENS_9allocatorIcEEEENS4_IS6_EEE5beginB8ue170006Ev, symObjAddr: 0x1944, symBinAddr: 0x100003728, symSize: 0x30 }
  - { offsetInCU: 0x17466, offset: 0x17466, size: 0x8, addend: 0x0, symName: __ZNSt3__16vectorINS_12basic_stringIcNS_11char_traitsIcEENS_9allocatorIcEEEENS4_IS6_EEE3endB8ue170006Ev, symObjAddr: 0x1974, symBinAddr: 0x100003758, symSize: 0x30 }
  - { offsetInCU: 0x1748D, offset: 0x1748D, size: 0x8, addend: 0x0, symName: __ZNKSt3__111__wrap_iterIPNS_12basic_stringIcNS_11char_traitsIcEENS_9allocatorIcEEEEEdeB8ue170006Ev, symObjAddr: 0x19D8, symBinAddr: 0x1000037BC, symSize: 0x18 }
  - { offsetInCU: 0x174B2, offset: 0x174B2, size: 0x8, addend: 0x0, symName: __ZNSt3__111__wrap_iterIPNS_12basic_stringIcNS_11char_traitsIcEENS_9allocatorIcEEEEEppB8ue170006Ev, symObjAddr: 0x1A24, symBinAddr: 0x100003808, symSize: 0x20 }
  - { offsetInCU: 0x174D7, offset: 0x174D7, size: 0x8, addend: 0x0, symName: __ZNSt3__16vectorINS_12basic_stringIcNS_11char_traitsIcEENS_9allocatorIcEEEENS4_IS6_EEED1B8ue170006Ev, symObjAddr: 0x1A44, symBinAddr: 0x100003828, symSize: 0x2C }
  - { offsetInCU: 0x174FF, offset: 0x174FF, size: 0x8, addend: 0x0, symName: __ZNSt3__16vectorINS_5tupleIJNS_12basic_stringIcNS_11char_traitsIcEENS_9allocatorIcEEEES7_dEEENS5_IS8_EEE5beginB8ue170006Ev, symObjAddr: 0x1A70, symBinAddr: 0x100003854, symSize: 0x30 }
  - { offsetInCU: 0x17525, offset: 0x17525, size: 0x8, addend: 0x0, symName: __ZNSt3__16vectorINS_5tupleIJNS_12basic_stringIcNS_11char_traitsIcEENS_9allocatorIcEEEES7_dEEENS5_IS8_EEE3endB8ue170006Ev, symObjAddr: 0x1AA0, symBinAddr: 0x100003884, symSize: 0x30 }
  - { offsetInCU: 0x1754C, offset: 0x1754C, size: 0x8, addend: 0x0, symName: __ZNKSt3__111__wrap_iterIPNS_5tupleIJNS_12basic_stringIcNS_11char_traitsIcEENS_9allocatorIcEEEES7_dEEEEdeB8ue170006Ev, symObjAddr: 0x1B04, symBinAddr: 0x1000038E8, symSize: 0x18 }
  - { offsetInCU: 0x17571, offset: 0x17571, size: 0x8, addend: 0x0, symName: __ZNSt3__111__wrap_iterIPNS_5tupleIJNS_12basic_stringIcNS_11char_traitsIcEENS_9allocatorIcEEEES7_dEEEEppB8ue170006Ev, symObjAddr: 0x1B90, symBinAddr: 0x100003974, symSize: 0x20 }
  - { offsetInCU: 0x17596, offset: 0x17596, size: 0x8, addend: 0x0, symName: __ZNSt3__16vectorINS_5tupleIJNS_12basic_stringIcNS_11char_traitsIcEENS_9allocatorIcEEEES7_dEEENS5_IS8_EEED1B8ue170006Ev, symObjAddr: 0x1BB0, symBinAddr: 0x100003994, symSize: 0x2C }
  - { offsetInCU: 0x175BF, offset: 0x175BF, size: 0x8, addend: 0x0, symName: __ZNSt3__16vectorIdNS_9allocatorIdEEEC1B8ue170006Ev, symObjAddr: 0x1BDC, symBinAddr: 0x1000039C0, symSize: 0x2C }
  - { offsetInCU: 0x175E8, offset: 0x175E8, size: 0x8, addend: 0x0, symName: __ZNKSt3__16vectorINS_12basic_stringIcNS_11char_traitsIcEENS_9allocatorIcEEEENS4_IS6_EEE4sizeB8ue170006Ev, symObjAddr: 0x1C08, symBinAddr: 0x1000039EC, symSize: 0x28 }
  - { offsetInCU: 0x1760D, offset: 0x1760D, size: 0x8, addend: 0x0, symName: __ZNSt3__16vectorINS_12basic_stringIcNS_11char_traitsIcEENS_9allocatorIcEEEENS4_IS6_EEEixB8ue170006Em, symObjAddr: 0x1C30, symBinAddr: 0x100003A14, symSize: 0x2C }
  - { offsetInCU: 0x17642, offset: 0x17642, size: 0x8, addend: 0x0, symName: __ZNSt3__16vectorIdNS_9allocatorIdEEE9push_backB8ue170006ERKd, symObjAddr: 0x1C5C, symBinAddr: 0x100003A40, symSize: 0x6C }
  - { offsetInCU: 0x17677, offset: 0x17677, size: 0x8, addend: 0x0, symName: __ZNSt3__16vectorIdNS_9allocatorIdEEE5beginB8ue170006Ev, symObjAddr: 0x1D04, symBinAddr: 0x100003AE8, symSize: 0x30 }
  - { offsetInCU: 0x1769D, offset: 0x1769D, size: 0x8, addend: 0x0, symName: __ZNSt3__16vectorIdNS_9allocatorIdEEE3endB8ue170006Ev, symObjAddr: 0x1D34, symBinAddr: 0x100003B18, symSize: 0x30 }
  - { offsetInCU: 0x176C4, offset: 0x176C4, size: 0x8, addend: 0x0, symName: __ZNSt3__16vectorIdNS_9allocatorIdEEEixB8ue170006Em, symObjAddr: 0x1D64, symBinAddr: 0x100003B48, symSize: 0x24 }
  - { offsetInCU: 0x176FA, offset: 0x176FA, size: 0x8, addend: 0x0, symName: __ZNKSt3__16vectorIdNS_9allocatorIdEEE4sizeB8ue170006Ev, symObjAddr: 0x1D88, symBinAddr: 0x100003B6C, symSize: 0x28 }
  - { offsetInCU: 0x1771E, offset: 0x1771E, size: 0x8, addend: 0x0, symName: __ZNSt3__16vectorINS0_INS_12basic_stringIcNS_11char_traitsIcEENS_9allocatorIcEEEENS4_IS6_EEEENS4_IS8_EEE5beginB8ue170006Ev, symObjAddr: 0x1DB0, symBinAddr: 0x100003B94, symSize: 0x30 }
  - { offsetInCU: 0x17744, offset: 0x17744, size: 0x8, addend: 0x0, symName: __ZNSt3__16vectorINS0_INS_12basic_stringIcNS_11char_traitsIcEENS_9allocatorIcEEEENS4_IS6_EEEENS4_IS8_EEE3endB8ue170006Ev, symObjAddr: 0x1DE0, symBinAddr: 0x100003BC4, symSize: 0x30 }
  - { offsetInCU: 0x1776B, offset: 0x1776B, size: 0x8, addend: 0x0, symName: __ZNKSt3__111__wrap_iterIPNS_6vectorINS_12basic_stringIcNS_11char_traitsIcEENS_9allocatorIcEEEENS5_IS7_EEEEEdeB8ue170006Ev, symObjAddr: 0x1E44, symBinAddr: 0x100003C28, symSize: 0x18 }
  - { offsetInCU: 0x1778F, offset: 0x1778F, size: 0x8, addend: 0x0, symName: __ZNKSt3__16vectorINS_12basic_stringIcNS_11char_traitsIcEENS_9allocatorIcEEEENS4_IS6_EEE5beginB8ue170006Ev, symObjAddr: 0x1E5C, symBinAddr: 0x100003C40, symSize: 0x30 }
  - { offsetInCU: 0x177B5, offset: 0x177B5, size: 0x8, addend: 0x0, symName: __ZNKSt3__16vectorINS_12basic_stringIcNS_11char_traitsIcEENS_9allocatorIcEEEENS4_IS6_EEE3endB8ue170006Ev, symObjAddr: 0x1E8C, symBinAddr: 0x100003C70, symSize: 0x30 }
  - { offsetInCU: 0x177DC, offset: 0x177DC, size: 0x8, addend: 0x0, symName: __ZNKSt3__111__wrap_iterIPKNS_12basic_stringIcNS_11char_traitsIcEENS_9allocatorIcEEEEEdeB8ue170006Ev, symObjAddr: 0x1EF0, symBinAddr: 0x100003CD4, symSize: 0x18 }
  - { offsetInCU: 0x17801, offset: 0x17801, size: 0x8, addend: 0x0, symName: __ZNSt3__111__wrap_iterIPKNS_12basic_stringIcNS_11char_traitsIcEENS_9allocatorIcEEEEEppB8ue170006Ev, symObjAddr: 0x1F08, symBinAddr: 0x100003CEC, symSize: 0x20 }
  - { offsetInCU: 0x17826, offset: 0x17826, size: 0x8, addend: 0x0, symName: __ZNSt3__111__wrap_iterIPNS_6vectorINS_12basic_stringIcNS_11char_traitsIcEENS_9allocatorIcEEEENS5_IS7_EEEEEppB8ue170006Ev, symObjAddr: 0x1F28, symBinAddr: 0x100003D0C, symSize: 0x20 }
  - { offsetInCU: 0x1784B, offset: 0x1784B, size: 0x8, addend: 0x0, symName: __ZNSt3__16vectorINS0_INS_12basic_stringIcNS_11char_traitsIcEENS_9allocatorIcEEEENS4_IS6_EEEENS4_IS8_EEED1B8ue170006Ev, symObjAddr: 0x1F48, symBinAddr: 0x100003D2C, symSize: 0x2C }
  - { offsetInCU: 0x17874, offset: 0x17874, size: 0x8, addend: 0x0, symName: __ZNSt3__16vectorIdNS_9allocatorIdEEED1B8ue170006Ev, symObjAddr: 0x1F74, symBinAddr: 0x100003D58, symSize: 0x2C }
  - { offsetInCU: 0x17E30, offset: 0x17E30, size: 0x8, addend: 0x0, symName: __ZN5GraphD1Ev, symObjAddr: 0x1FA0, symBinAddr: 0x100003D84, symSize: 0x2C }
  - { offsetInCU: 0x17E5B, offset: 0x17E5B, size: 0x8, addend: 0x0, symName: __ZNKSt3__111__wrap_iterIPNS_12basic_stringIcNS_11char_traitsIcEENS_9allocatorIcEEEEE4baseB8ue170006Ev, symObjAddr: 0x2014, symBinAddr: 0x100003DF8, symSize: 0x18 }
  - { offsetInCU: 0x17E80, offset: 0x17E80, size: 0x8, addend: 0x0, symName: __ZNKSt3__111__wrap_iterIPNS_5tupleIJNS_12basic_stringIcNS_11char_traitsIcEENS_9allocatorIcEEEES7_dEEEE4baseB8ue170006Ev, symObjAddr: 0x2074, symBinAddr: 0x100003E58, symSize: 0x18 }
  - { offsetInCU: 0x17EA5, offset: 0x17EA5, size: 0x8, addend: 0x0, symName: __ZNKSt3__111__wrap_iterIPNS_6vectorINS_12basic_stringIcNS_11char_traitsIcEENS_9allocatorIcEEEENS5_IS7_EEEEE4baseB8ue170006Ev, symObjAddr: 0x20D4, symBinAddr: 0x100003EB8, symSize: 0x18 }
  - { offsetInCU: 0x17ECA, offset: 0x17ECA, size: 0x8, addend: 0x0, symName: __ZNKSt3__111__wrap_iterIPKNS_12basic_stringIcNS_11char_traitsIcEENS_9allocatorIcEEEEE4baseB8ue170006Ev, symObjAddr: 0x2134, symBinAddr: 0x100003F18, symSize: 0x18 }
  - { offsetInCU: 0x17EEF, offset: 0x17EEF, size: 0x8, addend: 0x0, symName: __ZN5GraphD2Ev, symObjAddr: 0x214C, symBinAddr: 0x100003F30, symSize: 0x38 }
  - { offsetInCU: 0x17F1A, offset: 0x17F1A, size: 0x8, addend: 0x0, symName: __ZNSt3__113unordered_mapINS_12basic_stringIcNS_11char_traitsIcEENS_9allocatorIcEEEENS0_IS6_dNS_4hashIS6_EENS_8equal_toIS6_EENS4_INS_4pairIKS6_dEEEEEES8_SA_NS4_INSB_ISC_SF_EEEEED1B8ue170006Ev, symObjAddr: 0x2184, symBinAddr: 0x100003F68, symSize: 0x2C }
  - { offsetInCU: 0x17F43, offset: 0x17F43, size: 0x8, addend: 0x0, symName: __ZNSt3__113unordered_mapINS_12basic_stringIcNS_11char_traitsIcEENS_9allocatorIcEEEENS0_IS6_dNS_4hashIS6_EENS_8equal_toIS6_EENS4_INS_4pairIKS6_dEEEEEES8_SA_NS4_INSB_ISC_SF_EEEEED2B8ue170006Ev, symObjAddr: 0x21B0, symBinAddr: 0x100003F94, symSize: 0x2C }
  - { offsetInCU: 0x17F6C, offset: 0x17F6C, size: 0x8, addend: 0x0, symName: __ZNSt3__112__hash_tableINS_17__hash_value_typeINS_12basic_stringIcNS_11char_traitsIcEENS_9allocatorIcEEEENS_13unordered_mapIS7_dNS_4hashIS7_EENS_8equal_toIS7_EENS5_INS_4pairIKS7_dEEEEEEEENS_22__unordered_map_hasherIS7_SI_SA_SC_Lb1EEENS_21__unordered_map_equalIS7_SI_SC_SA_Lb1EEENS5_ISI_EEED1Ev, symObjAddr: 0x21DC, symBinAddr: 0x100003FC0, symSize: 0x2C }
  - { offsetInCU: 0x17F97, offset: 0x17F97, size: 0x8, addend: 0x0, symName: __ZNSt3__112__hash_tableINS_17__hash_value_typeINS_12basic_stringIcNS_11char_traitsIcEENS_9allocatorIcEEEENS_13unordered_mapIS7_dNS_4hashIS7_EENS_8equal_toIS7_EENS5_INS_4pairIKS7_dEEEEEEEENS_22__unordered_map_hasherIS7_SI_SA_SC_Lb1EEENS_21__unordered_map_equalIS7_SI_SC_SA_Lb1EEENS5_ISI_EEED2Ev, symObjAddr: 0x2208, symBinAddr: 0x100003FEC, symSize: 0x48 }
  - { offsetInCU: 0x17FC1, offset: 0x17FC1, size: 0x8, addend: 0x0, symName: __ZNSt3__112__hash_tableINS_17__hash_value_typeINS_12basic_stringIcNS_11char_traitsIcEENS_9allocatorIcEEEENS_13unordered_mapIS7_dNS_4hashIS7_EENS_8equal_toIS7_EENS5_INS_4pairIKS7_dEEEEEEEENS_22__unordered_map_hasherIS7_SI_SA_SC_Lb1EEENS_21__unordered_map_equalIS7_SI_SC_SA_Lb1EEENS5_ISI_EEE17__deallocate_nodeEPNS_16__hash_node_baseIPNS_11__hash_nodeISI_PvEEEE, symObjAddr: 0x2250, symBinAddr: 0x100004034, symSize: 0xA8 }
  - { offsetInCU: 0x1802A, offset: 0x1802A, size: 0x8, addend: 0x0, symName: __ZNSt3__117__compressed_pairINS_16__hash_node_baseIPNS_11__hash_nodeINS_17__hash_value_typeINS_12basic_stringIcNS_11char_traitsIcEENS_9allocatorIcEEEENS_13unordered_mapIS9_dNS_4hashIS9_EENS_8equal_toIS9_EENS7_INS_4pairIKS9_dEEEEEEEEPvEEEENS7_ISM_EEE5firstB8ue170006Ev, symObjAddr: 0x22F8, symBinAddr: 0x1000040DC, symSize: 0x24 }
  - { offsetInCU: 0x1804F, offset: 0x1804F, size: 0x8, addend: 0x0, symName: __ZNSt3__110unique_ptrIA_PNS_16__hash_node_baseIPNS_11__hash_nodeINS_17__hash_value_typeINS_12basic_stringIcNS_11char_traitsIcEENS_9allocatorIcEEEENS_13unordered_mapIS9_dNS_4hashIS9_EENS_8equal_toIS9_EENS7_INS_4pairIKS9_dEEEEEEEEPvEEEENS_25__bucket_list_deallocatorINS7_ISP_EEEEED1B8ue170006Ev, symObjAddr: 0x231C, symBinAddr: 0x100004100, symSize: 0x2C }
  - { offsetInCU: 0x18078, offset: 0x18078, size: 0x8, addend: 0x0, symName: __ZNSt3__112__hash_tableINS_17__hash_value_typeINS_12basic_stringIcNS_11char_traitsIcEENS_9allocatorIcEEEENS_13unordered_mapIS7_dNS_4hashIS7_EENS_8equal_toIS7_EENS5_INS_4pairIKS7_dEEEEEEEENS_22__unordered_map_hasherIS7_SI_SA_SC_Lb1EEENS_21__unordered_map_equalIS7_SI_SC_SA_Lb1EEENS5_ISI_EEE12__node_allocB8ue170006Ev, symObjAddr: 0x2348, symBinAddr: 0x10000412C, symSize: 0x28 }
  - { offsetInCU: 0x1809D, offset: 0x1809D, size: 0x8, addend: 0x0, symName: __ZNSt3__116__hash_node_baseIPNS_11__hash_nodeINS_17__hash_value_typeINS_12basic_stringIcNS_11char_traitsIcEENS_9allocatorIcEEEENS_13unordered_mapIS8_dNS_4hashIS8_EENS_8equal_toIS8_EENS6_INS_4pairIKS8_dEEEEEEEEPvEEE8__upcastB8ue170006Ev, symObjAddr: 0x2370, symBinAddr: 0x100004154, symSize: 0x24 }
  - { offsetInCU: 0x180C7, offset: 0x180C7, size: 0x8, addend: 0x0, symName: __ZNSt3__116allocator_traitsINS_9allocatorINS_11__hash_nodeINS_17__hash_value_typeINS_12basic_stringIcNS_11char_traitsIcEENS1_IcEEEENS_13unordered_mapIS8_dNS_4hashIS8_EENS_8equal_toIS8_EENS1_INS_4pairIKS8_dEEEEEEEEPvEEEEE7destroyB8ue170006INSE_ISF_SI_EEvvEEvRSM_PT_, symObjAddr: 0x2394, symBinAddr: 0x100004178, symSize: 0x28 }
  - { offsetInCU: 0x18101, offset: 0x18101, size: 0x8, addend: 0x0, symName: __ZNSt3__122__hash_key_value_typesINS_17__hash_value_typeINS_12basic_stringIcNS_11char_traitsIcEENS_9allocatorIcEEEENS_13unordered_mapIS7_dNS_4hashIS7_EENS_8equal_toIS7_EENS5_INS_4pairIKS7_dEEEEEEEEE9__get_ptrB8ue170006ERSI_, symObjAddr: 0x23BC, symBinAddr: 0x1000041A0, symSize: 0x24 }
  - { offsetInCU: 0x18124, offset: 0x18124, size: 0x8, addend: 0x0, symName: __ZNSt3__116allocator_traitsINS_9allocatorINS_11__hash_nodeINS_17__hash_value_typeINS_12basic_stringIcNS_11char_traitsIcEENS1_IcEEEENS_13unordered_mapIS8_dNS_4hashIS8_EENS_8equal_toIS8_EENS1_INS_4pairIKS8_dEEEEEEEEPvEEEEE10deallocateB8ue170006ERSM_PSL_m, symObjAddr: 0x23EC, symBinAddr: 0x1000041D0, symSize: 0x34 }
  - { offsetInCU: 0x18166, offset: 0x18166, size: 0x8, addend: 0x0, symName: __ZNSt3__117__compressed_pairINS_16__hash_node_baseIPNS_11__hash_nodeINS_17__hash_value_typeINS_12basic_stringIcNS_11char_traitsIcEENS_9allocatorIcEEEENS_13unordered_mapIS9_dNS_4hashIS9_EENS_8equal_toIS9_EENS7_INS_4pairIKS9_dEEEEEEEEPvEEEENS7_ISM_EEE6secondB8ue170006Ev, symObjAddr: 0x2420, symBinAddr: 0x100004204, symSize: 0x24 }
  - { offsetInCU: 0x1818B, offset: 0x1818B, size: 0x8, addend: 0x0, symName: __ZNSt3__122__compressed_pair_elemINS_9allocatorINS_11__hash_nodeINS_17__hash_value_typeINS_12basic_stringIcNS_11char_traitsIcEENS1_IcEEEENS_13unordered_mapIS8_dNS_4hashIS8_EENS_8equal_toIS8_EENS1_INS_4pairIKS8_dEEEEEEEEPvEEEELi1ELb1EE5__getB8ue170006Ev, symObjAddr: 0x2444, symBinAddr: 0x100004228, symSize: 0x14 }
  - { offsetInCU: 0x181B0, offset: 0x181B0, size: 0x8, addend: 0x0, symName: __ZNSt3__114pointer_traitsIPNS_16__hash_node_baseIPNS_11__hash_nodeINS_17__hash_value_typeINS_12basic_stringIcNS_11char_traitsIcEENS_9allocatorIcEEEENS_13unordered_mapIS9_dNS_4hashIS9_EENS_8equal_toIS9_EENS7_INS_4pairIKS9_dEEEEEEEEPvEEEEE10pointer_toB8ue170006ERSO_, symObjAddr: 0x2458, symBinAddr: 0x10000423C, symSize: 0x14 }
  - { offsetInCU: 0x181D3, offset: 0x181D3, size: 0x8, addend: 0x0, symName: __ZNSt3__14pairIKNS_12basic_stringIcNS_11char_traitsIcEENS_9allocatorIcEEEENS_13unordered_mapIS6_dNS_4hashIS6_EENS_8equal_toIS6_EENS4_INS0_IS7_dEEEEEEED1Ev, symObjAddr: 0x246C, symBinAddr: 0x100004250, symSize: 0x2C }
  - { offsetInCU: 0x181FE, offset: 0x181FE, size: 0x8, addend: 0x0, symName: __ZNSt3__14pairIKNS_12basic_stringIcNS_11char_traitsIcEENS_9allocatorIcEEEENS_13unordered_mapIS6_dNS_4hashIS6_EENS_8equal_toIS6_EENS4_INS0_IS7_dEEEEEEED2Ev, symObjAddr: 0x2498, symBinAddr: 0x10000427C, symSize: 0x38 }
  - { offsetInCU: 0x18229, offset: 0x18229, size: 0x8, addend: 0x0, symName: __ZNSt3__113unordered_mapINS_12basic_stringIcNS_11char_traitsIcEENS_9allocatorIcEEEEdNS_4hashIS6_EENS_8equal_toIS6_EENS4_INS_4pairIKS6_dEEEEED1B8ue170006Ev, symObjAddr: 0x24D0, symBinAddr: 0x1000042B4, symSize: 0x2C }
  - { offsetInCU: 0x18252, offset: 0x18252, size: 0x8, addend: 0x0, symName: __ZNSt3__113unordered_mapINS_12basic_stringIcNS_11char_traitsIcEENS_9allocatorIcEEEEdNS_4hashIS6_EENS_8equal_toIS6_EENS4_INS_4pairIKS6_dEEEEED2B8ue170006Ev, symObjAddr: 0x24FC, symBinAddr: 0x1000042E0, symSize: 0x2C }
  - { offsetInCU: 0x1827B, offset: 0x1827B, size: 0x8, addend: 0x0, symName: __ZNSt3__112__hash_tableINS_17__hash_value_typeINS_12basic_stringIcNS_11char_traitsIcEENS_9allocatorIcEEEEdEENS_22__unordered_map_hasherIS7_S8_NS_4hashIS7_EENS_8equal_toIS7_EELb1EEENS_21__unordered_map_equalIS7_S8_SD_SB_Lb1EEENS5_IS8_EEED1Ev, symObjAddr: 0x2528, symBinAddr: 0x10000430C, symSize: 0x2C }
  - { offsetInCU: 0x182A6, offset: 0x182A6, size: 0x8, addend: 0x0, symName: __ZNSt3__112__hash_tableINS_17__hash_value_typeINS_12basic_stringIcNS_11char_traitsIcEENS_9allocatorIcEEEEdEENS_22__unordered_map_hasherIS7_S8_NS_4hashIS7_EENS_8equal_toIS7_EELb1EEENS_21__unordered_map_equalIS7_S8_SD_SB_Lb1EEENS5_IS8_EEED2Ev, symObjAddr: 0x2554, symBinAddr: 0x100004338, symSize: 0x48 }
  - { offsetInCU: 0x182D0, offset: 0x182D0, size: 0x8, addend: 0x0, symName: __ZNSt3__112__hash_tableINS_17__hash_value_typeINS_12basic_stringIcNS_11char_traitsIcEENS_9allocatorIcEEEEdEENS_22__unordered_map_hasherIS7_S8_NS_4hashIS7_EENS_8equal_toIS7_EELb1EEENS_21__unordered_map_equalIS7_S8_SD_SB_Lb1EEENS5_IS8_EEE17__deallocate_nodeEPNS_16__hash_node_baseIPNS_11__hash_nodeIS8_PvEEEE, symObjAddr: 0x259C, symBinAddr: 0x100004380, symSize: 0xA8 }
  - { offsetInCU: 0x18339, offset: 0x18339, size: 0x8, addend: 0x0, symName: __ZNSt3__117__compressed_pairINS_16__hash_node_baseIPNS_11__hash_nodeINS_17__hash_value_typeINS_12basic_stringIcNS_11char_traitsIcEENS_9allocatorIcEEEEdEEPvEEEENS7_ISC_EEE5firstB8ue170006Ev, symObjAddr: 0x2644, symBinAddr: 0x100004428, symSize: 0x24 }
  - { offsetInCU: 0x1835E, offset: 0x1835E, size: 0x8, addend: 0x0, symName: __ZNSt3__110unique_ptrIA_PNS_16__hash_node_baseIPNS_11__hash_nodeINS_17__hash_value_typeINS_12basic_stringIcNS_11char_traitsIcEENS_9allocatorIcEEEEdEEPvEEEENS_25__bucket_list_deallocatorINS7_ISF_EEEEED1B8ue170006Ev, symObjAddr: 0x2668, symBinAddr: 0x10000444C, symSize: 0x2C }
  - { offsetInCU: 0x18387, offset: 0x18387, size: 0x8, addend: 0x0, symName: __ZNSt3__112__hash_tableINS_17__hash_value_typeINS_12basic_stringIcNS_11char_traitsIcEENS_9allocatorIcEEEEdEENS_22__unordered_map_hasherIS7_S8_NS_4hashIS7_EENS_8equal_toIS7_EELb1EEENS_21__unordered_map_equalIS7_S8_SD_SB_Lb1EEENS5_IS8_EEE12__node_allocB8ue170006Ev, symObjAddr: 0x2694, symBinAddr: 0x100004478, symSize: 0x28 }
  - { offsetInCU: 0x183AC, offset: 0x183AC, size: 0x8, addend: 0x0, symName: __ZNSt3__116__hash_node_baseIPNS_11__hash_nodeINS_17__hash_value_typeINS_12basic_stringIcNS_11char_traitsIcEENS_9allocatorIcEEEEdEEPvEEE8__upcastB8ue170006Ev, symObjAddr: 0x26BC, symBinAddr: 0x1000044A0, symSize: 0x24 }
  - { offsetInCU: 0x183D6, offset: 0x183D6, size: 0x8, addend: 0x0, symName: __ZNSt3__116allocator_traitsINS_9allocatorINS_11__hash_nodeINS_17__hash_value_typeINS_12basic_stringIcNS_11char_traitsIcEENS1_IcEEEEdEEPvEEEEE7destroyB8ue170006INS_4pairIKS8_dEEvvEEvRSC_PT_, symObjAddr: 0x26E0, symBinAddr: 0x1000044C4, symSize: 0x28 }
  - { offsetInCU: 0x18410, offset: 0x18410, size: 0x8, addend: 0x0, symName: __ZNSt3__122__hash_key_value_typesINS_17__hash_value_typeINS_12basic_stringIcNS_11char_traitsIcEENS_9allocatorIcEEEEdEEE9__get_ptrB8ue170006ERS8_, symObjAddr: 0x2708, symBinAddr: 0x1000044EC, symSize: 0x24 }
  - { offsetInCU: 0x18433, offset: 0x18433, size: 0x8, addend: 0x0, symName: __ZNSt3__116allocator_traitsINS_9allocatorINS_11__hash_nodeINS_17__hash_value_typeINS_12basic_stringIcNS_11char_traitsIcEENS1_IcEEEEdEEPvEEEEE10deallocateB8ue170006ERSC_PSB_m, symObjAddr: 0x272C, symBinAddr: 0x100004510, symSize: 0x34 }
  - { offsetInCU: 0x18475, offset: 0x18475, size: 0x8, addend: 0x0, symName: __ZNSt3__117__compressed_pairINS_16__hash_node_baseIPNS_11__hash_nodeINS_17__hash_value_typeINS_12basic_stringIcNS_11char_traitsIcEENS_9allocatorIcEEEEdEEPvEEEENS7_ISC_EEE6secondB8ue170006Ev, symObjAddr: 0x2760, symBinAddr: 0x100004544, symSize: 0x24 }
  - { offsetInCU: 0x1849A, offset: 0x1849A, size: 0x8, addend: 0x0, symName: __ZNSt3__122__compressed_pair_elemINS_9allocatorINS_11__hash_nodeINS_17__hash_value_typeINS_12basic_stringIcNS_11char_traitsIcEENS1_IcEEEEdEEPvEEEELi1ELb1EE5__getB8ue170006Ev, symObjAddr: 0x2784, symBinAddr: 0x100004568, symSize: 0x14 }
  - { offsetInCU: 0x184BF, offset: 0x184BF, size: 0x8, addend: 0x0, symName: __ZNSt3__114pointer_traitsIPNS_16__hash_node_baseIPNS_11__hash_nodeINS_17__hash_value_typeINS_12basic_stringIcNS_11char_traitsIcEENS_9allocatorIcEEEEdEEPvEEEEE10pointer_toB8ue170006ERSE_, symObjAddr: 0x2798, symBinAddr: 0x10000457C, symSize: 0x14 }
  - { offsetInCU: 0x184E2, offset: 0x184E2, size: 0x8, addend: 0x0, symName: __ZNSt3__14pairIKNS_12basic_stringIcNS_11char_traitsIcEENS_9allocatorIcEEEEdED1Ev, symObjAddr: 0x27AC, symBinAddr: 0x100004590, symSize: 0x2C }
  - { offsetInCU: 0x1850D, offset: 0x1850D, size: 0x8, addend: 0x0, symName: __ZNSt3__14pairIKNS_12basic_stringIcNS_11char_traitsIcEENS_9allocatorIcEEEEdED2Ev, symObjAddr: 0x27D8, symBinAddr: 0x1000045BC, symSize: 0x2C }
  - { offsetInCU: 0x18538, offset: 0x18538, size: 0x8, addend: 0x0, symName: __ZNSt3__117__hash_value_typeINS_12basic_stringIcNS_11char_traitsIcEENS_9allocatorIcEEEEdE11__get_valueB8ue170006Ev, symObjAddr: 0x2804, symBinAddr: 0x1000045E8, symSize: 0x14 }
  - { offsetInCU: 0x1855D, offset: 0x1855D, size: 0x8, addend: 0x0, symName: __ZNSt3__19allocatorINS_11__hash_nodeINS_17__hash_value_typeINS_12basic_stringIcNS_11char_traitsIcEENS0_IcEEEEdEEPvEEE10deallocateB8ue170006EPSA_m, symObjAddr: 0x2818, symBinAddr: 0x1000045FC, symSize: 0x44 }
  - { offsetInCU: 0x1859E, offset: 0x1859E, size: 0x8, addend: 0x0, symName: __ZNSt3__122__compressed_pair_elemINS_16__hash_node_baseIPNS_11__hash_nodeINS_17__hash_value_typeINS_12basic_stringIcNS_11char_traitsIcEENS_9allocatorIcEEEEdEEPvEEEELi0ELb0EE5__getB8ue170006Ev, symObjAddr: 0x28D8, symBinAddr: 0x1000046BC, symSize: 0x14 }
  - { offsetInCU: 0x185C3, offset: 0x185C3, size: 0x8, addend: 0x0, symName: __ZNSt3__110unique_ptrIA_PNS_16__hash_node_baseIPNS_11__hash_nodeINS_17__hash_value_typeINS_12basic_stringIcNS_11char_traitsIcEENS_9allocatorIcEEEEdEEPvEEEENS_25__bucket_list_deallocatorINS7_ISF_EEEEED2B8ue170006Ev, symObjAddr: 0x28EC, symBinAddr: 0x1000046D0, symSize: 0x30 }
  - { offsetInCU: 0x185EC, offset: 0x185EC, size: 0x8, addend: 0x0, symName: __ZNSt3__110unique_ptrIA_PNS_16__hash_node_baseIPNS_11__hash_nodeINS_17__hash_value_typeINS_12basic_stringIcNS_11char_traitsIcEENS_9allocatorIcEEEEdEEPvEEEENS_25__bucket_list_deallocatorINS7_ISF_EEEEE5resetB8ue170006EDn, symObjAddr: 0x291C, symBinAddr: 0x100004700, symSize: 0x6C }
  - { offsetInCU: 0x1862B, offset: 0x1862B, size: 0x8, addend: 0x0, symName: __ZNSt3__117__compressed_pairIPPNS_16__hash_node_baseIPNS_11__hash_nodeINS_17__hash_value_typeINS_12basic_stringIcNS_11char_traitsIcEENS_9allocatorIcEEEEdEEPvEEEENS_25__bucket_list_deallocatorINS7_ISF_EEEEE5firstB8ue170006Ev, symObjAddr: 0x2988, symBinAddr: 0x10000476C, symSize: 0x24 }
  - { offsetInCU: 0x18650, offset: 0x18650, size: 0x8, addend: 0x0, symName: __ZNSt3__117__compressed_pairIPPNS_16__hash_node_baseIPNS_11__hash_nodeINS_17__hash_value_typeINS_12basic_stringIcNS_11char_traitsIcEENS_9allocatorIcEEEEdEEPvEEEENS_25__bucket_list_deallocatorINS7_ISF_EEEEE6secondB8ue170006Ev, symObjAddr: 0x29AC, symBinAddr: 0x100004790, symSize: 0x28 }
  - { offsetInCU: 0x18675, offset: 0x18675, size: 0x8, addend: 0x0, symName: __ZNSt3__125__bucket_list_deallocatorINS_9allocatorIPNS_16__hash_node_baseIPNS_11__hash_nodeINS_17__hash_value_typeINS_12basic_stringIcNS_11char_traitsIcEENS1_IcEEEEdEEPvEEEEEEEclB8ue170006EPSF_, symObjAddr: 0x29D4, symBinAddr: 0x1000047B8, symSize: 0x58 }
  - { offsetInCU: 0x186A9, offset: 0x186A9, size: 0x8, addend: 0x0, symName: __ZNSt3__122__compressed_pair_elemIPPNS_16__hash_node_baseIPNS_11__hash_nodeINS_17__hash_value_typeINS_12basic_stringIcNS_11char_traitsIcEENS_9allocatorIcEEEEdEEPvEEEELi0ELb0EE5__getB8ue170006Ev, symObjAddr: 0x2A2C, symBinAddr: 0x100004810, symSize: 0x14 }
  - { offsetInCU: 0x186CE, offset: 0x186CE, size: 0x8, addend: 0x0, symName: __ZNSt3__122__compressed_pair_elemINS_25__bucket_list_deallocatorINS_9allocatorIPNS_16__hash_node_baseIPNS_11__hash_nodeINS_17__hash_value_typeINS_12basic_stringIcNS_11char_traitsIcEENS2_IcEEEEdEEPvEEEEEEEELi1ELb0EE5__getB8ue170006Ev, symObjAddr: 0x2A40, symBinAddr: 0x100004824, symSize: 0x14 }
  - { offsetInCU: 0x186F3, offset: 0x186F3, size: 0x8, addend: 0x0, symName: __ZNSt3__116allocator_traitsINS_9allocatorIPNS_16__hash_node_baseIPNS_11__hash_nodeINS_17__hash_value_typeINS_12basic_stringIcNS_11char_traitsIcEENS1_IcEEEEdEEPvEEEEEEE10deallocateB8ue170006ERSG_PSF_m, symObjAddr: 0x2A54, symBinAddr: 0x100004838, symSize: 0x34 }
  - { offsetInCU: 0x18735, offset: 0x18735, size: 0x8, addend: 0x0, symName: __ZNSt3__125__bucket_list_deallocatorINS_9allocatorIPNS_16__hash_node_baseIPNS_11__hash_nodeINS_17__hash_value_typeINS_12basic_stringIcNS_11char_traitsIcEENS1_IcEEEEdEEPvEEEEEEE7__allocB8ue170006Ev, symObjAddr: 0x2A88, symBinAddr: 0x10000486C, symSize: 0x24 }
  - { offsetInCU: 0x1875A, offset: 0x1875A, size: 0x8, addend: 0x0, symName: __ZNSt3__125__bucket_list_deallocatorINS_9allocatorIPNS_16__hash_node_baseIPNS_11__hash_nodeINS_17__hash_value_typeINS_12basic_stringIcNS_11char_traitsIcEENS1_IcEEEEdEEPvEEEEEEE4sizeB8ue170006Ev, symObjAddr: 0x2AAC, symBinAddr: 0x100004890, symSize: 0x24 }
  - { offsetInCU: 0x1877F, offset: 0x1877F, size: 0x8, addend: 0x0, symName: __ZNSt3__19allocatorIPNS_16__hash_node_baseIPNS_11__hash_nodeINS_17__hash_value_typeINS_12basic_stringIcNS_11char_traitsIcEENS0_IcEEEEdEEPvEEEEE10deallocateB8ue170006EPSE_m, symObjAddr: 0x2AD0, symBinAddr: 0x1000048B4, symSize: 0x40 }
  - { offsetInCU: 0x187C0, offset: 0x187C0, size: 0x8, addend: 0x0, symName: __ZNSt3__117__compressed_pairImNS_9allocatorIPNS_16__hash_node_baseIPNS_11__hash_nodeINS_17__hash_value_typeINS_12basic_stringIcNS_11char_traitsIcEENS1_IcEEEEdEEPvEEEEEEE6secondB8ue170006Ev, symObjAddr: 0x2B10, symBinAddr: 0x1000048F4, symSize: 0x24 }
  - { offsetInCU: 0x187E5, offset: 0x187E5, size: 0x8, addend: 0x0, symName: __ZNSt3__122__compressed_pair_elemINS_9allocatorIPNS_16__hash_node_baseIPNS_11__hash_nodeINS_17__hash_value_typeINS_12basic_stringIcNS_11char_traitsIcEENS1_IcEEEEdEEPvEEEEEELi1ELb1EE5__getB8ue170006Ev, symObjAddr: 0x2B34, symBinAddr: 0x100004918, symSize: 0x14 }
  - { offsetInCU: 0x1880A, offset: 0x1880A, size: 0x8, addend: 0x0, symName: __ZNSt3__117__compressed_pairImNS_9allocatorIPNS_16__hash_node_baseIPNS_11__hash_nodeINS_17__hash_value_typeINS_12basic_stringIcNS_11char_traitsIcEENS1_IcEEEEdEEPvEEEEEEE5firstB8ue170006Ev, symObjAddr: 0x2B48, symBinAddr: 0x10000492C, symSize: 0x24 }
  - { offsetInCU: 0x1882F, offset: 0x1882F, size: 0x8, addend: 0x0, symName: __ZNSt3__122__compressed_pair_elemImLi0ELb0EE5__getB8ue170006Ev, symObjAddr: 0x2B6C, symBinAddr: 0x100004950, symSize: 0x14 }
  - { offsetInCU: 0x18854, offset: 0x18854, size: 0x8, addend: 0x0, symName: __ZNSt3__117__hash_value_typeINS_12basic_stringIcNS_11char_traitsIcEENS_9allocatorIcEEEENS_13unordered_mapIS6_dNS_4hashIS6_EENS_8equal_toIS6_EENS4_INS_4pairIKS6_dEEEEEEE11__get_valueB8ue170006Ev, symObjAddr: 0x2B80, symBinAddr: 0x100004964, symSize: 0x14 }
  - { offsetInCU: 0x18879, offset: 0x18879, size: 0x8, addend: 0x0, symName: __ZNSt3__19allocatorINS_11__hash_nodeINS_17__hash_value_typeINS_12basic_stringIcNS_11char_traitsIcEENS0_IcEEEENS_13unordered_mapIS7_dNS_4hashIS7_EENS_8equal_toIS7_EENS0_INS_4pairIKS7_dEEEEEEEEPvEEE10deallocateB8ue170006EPSK_m, symObjAddr: 0x2B94, symBinAddr: 0x100004978, symSize: 0x44 }
  - { offsetInCU: 0x188BA, offset: 0x188BA, size: 0x8, addend: 0x0, symName: __ZNSt3__122__compressed_pair_elemINS_16__hash_node_baseIPNS_11__hash_nodeINS_17__hash_value_typeINS_12basic_stringIcNS_11char_traitsIcEENS_9allocatorIcEEEENS_13unordered_mapIS9_dNS_4hashIS9_EENS_8equal_toIS9_EENS7_INS_4pairIKS9_dEEEEEEEEPvEEEELi0ELb0EE5__getB8ue170006Ev, symObjAddr: 0x2BD8, symBinAddr: 0x1000049BC, symSize: 0x14 }
  - { offsetInCU: 0x188DF, offset: 0x188DF, size: 0x8, addend: 0x0, symName: __ZNSt3__110unique_ptrIA_PNS_16__hash_node_baseIPNS_11__hash_nodeINS_17__hash_value_typeINS_12basic_stringIcNS_11char_traitsIcEENS_9allocatorIcEEEENS_13unordered_mapIS9_dNS_4hashIS9_EENS_8equal_toIS9_EENS7_INS_4pairIKS9_dEEEEEEEEPvEEEENS_25__bucket_list_deallocatorINS7_ISP_EEEEED2B8ue170006Ev, symObjAddr: 0x2BEC, symBinAddr: 0x1000049D0, symSize: 0x30 }
  - { offsetInCU: 0x18908, offset: 0x18908, size: 0x8, addend: 0x0, symName: __ZNSt3__110unique_ptrIA_PNS_16__hash_node_baseIPNS_11__hash_nodeINS_17__hash_value_typeINS_12basic_stringIcNS_11char_traitsIcEENS_9allocatorIcEEEENS_13unordered_mapIS9_dNS_4hashIS9_EENS_8equal_toIS9_EENS7_INS_4pairIKS9_dEEEEEEEEPvEEEENS_25__bucket_list_deallocatorINS7_ISP_EEEEE5resetB8ue170006EDn, symObjAddr: 0x2C1C, symBinAddr: 0x100004A00, symSize: 0x6C }
  - { offsetInCU: 0x18947, offset: 0x18947, size: 0x8, addend: 0x0, symName: __ZNSt3__117__compressed_pairIPPNS_16__hash_node_baseIPNS_11__hash_nodeINS_17__hash_value_typeINS_12basic_stringIcNS_11char_traitsIcEENS_9allocatorIcEEEENS_13unordered_mapIS9_dNS_4hashIS9_EENS_8equal_toIS9_EENS7_INS_4pairIKS9_dEEEEEEEEPvEEEENS_25__bucket_list_deallocatorINS7_ISP_EEEEE5firstB8ue170006Ev, symObjAddr: 0x2C88, symBinAddr: 0x100004A6C, symSize: 0x24 }
  - { offsetInCU: 0x1896C, offset: 0x1896C, size: 0x8, addend: 0x0, symName: __ZNSt3__117__compressed_pairIPPNS_16__hash_node_baseIPNS_11__hash_nodeINS_17__hash_value_typeINS_12basic_stringIcNS_11char_traitsIcEENS_9allocatorIcEEEENS_13unordered_mapIS9_dNS_4hashIS9_EENS_8equal_toIS9_EENS7_INS_4pairIKS9_dEEEEEEEEPvEEEENS_25__bucket_list_deallocatorINS7_ISP_EEEEE6secondB8ue170006Ev, symObjAddr: 0x2CAC, symBinAddr: 0x100004A90, symSize: 0x28 }
  - { offsetInCU: 0x18991, offset: 0x18991, size: 0x8, addend: 0x0, symName: __ZNSt3__125__bucket_list_deallocatorINS_9allocatorIPNS_16__hash_node_baseIPNS_11__hash_nodeINS_17__hash_value_typeINS_12basic_stringIcNS_11char_traitsIcEENS1_IcEEEENS_13unordered_mapIS9_dNS_4hashIS9_EENS_8equal_toIS9_EENS1_INS_4pairIKS9_dEEEEEEEEPvEEEEEEEclB8ue170006EPSP_, symObjAddr: 0x2CD4, symBinAddr: 0x100004AB8, symSize: 0x58 }
  - { offsetInCU: 0x189C5, offset: 0x189C5, size: 0x8, addend: 0x0, symName: __ZNSt3__122__compressed_pair_elemIPPNS_16__hash_node_baseIPNS_11__hash_nodeINS_17__hash_value_typeINS_12basic_stringIcNS_11char_traitsIcEENS_9allocatorIcEEEENS_13unordered_mapIS9_dNS_4hashIS9_EENS_8equal_toIS9_EENS7_INS_4pairIKS9_dEEEEEEEEPvEEEELi0ELb0EE5__getB8ue170006Ev, symObjAddr: 0x2D2C, symBinAddr: 0x100004B10, symSize: 0x14 }
  - { offsetInCU: 0x189EA, offset: 0x189EA, size: 0x8, addend: 0x0, symName: __ZNSt3__122__compressed_pair_elemINS_25__bucket_list_deallocatorINS_9allocatorIPNS_16__hash_node_baseIPNS_11__hash_nodeINS_17__hash_value_typeINS_12basic_stringIcNS_11char_traitsIcEENS2_IcEEEENS_13unordered_mapISA_dNS_4hashISA_EENS_8equal_toISA_EENS2_INS_4pairIKSA_dEEEEEEEEPvEEEEEEEELi1ELb0EE5__getB8ue170006Ev, symObjAddr: 0x2D40, symBinAddr: 0x100004B24, symSize: 0x14 }
  - { offsetInCU: 0x18A0F, offset: 0x18A0F, size: 0x8, addend: 0x0, symName: __ZNSt3__116allocator_traitsINS_9allocatorIPNS_16__hash_node_baseIPNS_11__hash_nodeINS_17__hash_value_typeINS_12basic_stringIcNS_11char_traitsIcEENS1_IcEEEENS_13unordered_mapIS9_dNS_4hashIS9_EENS_8equal_toIS9_EENS1_INS_4pairIKS9_dEEEEEEEEPvEEEEEEE10deallocateB8ue170006ERSQ_PSP_m, symObjAddr: 0x2D54, symBinAddr: 0x100004B38, symSize: 0x34 }
  - { offsetInCU: 0x18A51, offset: 0x18A51, size: 0x8, addend: 0x0, symName: __ZNSt3__125__bucket_list_deallocatorINS_9allocatorIPNS_16__hash_node_baseIPNS_11__hash_nodeINS_17__hash_value_typeINS_12basic_stringIcNS_11char_traitsIcEENS1_IcEEEENS_13unordered_mapIS9_dNS_4hashIS9_EENS_8equal_toIS9_EENS1_INS_4pairIKS9_dEEEEEEEEPvEEEEEEE7__allocB8ue170006Ev, symObjAddr: 0x2D88, symBinAddr: 0x100004B6C, symSize: 0x24 }
  - { offsetInCU: 0x18A76, offset: 0x18A76, size: 0x8, addend: 0x0, symName: __ZNSt3__125__bucket_list_deallocatorINS_9allocatorIPNS_16__hash_node_baseIPNS_11__hash_nodeINS_17__hash_value_typeINS_12basic_stringIcNS_11char_traitsIcEENS1_IcEEEENS_13unordered_mapIS9_dNS_4hashIS9_EENS_8equal_toIS9_EENS1_INS_4pairIKS9_dEEEEEEEEPvEEEEEEE4sizeB8ue170006Ev, symObjAddr: 0x2DAC, symBinAddr: 0x100004B90, symSize: 0x24 }
  - { offsetInCU: 0x18A9B, offset: 0x18A9B, size: 0x8, addend: 0x0, symName: __ZNSt3__19allocatorIPNS_16__hash_node_baseIPNS_11__hash_nodeINS_17__hash_value_typeINS_12basic_stringIcNS_11char_traitsIcEENS0_IcEEEENS_13unordered_mapIS8_dNS_4hashIS8_EENS_8equal_toIS8_EENS0_INS_4pairIKS8_dEEEEEEEEPvEEEEE10deallocateB8ue170006EPSO_m, symObjAddr: 0x2DD0, symBinAddr: 0x100004BB4, symSize: 0x40 }
  - { offsetInCU: 0x18ADC, offset: 0x18ADC, size: 0x8, addend: 0x0, symName: __ZNSt3__117__compressed_pairImNS_9allocatorIPNS_16__hash_node_baseIPNS_11__hash_nodeINS_17__hash_value_typeINS_12basic_stringIcNS_11char_traitsIcEENS1_IcEEEENS_13unordered_mapIS9_dNS_4hashIS9_EENS_8equal_toIS9_EENS1_INS_4pairIKS9_dEEEEEEEEPvEEEEEEE6secondB8ue170006Ev, symObjAddr: 0x2E10, symBinAddr: 0x100004BF4, symSize: 0x24 }
  - { offsetInCU: 0x18B01, offset: 0x18B01, size: 0x8, addend: 0x0, symName: __ZNSt3__122__compressed_pair_elemINS_9allocatorIPNS_16__hash_node_baseIPNS_11__hash_nodeINS_17__hash_value_typeINS_12basic_stringIcNS_11char_traitsIcEENS1_IcEEEENS_13unordered_mapIS9_dNS_4hashIS9_EENS_8equal_toIS9_EENS1_INS_4pairIKS9_dEEEEEEEEPvEEEEEELi1ELb1EE5__getB8ue170006Ev, symObjAddr: 0x2E34, symBinAddr: 0x100004C18, symSize: 0x14 }
  - { offsetInCU: 0x18B26, offset: 0x18B26, size: 0x8, addend: 0x0, symName: __ZNSt3__117__compressed_pairImNS_9allocatorIPNS_16__hash_node_baseIPNS_11__hash_nodeINS_17__hash_value_typeINS_12basic_stringIcNS_11char_traitsIcEENS1_IcEEEENS_13unordered_mapIS9_dNS_4hashIS9_EENS_8equal_toIS9_EENS1_INS_4pairIKS9_dEEEEEEEEPvEEEEEEE5firstB8ue170006Ev, symObjAddr: 0x2E48, symBinAddr: 0x100004C2C, symSize: 0x24 }
  - { offsetInCU: 0x18B4B, offset: 0x18B4B, size: 0x8, addend: 0x0, symName: __ZNSt3__112basic_stringIcNS_11char_traitsIcEENS_9allocatorIcEEEC2B8ue170006ILi0EEEPKc, symObjAddr: 0x2E6C, symBinAddr: 0x100004C50, symSize: 0x58 }
  - { offsetInCU: 0x18B8E, offset: 0x18B8E, size: 0x8, addend: 0x0, symName: __ZNSt3__117__compressed_pairINS_12basic_stringIcNS_11char_traitsIcEENS_9allocatorIcEEE5__repES5_EC1B8ue170006INS_18__default_init_tagESA_EEOT_OT0_, symObjAddr: 0x2EC4, symBinAddr: 0x100004CA8, symSize: 0x3C }
  - { offsetInCU: 0x18BE5, offset: 0x18BE5, size: 0x8, addend: 0x0, symName: __ZNSt3__111char_traitsIcE6lengthB8ue170006EPKc, symObjAddr: 0x2F00, symBinAddr: 0x100004CE4, symSize: 0x34 }
  - { offsetInCU: 0x18C08, offset: 0x18C08, size: 0x8, addend: 0x0, symName: __ZNSt3__117__compressed_pairINS_12basic_stringIcNS_11char_traitsIcEENS_9allocatorIcEEE5__repES5_EC2B8ue170006INS_18__default_init_tagESA_EEOT_OT0_, symObjAddr: 0x2F34, symBinAddr: 0x100004D18, symSize: 0x3C }
  - { offsetInCU: 0x18C5F, offset: 0x18C5F, size: 0x8, addend: 0x0, symName: __ZNSt3__122__compressed_pair_elemINS_12basic_stringIcNS_11char_traitsIcEENS_9allocatorIcEEE5__repELi0ELb0EEC2B8ue170006ENS_18__default_init_tagE, symObjAddr: 0x2F70, symBinAddr: 0x100004D54, symSize: 0x14 }
  - { offsetInCU: 0x18C93, offset: 0x18C93, size: 0x8, addend: 0x0, symName: __ZNSt3__122__compressed_pair_elemINS_9allocatorIcEELi1ELb1EEC2B8ue170006ENS_18__default_init_tagE, symObjAddr: 0x2F84, symBinAddr: 0x100004D68, symSize: 0x2C }
  - { offsetInCU: 0x18CC7, offset: 0x18CC7, size: 0x8, addend: 0x0, symName: __ZNSt3__19allocatorIcEC2B8ue170006Ev, symObjAddr: 0x2FB0, symBinAddr: 0x100004D94, symSize: 0x2C }
  - { offsetInCU: 0x18CF0, offset: 0x18CF0, size: 0x8, addend: 0x0, symName: __ZNSt3__116__non_trivial_ifILb1ENS_9allocatorIcEEEC2B8ue170006Ev, symObjAddr: 0x2FDC, symBinAddr: 0x100004DC0, symSize: 0x14 }
  - { offsetInCU: 0x18D19, offset: 0x18D19, size: 0x8, addend: 0x0, symName: __ZNSt3__113unordered_setINS_12basic_stringIcNS_11char_traitsIcEENS_9allocatorIcEEEENS_4hashIS6_EENS_8equal_toIS6_EENS4_IS6_EEEC2IPKS6_EET_SG_, symObjAddr: 0x3014, symBinAddr: 0x100004DF8, symSize: 0x6C }
  - { offsetInCU: 0x18D6B, offset: 0x18D6B, size: 0x8, addend: 0x0, symName: __ZNSt3__112__hash_tableINS_12basic_stringIcNS_11char_traitsIcEENS_9allocatorIcEEEENS_4hashIS6_EENS_8equal_toIS6_EENS4_IS6_EEEC1Ev, symObjAddr: 0x3080, symBinAddr: 0x100004E64, symSize: 0x2C }
  - { offsetInCU: 0x18D95, offset: 0x18D95, size: 0x8, addend: 0x0, symName: __ZNSt3__113unordered_setINS_12basic_stringIcNS_11char_traitsIcEENS_9allocatorIcEEEENS_4hashIS6_EENS_8equal_toIS6_EENS4_IS6_EEE6insertIPKS6_EEvT_SG_, symObjAddr: 0x30AC, symBinAddr: 0x100004E90, symSize: 0x70 }
  - { offsetInCU: 0x18DE3, offset: 0x18DE3, size: 0x8, addend: 0x0, symName: __ZNSt3__112__hash_tableINS_12basic_stringIcNS_11char_traitsIcEENS_9allocatorIcEEEENS_4hashIS6_EENS_8equal_toIS6_EENS4_IS6_EEED1Ev, symObjAddr: 0x311C, symBinAddr: 0x100004F00, symSize: 0x2C }
  - { offsetInCU: 0x18E0E, offset: 0x18E0E, size: 0x8, addend: 0x0, symName: __ZNSt3__112__hash_tableINS_12basic_stringIcNS_11char_traitsIcEENS_9allocatorIcEEEENS_4hashIS6_EENS_8equal_toIS6_EENS4_IS6_EEEC2Ev, symObjAddr: 0x3148, symBinAddr: 0x100004F2C, symSize: 0x7C }
  - { offsetInCU: 0x18E39, offset: 0x18E39, size: 0x8, addend: 0x0, symName: __ZNSt3__110unique_ptrIA_PNS_16__hash_node_baseIPNS_11__hash_nodeINS_12basic_stringIcNS_11char_traitsIcEENS_9allocatorIcEEEEPvEEEENS_25__bucket_list_deallocatorINS6_ISD_EEEEEC1B8ue170006ILb1EvEEv, symObjAddr: 0x31C4, symBinAddr: 0x100004FA8, symSize: 0x2C }
  - { offsetInCU: 0x18E6D, offset: 0x18E6D, size: 0x8, addend: 0x0, symName: __ZNSt3__117__compressed_pairINS_16__hash_node_baseIPNS_11__hash_nodeINS_12basic_stringIcNS_11char_traitsIcEENS_9allocatorIcEEEEPvEEEENS6_ISA_EEEC1B8ue170006ILb1EvEEv, symObjAddr: 0x31F0, symBinAddr: 0x100004FD4, symSize: 0x2C }
  - { offsetInCU: 0x18EA6, offset: 0x18EA6, size: 0x8, addend: 0x0, symName: __ZNSt3__117__compressed_pairImNS_4hashINS_12basic_stringIcNS_11char_traitsIcEENS_9allocatorIcEEEEEEEC1B8ue170006IiNS_18__default_init_tagEEEOT_OT0_, symObjAddr: 0x321C, symBinAddr: 0x100005000, symSize: 0x3C }
  - { offsetInCU: 0x18F02, offset: 0x18F02, size: 0x8, addend: 0x0, symName: __ZNSt3__117__compressed_pairIfNS_8equal_toINS_12basic_stringIcNS_11char_traitsIcEENS_9allocatorIcEEEEEEEC1B8ue170006IfNS_18__default_init_tagEEEOT_OT0_, symObjAddr: 0x3258, symBinAddr: 0x10000503C, symSize: 0x3C }
  - { offsetInCU: 0x18F59, offset: 0x18F59, size: 0x8, addend: 0x0, symName: __ZNSt3__110unique_ptrIA_PNS_16__hash_node_baseIPNS_11__hash_nodeINS_12basic_stringIcNS_11char_traitsIcEENS_9allocatorIcEEEEPvEEEENS_25__bucket_list_deallocatorINS6_ISD_EEEEEC2B8ue170006ILb1EvEEv, symObjAddr: 0x3294, symBinAddr: 0x100005078, symSize: 0x3C }
  - { offsetInCU: 0x18F92, offset: 0x18F92, size: 0x8, addend: 0x0, symName: __ZNSt3__117__compressed_pairIPPNS_16__hash_node_baseIPNS_11__hash_nodeINS_12basic_stringIcNS_11char_traitsIcEENS_9allocatorIcEEEEPvEEEENS_25__bucket_list_deallocatorINS6_ISD_EEEEEC1B8ue170006INS_16__value_init_tagESK_EEOT_OT0_, symObjAddr: 0x32D0, symBinAddr: 0x1000050B4, symSize: 0x3C }
  - { offsetInCU: 0x18FE9, offset: 0x18FE9, size: 0x8, addend: 0x0, symName: __ZNSt3__117__compressed_pairIPPNS_16__hash_node_baseIPNS_11__hash_nodeINS_12basic_stringIcNS_11char_traitsIcEENS_9allocatorIcEEEEPvEEEENS_25__bucket_list_deallocatorINS6_ISD_EEEEEC2B8ue170006INS_16__value_init_tagESK_EEOT_OT0_, symObjAddr: 0x330C, symBinAddr: 0x1000050F0, symSize: 0x40 }
  - { offsetInCU: 0x19040, offset: 0x19040, size: 0x8, addend: 0x0, symName: __ZNSt3__122__compressed_pair_elemIPPNS_16__hash_node_baseIPNS_11__hash_nodeINS_12basic_stringIcNS_11char_traitsIcEENS_9allocatorIcEEEEPvEEEELi0ELb0EEC2B8ue170006ENS_16__value_init_tagE, symObjAddr: 0x334C, symBinAddr: 0x100005130, symSize: 0x18 }
  - { offsetInCU: 0x19074, offset: 0x19074, size: 0x8, addend: 0x0, symName: __ZNSt3__122__compressed_pair_elemINS_25__bucket_list_deallocatorINS_9allocatorIPNS_16__hash_node_baseIPNS_11__hash_nodeINS_12basic_stringIcNS_11char_traitsIcEENS2_IcEEEEPvEEEEEEEELi1ELb0EEC2B8ue170006ENS_16__value_init_tagE, symObjAddr: 0x3364, symBinAddr: 0x100005148, symSize: 0x2C }
  - { offsetInCU: 0x190A8, offset: 0x190A8, size: 0x8, addend: 0x0, symName: __ZNSt3__125__bucket_list_deallocatorINS_9allocatorIPNS_16__hash_node_baseIPNS_11__hash_nodeINS_12basic_stringIcNS_11char_traitsIcEENS1_IcEEEEPvEEEEEEEC1B8ue170006Ev, symObjAddr: 0x3390, symBinAddr: 0x100005174, symSize: 0x2C }
  - { offsetInCU: 0x190D1, offset: 0x190D1, size: 0x8, addend: 0x0, symName: __ZNSt3__125__bucket_list_deallocatorINS_9allocatorIPNS_16__hash_node_baseIPNS_11__hash_nodeINS_12basic_stringIcNS_11char_traitsIcEENS1_IcEEEEPvEEEEEEEC2B8ue170006Ev, symObjAddr: 0x33BC, symBinAddr: 0x1000051A0, symSize: 0x40 }
  - { offsetInCU: 0x190FA, offset: 0x190FA, size: 0x8, addend: 0x0, symName: __ZNSt3__117__compressed_pairImNS_9allocatorIPNS_16__hash_node_baseIPNS_11__hash_nodeINS_12basic_stringIcNS_11char_traitsIcEENS1_IcEEEEPvEEEEEEEC1B8ue170006IiNS_18__default_init_tagEEEOT_OT0_, symObjAddr: 0x33FC, symBinAddr: 0x1000051E0, symSize: 0x3C }
  - { offsetInCU: 0x19151, offset: 0x19151, size: 0x8, addend: 0x0, symName: __ZNSt3__117__compressed_pairImNS_9allocatorIPNS_16__hash_node_baseIPNS_11__hash_nodeINS_12basic_stringIcNS_11char_traitsIcEENS1_IcEEEEPvEEEEEEEC2B8ue170006IiNS_18__default_init_tagEEEOT_OT0_, symObjAddr: 0x3438, symBinAddr: 0x10000521C, symSize: 0x40 }
  - { offsetInCU: 0x191A8, offset: 0x191A8, size: 0x8, addend: 0x0, symName: __ZNSt3__122__compressed_pair_elemImLi0ELb0EEC2B8ue170006IivEEOT_, symObjAddr: 0x3478, symBinAddr: 0x10000525C, symSize: 0x24 }
  - { offsetInCU: 0x191E9, offset: 0x191E9, size: 0x8, addend: 0x0, symName: __ZNSt3__122__compressed_pair_elemINS_9allocatorIPNS_16__hash_node_baseIPNS_11__hash_nodeINS_12basic_stringIcNS_11char_traitsIcEENS1_IcEEEEPvEEEEEELi1ELb1EEC2B8ue170006ENS_18__default_init_tagE, symObjAddr: 0x349C, symBinAddr: 0x100005280, symSize: 0x2C }
  - { offsetInCU: 0x1921D, offset: 0x1921D, size: 0x8, addend: 0x0, symName: __ZNSt3__19allocatorIPNS_16__hash_node_baseIPNS_11__hash_nodeINS_12basic_stringIcNS_11char_traitsIcEENS0_IcEEEEPvEEEEEC2B8ue170006Ev, symObjAddr: 0x34C8, symBinAddr: 0x1000052AC, symSize: 0x2C }
  - { offsetInCU: 0x19246, offset: 0x19246, size: 0x8, addend: 0x0, symName: __ZNSt3__116__non_trivial_ifILb1ENS_9allocatorIPNS_16__hash_node_baseIPNS_11__hash_nodeINS_12basic_stringIcNS_11char_traitsIcEENS1_IcEEEEPvEEEEEEEC2B8ue170006Ev, symObjAddr: 0x34F4, symBinAddr: 0x1000052D8, symSize: 0x14 }
  - { offsetInCU: 0x1926F, offset: 0x1926F, size: 0x8, addend: 0x0, symName: __ZNSt3__117__compressed_pairINS_16__hash_node_baseIPNS_11__hash_nodeINS_12basic_stringIcNS_11char_traitsIcEENS_9allocatorIcEEEEPvEEEENS6_ISA_EEEC2B8ue170006ILb1EvEEv, symObjAddr: 0x3508, symBinAddr: 0x1000052EC, symSize: 0x34 }
  - { offsetInCU: 0x192A3, offset: 0x192A3, size: 0x8, addend: 0x0, symName: __ZNSt3__122__compressed_pair_elemINS_16__hash_node_baseIPNS_11__hash_nodeINS_12basic_stringIcNS_11char_traitsIcEENS_9allocatorIcEEEEPvEEEELi0ELb0EEC2B8ue170006ENS_16__value_init_tagE, symObjAddr: 0x353C, symBinAddr: 0x100005320, symSize: 0x2C }
  - { offsetInCU: 0x192D7, offset: 0x192D7, size: 0x8, addend: 0x0, symName: __ZNSt3__122__compressed_pair_elemINS_9allocatorINS_11__hash_nodeINS_12basic_stringIcNS_11char_traitsIcEENS1_IcEEEEPvEEEELi1ELb1EEC2B8ue170006ENS_16__value_init_tagE, symObjAddr: 0x3568, symBinAddr: 0x10000534C, symSize: 0x2C }
  - { offsetInCU: 0x1930B, offset: 0x1930B, size: 0x8, addend: 0x0, symName: __ZNSt3__116__hash_node_baseIPNS_11__hash_nodeINS_12basic_stringIcNS_11char_traitsIcEENS_9allocatorIcEEEEPvEEEC1B8ue170006Ev, symObjAddr: 0x3594, symBinAddr: 0x100005378, symSize: 0x2C }
  - { offsetInCU: 0x19334, offset: 0x19334, size: 0x8, addend: 0x0, symName: __ZNSt3__116__hash_node_baseIPNS_11__hash_nodeINS_12basic_stringIcNS_11char_traitsIcEENS_9allocatorIcEEEEPvEEEC2B8ue170006Ev, symObjAddr: 0x35C0, symBinAddr: 0x1000053A4, symSize: 0x18 }
  - { offsetInCU: 0x1935D, offset: 0x1935D, size: 0x8, addend: 0x0, symName: __ZNSt3__19allocatorINS_11__hash_nodeINS_12basic_stringIcNS_11char_traitsIcEENS0_IcEEEEPvEEEC2B8ue170006Ev, symObjAddr: 0x35D8, symBinAddr: 0x1000053BC, symSize: 0x2C }
  - { offsetInCU: 0x19386, offset: 0x19386, size: 0x8, addend: 0x0, symName: __ZNSt3__116__non_trivial_ifILb1ENS_9allocatorINS_11__hash_nodeINS_12basic_stringIcNS_11char_traitsIcEENS1_IcEEEEPvEEEEEC2B8ue170006Ev, symObjAddr: 0x3604, symBinAddr: 0x1000053E8, symSize: 0x14 }
  - { offsetInCU: 0x193AF, offset: 0x193AF, size: 0x8, addend: 0x0, symName: __ZNSt3__117__compressed_pairImNS_4hashINS_12basic_stringIcNS_11char_traitsIcEENS_9allocatorIcEEEEEEEC2B8ue170006IiNS_18__default_init_tagEEEOT_OT0_, symObjAddr: 0x3618, symBinAddr: 0x1000053FC, symSize: 0x40 }
  - { offsetInCU: 0x19406, offset: 0x19406, size: 0x8, addend: 0x0, symName: __ZNSt3__122__compressed_pair_elemINS_4hashINS_12basic_stringIcNS_11char_traitsIcEENS_9allocatorIcEEEEEELi1ELb1EEC2B8ue170006ENS_18__default_init_tagE, symObjAddr: 0x3658, symBinAddr: 0x10000543C, symSize: 0x14 }
  - { offsetInCU: 0x1943A, offset: 0x1943A, size: 0x8, addend: 0x0, symName: __ZNSt3__117__compressed_pairIfNS_8equal_toINS_12basic_stringIcNS_11char_traitsIcEENS_9allocatorIcEEEEEEEC2B8ue170006IfNS_18__default_init_tagEEEOT_OT0_, symObjAddr: 0x366C, symBinAddr: 0x100005450, symSize: 0x40 }
  - { offsetInCU: 0x19491, offset: 0x19491, size: 0x8, addend: 0x0, symName: __ZNSt3__122__compressed_pair_elemIfLi0ELb0EEC2B8ue170006IfvEEOT_, symObjAddr: 0x36AC, symBinAddr: 0x100005490, symSize: 0x24 }
  - { offsetInCU: 0x194D2, offset: 0x194D2, size: 0x8, addend: 0x0, symName: __ZNSt3__122__compressed_pair_elemINS_8equal_toINS_12basic_stringIcNS_11char_traitsIcEENS_9allocatorIcEEEEEELi1ELb1EEC2B8ue170006ENS_18__default_init_tagE, symObjAddr: 0x36D0, symBinAddr: 0x1000054B4, symSize: 0x14 }
  - { offsetInCU: 0x19506, offset: 0x19506, size: 0x8, addend: 0x0, symName: __ZNSt3__112__hash_tableINS_12basic_stringIcNS_11char_traitsIcEENS_9allocatorIcEEEENS_4hashIS6_EENS_8equal_toIS6_EENS4_IS6_EEE15__insert_uniqueB8ue170006ERKS6_, symObjAddr: 0x36E4, symBinAddr: 0x1000054C8, symSize: 0x50 }
  - { offsetInCU: 0x19539, offset: 0x19539, size: 0x8, addend: 0x0, symName: __ZNSt3__112__hash_tableINS_12basic_stringIcNS_11char_traitsIcEENS_9allocatorIcEEEENS_4hashIS6_EENS_8equal_toIS6_EENS4_IS6_EEE25__emplace_unique_key_argsIS6_JRKS6_EEENS_4pairINS_15__hash_iteratorIPNS_11__hash_nodeIS6_PvEEEEbEERKT_DpOT0_, symObjAddr: 0x3734, symBinAddr: 0x100005518, symSize: 0x4D8 }
  - { offsetInCU: 0x19618, offset: 0x19618, size: 0x8, addend: 0x0, symName: __ZNSt3__122__hash_key_value_typesINS_12basic_stringIcNS_11char_traitsIcEENS_9allocatorIcEEEEE9__get_keyB8ue170006ERKS6_, symObjAddr: 0x3C0C, symBinAddr: 0x1000059F0, symSize: 0x14 }
  - { offsetInCU: 0x1963B, offset: 0x1963B, size: 0x8, addend: 0x0, symName: __ZNSt3__112__hash_tableINS_12basic_stringIcNS_11char_traitsIcEENS_9allocatorIcEEEENS_4hashIS6_EENS_8equal_toIS6_EENS4_IS6_EEE13hash_functionB8ue170006Ev, symObjAddr: 0x3C20, symBinAddr: 0x100005A04, symSize: 0x28 }
  - { offsetInCU: 0x19660, offset: 0x19660, size: 0x8, addend: 0x0, symName: __ZNKSt3__113__string_hashIcNS_9allocatorIcEEEclB8ue170006ERKNS_12basic_stringIcNS_11char_traitsIcEES2_EE, symObjAddr: 0x3C48, symBinAddr: 0x100005A2C, symSize: 0x64 }
  - { offsetInCU: 0x19694, offset: 0x19694, size: 0x8, addend: 0x0, symName: __ZNKSt3__112__hash_tableINS_12basic_stringIcNS_11char_traitsIcEENS_9allocatorIcEEEENS_4hashIS6_EENS_8equal_toIS6_EENS4_IS6_EEE12bucket_countB8ue170006Ev, symObjAddr: 0x3CAC, symBinAddr: 0x100005A90, symSize: 0x28 }
  - { offsetInCU: 0x196B9, offset: 0x196B9, size: 0x8, addend: 0x0, symName: __ZNKSt3__110unique_ptrIA_PNS_16__hash_node_baseIPNS_11__hash_nodeINS_12basic_stringIcNS_11char_traitsIcEENS_9allocatorIcEEEEPvEEEENS_25__bucket_list_deallocatorINS6_ISD_EEEEEixB8ue170006Em, symObjAddr: 0x3D6C, symBinAddr: 0x100005B50, symSize: 0x34 }
  - { offsetInCU: 0x196ED, offset: 0x196ED, size: 0x8, addend: 0x0, symName: __ZNKSt3__116__hash_node_baseIPNS_11__hash_nodeINS_12basic_stringIcNS_11char_traitsIcEENS_9allocatorIcEEEEPvEEE6__hashB8ue170006Ev, symObjAddr: 0x3DA0, symBinAddr: 0x100005B84, symSize: 0x18 }
  - { offsetInCU: 0x19712, offset: 0x19712, size: 0x8, addend: 0x0, symName: __ZNSt3__112__hash_tableINS_12basic_stringIcNS_11char_traitsIcEENS_9allocatorIcEEEENS_4hashIS6_EENS_8equal_toIS6_EENS4_IS6_EEE6key_eqB8ue170006Ev, symObjAddr: 0x3DB8, symBinAddr: 0x100005B9C, symSize: 0x28 }
  - { offsetInCU: 0x19737, offset: 0x19737, size: 0x8, addend: 0x0, symName: __ZNKSt3__18equal_toINS_12basic_stringIcNS_11char_traitsIcEENS_9allocatorIcEEEEEclB8ue170006ERKS6_S9_, symObjAddr: 0x3DE0, symBinAddr: 0x100005BC4, symSize: 0x34 }
  - { offsetInCU: 0x1977A, offset: 0x1977A, size: 0x8, addend: 0x0, symName: __ZNSt3__116__hash_node_baseIPNS_11__hash_nodeINS_12basic_stringIcNS_11char_traitsIcEENS_9allocatorIcEEEEPvEEE8__upcastB8ue170006Ev, symObjAddr: 0x3E14, symBinAddr: 0x100005BF8, symSize: 0x24 }
  - { offsetInCU: 0x1979E, offset: 0x1979E, size: 0x8, addend: 0x0, symName: __ZNSt3__112__hash_tableINS_12basic_stringIcNS_11char_traitsIcEENS_9allocatorIcEEEENS_4hashIS6_EENS_8equal_toIS6_EENS4_IS6_EEE21__construct_node_hashIRKS6_JEEENS_10unique_ptrINS_11__hash_nodeIS6_PvEENS_22__hash_node_destructorINS4_ISJ_EEEEEEmOT_DpOT0_, symObjAddr: 0x3E38, symBinAddr: 0x100005C1C, symSize: 0x140 }
  - { offsetInCU: 0x19810, offset: 0x19810, size: 0x8, addend: 0x0, symName: __ZNSt3__112__hash_tableINS_12basic_stringIcNS_11char_traitsIcEENS_9allocatorIcEEEENS_4hashIS6_EENS_8equal_toIS6_EENS4_IS6_EEE4sizeB8ue170006Ev, symObjAddr: 0x3F78, symBinAddr: 0x100005D5C, symSize: 0x28 }
  - { offsetInCU: 0x19835, offset: 0x19835, size: 0x8, addend: 0x0, symName: __ZNSt3__112__hash_tableINS_12basic_stringIcNS_11char_traitsIcEENS_9allocatorIcEEEENS_4hashIS6_EENS_8equal_toIS6_EENS4_IS6_EEE15max_load_factorB8ue170006Ev, symObjAddr: 0x3FA0, symBinAddr: 0x100005D84, symSize: 0x28 }
  - { offsetInCU: 0x1985A, offset: 0x1985A, size: 0x8, addend: 0x0, symName: __ZNSt3__112__hash_tableINS_12basic_stringIcNS_11char_traitsIcEENS_9allocatorIcEEEENS_4hashIS6_EENS_8equal_toIS6_EENS4_IS6_EEE15__rehash_uniqueB8ue170006Em, symObjAddr: 0x3FC8, symBinAddr: 0x100005DAC, symSize: 0x2C }
  - { offsetInCU: 0x1988D, offset: 0x1988D, size: 0x8, addend: 0x0, symName: __Z4ceilB8ue170006f, symObjAddr: 0x4070, symBinAddr: 0x100005E54, symSize: 0x18 }
  - { offsetInCU: 0x198BC, offset: 0x198BC, size: 0x8, addend: 0x0, symName: __ZNSt3__117__compressed_pairINS_16__hash_node_baseIPNS_11__hash_nodeINS_12basic_stringIcNS_11char_traitsIcEENS_9allocatorIcEEEEPvEEEENS6_ISA_EEE5firstB8ue170006Ev, symObjAddr: 0x4088, symBinAddr: 0x100005E6C, symSize: 0x24 }
  - { offsetInCU: 0x198E1, offset: 0x198E1, size: 0x8, addend: 0x0, symName: __ZNSt3__116__hash_node_baseIPNS_11__hash_nodeINS_12basic_stringIcNS_11char_traitsIcEENS_9allocatorIcEEEEPvEEE5__ptrB8ue170006Ev, symObjAddr: 0x40AC, symBinAddr: 0x100005E90, symSize: 0x24 }
  - { offsetInCU: 0x19906, offset: 0x19906, size: 0x8, addend: 0x0, symName: __ZNKSt3__110unique_ptrINS_11__hash_nodeINS_12basic_stringIcNS_11char_traitsIcEENS_9allocatorIcEEEEPvEENS_22__hash_node_destructorINS5_IS9_EEEEEptB8ue170006Ev, symObjAddr: 0x40D0, symBinAddr: 0x100005EB4, symSize: 0x28 }
  - { offsetInCU: 0x1992B, offset: 0x1992B, size: 0x8, addend: 0x0, symName: __ZNKSt3__110unique_ptrINS_11__hash_nodeINS_12basic_stringIcNS_11char_traitsIcEENS_9allocatorIcEEEEPvEENS_22__hash_node_destructorINS5_IS9_EEEEE3getB8ue170006Ev, symObjAddr: 0x40F8, symBinAddr: 0x100005EDC, symSize: 0x28 }
  - { offsetInCU: 0x19950, offset: 0x19950, size: 0x8, addend: 0x0, symName: __ZNSt3__110unique_ptrINS_11__hash_nodeINS_12basic_stringIcNS_11char_traitsIcEENS_9allocatorIcEEEEPvEENS_22__hash_node_destructorINS5_IS9_EEEEE7releaseB8ue170006Ev, symObjAddr: 0x4120, symBinAddr: 0x100005F04, symSize: 0x44 }
  - { offsetInCU: 0x19984, offset: 0x19984, size: 0x8, addend: 0x0, symName: __ZNSt3__110unique_ptrINS_11__hash_nodeINS_12basic_stringIcNS_11char_traitsIcEENS_9allocatorIcEEEEPvEENS_22__hash_node_destructorINS5_IS9_EEEEED1B8ue170006Ev, symObjAddr: 0x4164, symBinAddr: 0x100005F48, symSize: 0x2C }
  - { offsetInCU: 0x199AD, offset: 0x199AD, size: 0x8, addend: 0x0, symName: __ZNSt3__115__hash_iteratorIPNS_11__hash_nodeINS_12basic_stringIcNS_11char_traitsIcEENS_9allocatorIcEEEEPvEEEC1B8ue170006EPNS_16__hash_node_baseISA_EE, symObjAddr: 0x4190, symBinAddr: 0x100005F74, symSize: 0x34 }
  - { offsetInCU: 0x199EF, offset: 0x199EF, size: 0x8, addend: 0x0, symName: __ZNSt3__14pairINS_15__hash_iteratorIPNS_11__hash_nodeINS_12basic_stringIcNS_11char_traitsIcEENS_9allocatorIcEEEEPvEEEEbEC1B8ue170006ISC_RbLS9_0EEEOT_OT0_, symObjAddr: 0x41C4, symBinAddr: 0x100005FA8, symSize: 0x3C }
  - { offsetInCU: 0x19A4C, offset: 0x19A4C, size: 0x8, addend: 0x0, symName: __ZNSt3__117__compressed_pairImNS_4hashINS_12basic_stringIcNS_11char_traitsIcEENS_9allocatorIcEEEEEEE6secondB8ue170006Ev, symObjAddr: 0x4200, symBinAddr: 0x100005FE4, symSize: 0x24 }
  - { offsetInCU: 0x19A71, offset: 0x19A71, size: 0x8, addend: 0x0, symName: __ZNSt3__122__compressed_pair_elemINS_4hashINS_12basic_stringIcNS_11char_traitsIcEENS_9allocatorIcEEEEEELi1ELb1EE5__getB8ue170006Ev, symObjAddr: 0x4224, symBinAddr: 0x100006008, symSize: 0x14 }
  - { offsetInCU: 0x19A96, offset: 0x19A96, size: 0x8, addend: 0x0, symName: __ZNKSt3__112basic_stringIcNS_11char_traitsIcEENS_9allocatorIcEEE4dataB8ue170006Ev, symObjAddr: 0x4274, symBinAddr: 0x100006058, symSize: 0x28 }
  - { offsetInCU: 0x19ABB, offset: 0x19ABB, size: 0x8, addend: 0x0, symName: __ZNKSt3__112basic_stringIcNS_11char_traitsIcEENS_9allocatorIcEEE4sizeB8ue170006Ev, symObjAddr: 0x429C, symBinAddr: 0x100006080, symSize: 0x54 }
  - { offsetInCU: 0x19AE0, offset: 0x19AE0, size: 0x8, addend: 0x0, symName: __ZNKSt3__121__murmur2_or_cityhashImLm64EEclB8ue170006EPKvm, symObjAddr: 0x42F0, symBinAddr: 0x1000060D4, symSize: 0x410 }
  - { offsetInCU: 0x19B79, offset: 0x19B79, size: 0x8, addend: 0x0, symName: __ZNSt3__121__murmur2_or_cityhashImLm64EE18__hash_len_0_to_16B8ue170006EPKcm, symObjAddr: 0x4700, symBinAddr: 0x1000064E4, symSize: 0x1C0 }
  - { offsetInCU: 0x19C55, offset: 0x19C55, size: 0x8, addend: 0x0, symName: __ZNSt3__121__murmur2_or_cityhashImLm64EE19__hash_len_17_to_32B8ue170006EPKcm, symObjAddr: 0x48C0, symBinAddr: 0x1000066A4, symSize: 0x130 }
  - { offsetInCU: 0x19CBE, offset: 0x19CBE, size: 0x8, addend: 0x0, symName: __ZNSt3__121__murmur2_or_cityhashImLm64EE19__hash_len_33_to_64B8ue170006EPKcm, symObjAddr: 0x49F0, symBinAddr: 0x1000067D4, symSize: 0x2B8 }
  - { offsetInCU: 0x19D73, offset: 0x19D73, size: 0x8, addend: 0x0, symName: __ZNSt3__121__murmur2_or_cityhashImLm64EE13__hash_len_16B8ue170006Emm, symObjAddr: 0x4CC8, symBinAddr: 0x100006AAC, symSize: 0x80 }
  - { offsetInCU: 0x19DCE, offset: 0x19DCE, size: 0x8, addend: 0x0, symName: __ZNSt3__121__murmur2_or_cityhashImLm64EE29__weak_hash_len_32_with_seedsB8ue170006EPKcmm, symObjAddr: 0x4D48, symBinAddr: 0x100006B2C, symSize: 0x88 }
  - { offsetInCU: 0x19E0D, offset: 0x19E0D, size: 0x8, addend: 0x0, symName: __ZNSt3__121__murmur2_or_cityhashImLm64EE8__rotateB8ue170006Emi, symObjAddr: 0x4DD0, symBinAddr: 0x100006BB4, symSize: 0x64 }
  - { offsetInCU: 0x19E3E, offset: 0x19E3E, size: 0x8, addend: 0x0, symName: __ZNSt3__14pairImmEaSB8ue170006EOS1_, symObjAddr: 0x4E34, symBinAddr: 0x100006C18, symSize: 0x30 }
  - { offsetInCU: 0x19E72, offset: 0x19E72, size: 0x8, addend: 0x0, symName: __ZNSt3__121__murmur2_or_cityhashImLm64EE11__shift_mixB8ue170006Em, symObjAddr: 0x4EA0, symBinAddr: 0x100006C84, symSize: 0x1C }
  - { offsetInCU: 0x19E95, offset: 0x19E95, size: 0x8, addend: 0x0, symName: __ZNSt3__121__murmur2_or_cityhashImLm64EE22__rotate_by_at_least_1B8ue170006Emi, symObjAddr: 0x4EBC, symBinAddr: 0x100006CA0, symSize: 0x38 }
  - { offsetInCU: 0x19EC6, offset: 0x19EC6, size: 0x8, addend: 0x0, symName: __ZNSt3__121__murmur2_or_cityhashImLm64EE29__weak_hash_len_32_with_seedsB8ue170006Emmmmmm, symObjAddr: 0x4F14, symBinAddr: 0x100006CF8, symSize: 0xD8 }
  - { offsetInCU: 0x19F42, offset: 0x19F42, size: 0x8, addend: 0x0, symName: __ZNSt3__14pairImmEC1B8ue170006ImmLPv0EEEOT_OT0_, symObjAddr: 0x4FEC, symBinAddr: 0x100006DD0, symSize: 0x3C }
  - { offsetInCU: 0x19F9F, offset: 0x19F9F, size: 0x8, addend: 0x0, symName: __ZNSt3__14pairImmEC2B8ue170006ImmLPv0EEEOT_OT0_, symObjAddr: 0x5028, symBinAddr: 0x100006E0C, symSize: 0x34 }
  - { offsetInCU: 0x19FFC, offset: 0x19FFC, size: 0x8, addend: 0x0, symName: __ZNKSt3__112basic_stringIcNS_11char_traitsIcEENS_9allocatorIcEEE13__get_pointerB8ue170006Ev, symObjAddr: 0x5070, symBinAddr: 0x100006E54, symSize: 0x54 }
  - { offsetInCU: 0x1A021, offset: 0x1A021, size: 0x8, addend: 0x0, symName: __ZNKSt3__112basic_stringIcNS_11char_traitsIcEENS_9allocatorIcEEE9__is_longB8ue170006Ev, symObjAddr: 0x50C4, symBinAddr: 0x100006EA8, symSize: 0x38 }
  - { offsetInCU: 0x1A046, offset: 0x1A046, size: 0x8, addend: 0x0, symName: __ZNKSt3__112basic_stringIcNS_11char_traitsIcEENS_9allocatorIcEEE18__get_long_pointerB8ue170006Ev, symObjAddr: 0x50FC, symBinAddr: 0x100006EE0, symSize: 0x28 }
  - { offsetInCU: 0x1A06B, offset: 0x1A06B, size: 0x8, addend: 0x0, symName: __ZNKSt3__112basic_stringIcNS_11char_traitsIcEENS_9allocatorIcEEE19__get_short_pointerB8ue170006Ev, symObjAddr: 0x5124, symBinAddr: 0x100006F08, symSize: 0x28 }
  - { offsetInCU: 0x1A090, offset: 0x1A090, size: 0x8, addend: 0x0, symName: __ZNKSt3__117__compressed_pairINS_12basic_stringIcNS_11char_traitsIcEENS_9allocatorIcEEE5__repES5_E5firstB8ue170006Ev, symObjAddr: 0x514C, symBinAddr: 0x100006F30, symSize: 0x24 }
  - { offsetInCU: 0x1A0B5, offset: 0x1A0B5, size: 0x8, addend: 0x0, symName: __ZNKSt3__122__compressed_pair_elemINS_12basic_stringIcNS_11char_traitsIcEENS_9allocatorIcEEE5__repELi0ELb0EE5__getB8ue170006Ev, symObjAddr: 0x5170, symBinAddr: 0x100006F54, symSize: 0x14 }
  - { offsetInCU: 0x1A0DA, offset: 0x1A0DA, size: 0x8, addend: 0x0, symName: __ZNSt3__114pointer_traitsIPKcE10pointer_toB8ue170006ERS1_, symObjAddr: 0x5184, symBinAddr: 0x100006F68, symSize: 0x14 }
  - { offsetInCU: 0x1A0FD, offset: 0x1A0FD, size: 0x8, addend: 0x0, symName: __ZNKSt3__112basic_stringIcNS_11char_traitsIcEENS_9allocatorIcEEE15__get_long_sizeB8ue170006Ev, symObjAddr: 0x5198, symBinAddr: 0x100006F7C, symSize: 0x28 }
  - { offsetInCU: 0x1A122, offset: 0x1A122, size: 0x8, addend: 0x0, symName: __ZNKSt3__112basic_stringIcNS_11char_traitsIcEENS_9allocatorIcEEE16__get_short_sizeB8ue170006Ev, symObjAddr: 0x51C0, symBinAddr: 0x100006FA4, symSize: 0x34 }
  - { offsetInCU: 0x1A147, offset: 0x1A147, size: 0x8, addend: 0x0, symName: __ZNKSt3__110unique_ptrIA_PNS_16__hash_node_baseIPNS_11__hash_nodeINS_12basic_stringIcNS_11char_traitsIcEENS_9allocatorIcEEEEPvEEEENS_25__bucket_list_deallocatorINS6_ISD_EEEEE11get_deleterB8ue170006Ev, symObjAddr: 0x51F4, symBinAddr: 0x100006FD8, symSize: 0x24 }
  - { offsetInCU: 0x1A16C, offset: 0x1A16C, size: 0x8, addend: 0x0, symName: __ZNKSt3__125__bucket_list_deallocatorINS_9allocatorIPNS_16__hash_node_baseIPNS_11__hash_nodeINS_12basic_stringIcNS_11char_traitsIcEENS1_IcEEEEPvEEEEEEE4sizeB8ue170006Ev, symObjAddr: 0x5218, symBinAddr: 0x100006FFC, symSize: 0x28 }
  - { offsetInCU: 0x1A191, offset: 0x1A191, size: 0x8, addend: 0x0, symName: __ZNKSt3__117__compressed_pairIPPNS_16__hash_node_baseIPNS_11__hash_nodeINS_12basic_stringIcNS_11char_traitsIcEENS_9allocatorIcEEEEPvEEEENS_25__bucket_list_deallocatorINS6_ISD_EEEEE6secondB8ue170006Ev, symObjAddr: 0x5240, symBinAddr: 0x100007024, symSize: 0x28 }
  - { offsetInCU: 0x1A1B6, offset: 0x1A1B6, size: 0x8, addend: 0x0, symName: __ZNKSt3__122__compressed_pair_elemINS_25__bucket_list_deallocatorINS_9allocatorIPNS_16__hash_node_baseIPNS_11__hash_nodeINS_12basic_stringIcNS_11char_traitsIcEENS2_IcEEEEPvEEEEEEEELi1ELb0EE5__getB8ue170006Ev, symObjAddr: 0x5268, symBinAddr: 0x10000704C, symSize: 0x14 }
  - { offsetInCU: 0x1A1DB, offset: 0x1A1DB, size: 0x8, addend: 0x0, symName: __ZNKSt3__117__compressed_pairImNS_9allocatorIPNS_16__hash_node_baseIPNS_11__hash_nodeINS_12basic_stringIcNS_11char_traitsIcEENS1_IcEEEEPvEEEEEEE5firstB8ue170006Ev, symObjAddr: 0x527C, symBinAddr: 0x100007060, symSize: 0x24 }
  - { offsetInCU: 0x1A200, offset: 0x1A200, size: 0x8, addend: 0x0, symName: __ZNKSt3__122__compressed_pair_elemImLi0ELb0EE5__getB8ue170006Ev, symObjAddr: 0x52A0, symBinAddr: 0x100007084, symSize: 0x14 }
  - { offsetInCU: 0x1A225, offset: 0x1A225, size: 0x8, addend: 0x0, symName: __ZNKSt3__117__compressed_pairIPPNS_16__hash_node_baseIPNS_11__hash_nodeINS_12basic_stringIcNS_11char_traitsIcEENS_9allocatorIcEEEEPvEEEENS_25__bucket_list_deallocatorINS6_ISD_EEEEE5firstB8ue170006Ev, symObjAddr: 0x52B4, symBinAddr: 0x100007098, symSize: 0x24 }
  - { offsetInCU: 0x1A24A, offset: 0x1A24A, size: 0x8, addend: 0x0, symName: __ZNKSt3__122__compressed_pair_elemIPPNS_16__hash_node_baseIPNS_11__hash_nodeINS_12basic_stringIcNS_11char_traitsIcEENS_9allocatorIcEEEEPvEEEELi0ELb0EE5__getB8ue170006Ev, symObjAddr: 0x52D8, symBinAddr: 0x1000070BC, symSize: 0x14 }
  - { offsetInCU: 0x1A26F, offset: 0x1A26F, size: 0x8, addend: 0x0, symName: __ZNSt3__117__compressed_pairIfNS_8equal_toINS_12basic_stringIcNS_11char_traitsIcEENS_9allocatorIcEEEEEEE6secondB8ue170006Ev, symObjAddr: 0x52EC, symBinAddr: 0x1000070D0, symSize: 0x24 }
  - { offsetInCU: 0x1A294, offset: 0x1A294, size: 0x8, addend: 0x0, symName: __ZNSt3__122__compressed_pair_elemINS_8equal_toINS_12basic_stringIcNS_11char_traitsIcEENS_9allocatorIcEEEEEELi1ELb1EE5__getB8ue170006Ev, symObjAddr: 0x5310, symBinAddr: 0x1000070F4, symSize: 0x14 }
  - { offsetInCU: 0x1A2B9, offset: 0x1A2B9, size: 0x8, addend: 0x0, symName: __ZNSt3__111char_traitsIcE7compareB8ue170006EPKcS3_m, symObjAddr: 0x546C, symBinAddr: 0x100007250, symSize: 0x34 }
  - { offsetInCU: 0x1A2F8, offset: 0x1A2F8, size: 0x8, addend: 0x0, symName: __ZNSt3__114pointer_traitsIPNS_16__hash_node_baseIPNS_11__hash_nodeINS_12basic_stringIcNS_11char_traitsIcEENS_9allocatorIcEEEEPvEEEEE10pointer_toB8ue170006ERSC_, symObjAddr: 0x54A0, symBinAddr: 0x100007284, symSize: 0x14 }
  - { offsetInCU: 0x1A31B, offset: 0x1A31B, size: 0x8, addend: 0x0, symName: __ZNSt3__112__hash_tableINS_12basic_stringIcNS_11char_traitsIcEENS_9allocatorIcEEEENS_4hashIS6_EENS_8equal_toIS6_EENS4_IS6_EEE12__node_allocB8ue170006Ev, symObjAddr: 0x54B4, symBinAddr: 0x100007298, symSize: 0x28 }
  - { offsetInCU: 0x1A340, offset: 0x1A340, size: 0x8, addend: 0x0, symName: __ZNSt3__116allocator_traitsINS_9allocatorINS_11__hash_nodeINS_12basic_stringIcNS_11char_traitsIcEENS1_IcEEEEPvEEEEE8allocateB8ue170006ERSA_m, symObjAddr: 0x54DC, symBinAddr: 0x1000072C0, symSize: 0x2C }
  - { offsetInCU: 0x1A373, offset: 0x1A373, size: 0x8, addend: 0x0, symName: __ZNSt3__122__hash_node_destructorINS_9allocatorINS_11__hash_nodeINS_12basic_stringIcNS_11char_traitsIcEENS1_IcEEEEPvEEEEEC1B8ue170006ERSA_b, symObjAddr: 0x5508, symBinAddr: 0x1000072EC, symSize: 0x48 }
  - { offsetInCU: 0x1A3BF, offset: 0x1A3BF, size: 0x8, addend: 0x0, symName: __ZNSt3__110unique_ptrINS_11__hash_nodeINS_12basic_stringIcNS_11char_traitsIcEENS_9allocatorIcEEEEPvEENS_22__hash_node_destructorINS5_IS9_EEEEEC1B8ue170006ILb1EvEEPS9_NS_16__dependent_typeINS_27__unique_ptr_deleter_sfinaeISC_EEXT_EE20__good_rval_ref_typeE, symObjAddr: 0x5550, symBinAddr: 0x100007334, symSize: 0x3C }
  - { offsetInCU: 0x1A40F, offset: 0x1A40F, size: 0x8, addend: 0x0, symName: __ZNSt3__116allocator_traitsINS_9allocatorINS_11__hash_nodeINS_12basic_stringIcNS_11char_traitsIcEENS1_IcEEEEPvEEEEE9constructB8ue170006IS7_JRKS7_EvEEvRSA_PT_DpOT0_, symObjAddr: 0x558C, symBinAddr: 0x100007370, symSize: 0x34 }
  - { offsetInCU: 0x1A466, offset: 0x1A466, size: 0x8, addend: 0x0, symName: __ZNSt3__122__hash_key_value_typesINS_12basic_stringIcNS_11char_traitsIcEENS_9allocatorIcEEEEE9__get_ptrB8ue170006ERS6_, symObjAddr: 0x55C0, symBinAddr: 0x1000073A4, symSize: 0x14 }
  - { offsetInCU: 0x1A489, offset: 0x1A489, size: 0x8, addend: 0x0, symName: __ZNSt3__110unique_ptrINS_11__hash_nodeINS_12basic_stringIcNS_11char_traitsIcEENS_9allocatorIcEEEEPvEENS_22__hash_node_destructorINS5_IS9_EEEEE11get_deleterB8ue170006Ev, symObjAddr: 0x55D4, symBinAddr: 0x1000073B8, symSize: 0x24 }
  - { offsetInCU: 0x1A4AE, offset: 0x1A4AE, size: 0x8, addend: 0x0, symName: __ZNSt3__117__compressed_pairINS_16__hash_node_baseIPNS_11__hash_nodeINS_12basic_stringIcNS_11char_traitsIcEENS_9allocatorIcEEEEPvEEEENS6_ISA_EEE6secondB8ue170006Ev, symObjAddr: 0x55F8, symBinAddr: 0x1000073DC, symSize: 0x24 }
  - { offsetInCU: 0x1A4D3, offset: 0x1A4D3, size: 0x8, addend: 0x0, symName: __ZNSt3__122__compressed_pair_elemINS_9allocatorINS_11__hash_nodeINS_12basic_stringIcNS_11char_traitsIcEENS1_IcEEEEPvEEEELi1ELb1EE5__getB8ue170006Ev, symObjAddr: 0x561C, symBinAddr: 0x100007400, symSize: 0x14 }
  - { offsetInCU: 0x1A4F8, offset: 0x1A4F8, size: 0x8, addend: 0x0, symName: __ZNSt3__19allocatorINS_11__hash_nodeINS_12basic_stringIcNS_11char_traitsIcEENS0_IcEEEEPvEEE8allocateB8ue170006Em, symObjAddr: 0x5630, symBinAddr: 0x100007414, symSize: 0x5C }
  - { offsetInCU: 0x1A535, offset: 0x1A535, size: 0x8, addend: 0x0, symName: __ZNSt3__116allocator_traitsINS_9allocatorINS_11__hash_nodeINS_12basic_stringIcNS_11char_traitsIcEENS1_IcEEEEPvEEEEE8max_sizeB8ue170006ISA_vEEmRKSA_, symObjAddr: 0x568C, symBinAddr: 0x100007470, symSize: 0x24 }
  - { offsetInCU: 0x1A563, offset: 0x1A563, size: 0x8, addend: 0x0, symName: __ZNKSt3__19allocatorINS_11__hash_nodeINS_12basic_stringIcNS_11char_traitsIcEENS0_IcEEEEPvEEE8max_sizeB8ue170006Ev, symObjAddr: 0x570C, symBinAddr: 0x1000074F0, symSize: 0x18 }
  - { offsetInCU: 0x1A588, offset: 0x1A588, size: 0x8, addend: 0x0, symName: __ZNSt3__122__hash_node_destructorINS_9allocatorINS_11__hash_nodeINS_12basic_stringIcNS_11char_traitsIcEENS1_IcEEEEPvEEEEEC2B8ue170006ERSA_b, symObjAddr: 0x5748, symBinAddr: 0x10000752C, symSize: 0x38 }
  - { offsetInCU: 0x1A5CF, offset: 0x1A5CF, size: 0x8, addend: 0x0, symName: __ZNSt3__110unique_ptrINS_11__hash_nodeINS_12basic_stringIcNS_11char_traitsIcEENS_9allocatorIcEEEEPvEENS_22__hash_node_destructorINS5_IS9_EEEEEC2B8ue170006ILb1EvEEPS9_NS_16__dependent_typeINS_27__unique_ptr_deleter_sfinaeISC_EEXT_EE20__good_rval_ref_typeE, symObjAddr: 0x5780, symBinAddr: 0x100007564, symSize: 0x48 }
  - { offsetInCU: 0x1A61F, offset: 0x1A61F, size: 0x8, addend: 0x0, symName: __ZNSt3__117__compressed_pairIPNS_11__hash_nodeINS_12basic_stringIcNS_11char_traitsIcEENS_9allocatorIcEEEEPvEENS_22__hash_node_destructorINS5_IS9_EEEEEC1B8ue170006IRSA_SD_EEOT_OT0_, symObjAddr: 0x57C8, symBinAddr: 0x1000075AC, symSize: 0x3C }
  - { offsetInCU: 0x1A676, offset: 0x1A676, size: 0x8, addend: 0x0, symName: __ZNSt3__117__compressed_pairIPNS_11__hash_nodeINS_12basic_stringIcNS_11char_traitsIcEENS_9allocatorIcEEEEPvEENS_22__hash_node_destructorINS5_IS9_EEEEEC2B8ue170006IRSA_SD_EEOT_OT0_, symObjAddr: 0x5804, symBinAddr: 0x1000075E8, symSize: 0x48 }
  - { offsetInCU: 0x1A6CD, offset: 0x1A6CD, size: 0x8, addend: 0x0, symName: __ZNSt3__122__compressed_pair_elemIPNS_11__hash_nodeINS_12basic_stringIcNS_11char_traitsIcEENS_9allocatorIcEEEEPvEELi0ELb0EEC2B8ue170006IRSA_vEEOT_, symObjAddr: 0x584C, symBinAddr: 0x100007630, symSize: 0x24 }
  - { offsetInCU: 0x1A70E, offset: 0x1A70E, size: 0x8, addend: 0x0, symName: __ZNSt3__122__compressed_pair_elemINS_22__hash_node_destructorINS_9allocatorINS_11__hash_nodeINS_12basic_stringIcNS_11char_traitsIcEENS2_IcEEEEPvEEEEEELi1ELb0EEC2B8ue170006ISC_vEEOT_, symObjAddr: 0x5870, symBinAddr: 0x100007654, symSize: 0x24 }
  - { offsetInCU: 0x1A74F, offset: 0x1A74F, size: 0x8, addend: 0x0, symName: __ZNSt3__19allocatorINS_11__hash_nodeINS_12basic_stringIcNS_11char_traitsIcEENS0_IcEEEEPvEEE9constructB8ue170006IS6_JRKS6_EEEvPT_DpOT0_, symObjAddr: 0x5894, symBinAddr: 0x100007678, symSize: 0x30 }
  - { offsetInCU: 0x1A7A4, offset: 0x1A7A4, size: 0x8, addend: 0x0, symName: __ZNSt3__117__compressed_pairIPNS_11__hash_nodeINS_12basic_stringIcNS_11char_traitsIcEENS_9allocatorIcEEEEPvEENS_22__hash_node_destructorINS5_IS9_EEEEE6secondB8ue170006Ev, symObjAddr: 0x58C4, symBinAddr: 0x1000076A8, symSize: 0x28 }
  - { offsetInCU: 0x1A7C9, offset: 0x1A7C9, size: 0x8, addend: 0x0, symName: __ZNSt3__122__compressed_pair_elemINS_22__hash_node_destructorINS_9allocatorINS_11__hash_nodeINS_12basic_stringIcNS_11char_traitsIcEENS2_IcEEEEPvEEEEEELi1ELb0EE5__getB8ue170006Ev, symObjAddr: 0x58EC, symBinAddr: 0x1000076D0, symSize: 0x14 }
  - { offsetInCU: 0x1A7EE, offset: 0x1A7EE, size: 0x8, addend: 0x0, symName: __ZNSt3__117__compressed_pairImNS_4hashINS_12basic_stringIcNS_11char_traitsIcEENS_9allocatorIcEEEEEEE5firstB8ue170006Ev, symObjAddr: 0x5900, symBinAddr: 0x1000076E4, symSize: 0x24 }
  - { offsetInCU: 0x1A813, offset: 0x1A813, size: 0x8, addend: 0x0, symName: __ZNSt3__117__compressed_pairIfNS_8equal_toINS_12basic_stringIcNS_11char_traitsIcEENS_9allocatorIcEEEEEEE5firstB8ue170006Ev, symObjAddr: 0x5924, symBinAddr: 0x100007708, symSize: 0x24 }
  - { offsetInCU: 0x1A838, offset: 0x1A838, size: 0x8, addend: 0x0, symName: __ZNSt3__122__compressed_pair_elemIfLi0ELb0EE5__getB8ue170006Ev, symObjAddr: 0x5948, symBinAddr: 0x10000772C, symSize: 0x14 }
  - { offsetInCU: 0x1A85C, offset: 0x1A85C, size: 0x8, addend: 0x0, symName: __ZNSt3__112__hash_tableINS_12basic_stringIcNS_11char_traitsIcEENS_9allocatorIcEEEENS_4hashIS6_EENS_8equal_toIS6_EENS4_IS6_EEE8__rehashILb1EEEvm, symObjAddr: 0x595C, symBinAddr: 0x100007740, symSize: 0x1A8 }
  - { offsetInCU: 0x1A8AA, offset: 0x1A8AA, size: 0x8, addend: 0x0, symName: __ZNSt3__112__hash_tableINS_12basic_stringIcNS_11char_traitsIcEENS_9allocatorIcEEEENS_4hashIS6_EENS_8equal_toIS6_EENS4_IS6_EEE11__do_rehashILb1EEEvm, symObjAddr: 0x5B04, symBinAddr: 0x1000078E8, symSize: 0x288 }
  - { offsetInCU: 0x1A990, offset: 0x1A990, size: 0x8, addend: 0x0, symName: __ZNSt3__110unique_ptrIA_PNS_16__hash_node_baseIPNS_11__hash_nodeINS_12basic_stringIcNS_11char_traitsIcEENS_9allocatorIcEEEEPvEEEENS_25__bucket_list_deallocatorINS6_ISD_EEEEE11get_deleterB8ue170006Ev, symObjAddr: 0x5DF8, symBinAddr: 0x100007BDC, symSize: 0x24 }
  - { offsetInCU: 0x1A9B5, offset: 0x1A9B5, size: 0x8, addend: 0x0, symName: __ZNSt3__125__bucket_list_deallocatorINS_9allocatorIPNS_16__hash_node_baseIPNS_11__hash_nodeINS_12basic_stringIcNS_11char_traitsIcEENS1_IcEEEEPvEEEEEEE7__allocB8ue170006Ev, symObjAddr: 0x5E1C, symBinAddr: 0x100007C00, symSize: 0x24 }
  - { offsetInCU: 0x1A9DA, offset: 0x1A9DA, size: 0x8, addend: 0x0, symName: __ZNSt3__110unique_ptrIA_PNS_16__hash_node_baseIPNS_11__hash_nodeINS_12basic_stringIcNS_11char_traitsIcEENS_9allocatorIcEEEEPvEEEENS_25__bucket_list_deallocatorINS6_ISD_EEEEE5resetB8ue170006IPSD_EENS_9enable_ifIXsr28_CheckArrayPointerConversionIT_EE5valueEvE4typeESM_, symObjAddr: 0x5E40, symBinAddr: 0x100007C24, symSize: 0x78 }
  - { offsetInCU: 0x1AA26, offset: 0x1AA26, size: 0x8, addend: 0x0, symName: __ZNSt3__116allocator_traitsINS_9allocatorIPNS_16__hash_node_baseIPNS_11__hash_nodeINS_12basic_stringIcNS_11char_traitsIcEENS1_IcEEEEPvEEEEEEE8allocateB8ue170006ERSE_m, symObjAddr: 0x5EB8, symBinAddr: 0x100007C9C, symSize: 0x2C }
  - { offsetInCU: 0x1AA59, offset: 0x1AA59, size: 0x8, addend: 0x0, symName: __ZNSt3__125__bucket_list_deallocatorINS_9allocatorIPNS_16__hash_node_baseIPNS_11__hash_nodeINS_12basic_stringIcNS_11char_traitsIcEENS1_IcEEEEPvEEEEEEE4sizeB8ue170006Ev, symObjAddr: 0x5EE4, symBinAddr: 0x100007CC8, symSize: 0x24 }
  - { offsetInCU: 0x1AA7E, offset: 0x1AA7E, size: 0x8, addend: 0x0, symName: __ZNSt3__117__compressed_pairIPPNS_16__hash_node_baseIPNS_11__hash_nodeINS_12basic_stringIcNS_11char_traitsIcEENS_9allocatorIcEEEEPvEEEENS_25__bucket_list_deallocatorINS6_ISD_EEEEE6secondB8ue170006Ev, symObjAddr: 0x5F08, symBinAddr: 0x100007CEC, symSize: 0x28 }
  - { offsetInCU: 0x1AAA3, offset: 0x1AAA3, size: 0x8, addend: 0x0, symName: __ZNSt3__122__compressed_pair_elemINS_25__bucket_list_deallocatorINS_9allocatorIPNS_16__hash_node_baseIPNS_11__hash_nodeINS_12basic_stringIcNS_11char_traitsIcEENS2_IcEEEEPvEEEEEEEELi1ELb0EE5__getB8ue170006Ev, symObjAddr: 0x5F30, symBinAddr: 0x100007D14, symSize: 0x14 }
  - { offsetInCU: 0x1AAC8, offset: 0x1AAC8, size: 0x8, addend: 0x0, symName: __ZNSt3__117__compressed_pairImNS_9allocatorIPNS_16__hash_node_baseIPNS_11__hash_nodeINS_12basic_stringIcNS_11char_traitsIcEENS1_IcEEEEPvEEEEEEE6secondB8ue170006Ev, symObjAddr: 0x5F44, symBinAddr: 0x100007D28, symSize: 0x24 }
  - { offsetInCU: 0x1AAED, offset: 0x1AAED, size: 0x8, addend: 0x0, symName: __ZNSt3__122__compressed_pair_elemINS_9allocatorIPNS_16__hash_node_baseIPNS_11__hash_nodeINS_12basic_stringIcNS_11char_traitsIcEENS1_IcEEEEPvEEEEEELi1ELb1EE5__getB8ue170006Ev, symObjAddr: 0x5F68, symBinAddr: 0x100007D4C, symSize: 0x14 }
  - { offsetInCU: 0x1AB12, offset: 0x1AB12, size: 0x8, addend: 0x0, symName: __ZNSt3__117__compressed_pairIPPNS_16__hash_node_baseIPNS_11__hash_nodeINS_12basic_stringIcNS_11char_traitsIcEENS_9allocatorIcEEEEPvEEEENS_25__bucket_list_deallocatorINS6_ISD_EEEEE5firstB8ue170006Ev, symObjAddr: 0x5F7C, symBinAddr: 0x100007D60, symSize: 0x24 }
  - { offsetInCU: 0x1AB37, offset: 0x1AB37, size: 0x8, addend: 0x0, symName: __ZNSt3__125__bucket_list_deallocatorINS_9allocatorIPNS_16__hash_node_baseIPNS_11__hash_nodeINS_12basic_stringIcNS_11char_traitsIcEENS1_IcEEEEPvEEEEEEEclB8ue170006EPSD_, symObjAddr: 0x5FA0, symBinAddr: 0x100007D84, symSize: 0x58 }
  - { offsetInCU: 0x1AB6B, offset: 0x1AB6B, size: 0x8, addend: 0x0, symName: __ZNSt3__122__compressed_pair_elemIPPNS_16__hash_node_baseIPNS_11__hash_nodeINS_12basic_stringIcNS_11char_traitsIcEENS_9allocatorIcEEEEPvEEEELi0ELb0EE5__getB8ue170006Ev, symObjAddr: 0x5FF8, symBinAddr: 0x100007DDC, symSize: 0x14 }
  - { offsetInCU: 0x1AB90, offset: 0x1AB90, size: 0x8, addend: 0x0, symName: __ZNSt3__116allocator_traitsINS_9allocatorIPNS_16__hash_node_baseIPNS_11__hash_nodeINS_12basic_stringIcNS_11char_traitsIcEENS1_IcEEEEPvEEEEEEE10deallocateB8ue170006ERSE_PSD_m, symObjAddr: 0x600C, symBinAddr: 0x100007DF0, symSize: 0x34 }
  - { offsetInCU: 0x1ABD2, offset: 0x1ABD2, size: 0x8, addend: 0x0, symName: __ZNSt3__19allocatorIPNS_16__hash_node_baseIPNS_11__hash_nodeINS_12basic_stringIcNS_11char_traitsIcEENS0_IcEEEEPvEEEEE10deallocateB8ue170006EPSC_m, symObjAddr: 0x6040, symBinAddr: 0x100007E24, symSize: 0x40 }
  - { offsetInCU: 0x1AC13, offset: 0x1AC13, size: 0x8, addend: 0x0, symName: __ZNSt3__19allocatorIPNS_16__hash_node_baseIPNS_11__hash_nodeINS_12basic_stringIcNS_11char_traitsIcEENS0_IcEEEEPvEEEEE8allocateB8ue170006Em, symObjAddr: 0x6080, symBinAddr: 0x100007E64, symSize: 0x58 }
  - { offsetInCU: 0x1AC50, offset: 0x1AC50, size: 0x8, addend: 0x0, symName: __ZNSt3__116allocator_traitsINS_9allocatorIPNS_16__hash_node_baseIPNS_11__hash_nodeINS_12basic_stringIcNS_11char_traitsIcEENS1_IcEEEEPvEEEEEEE8max_sizeB8ue170006ISE_vEEmRKSE_, symObjAddr: 0x60D8, symBinAddr: 0x100007EBC, symSize: 0x24 }
  - { offsetInCU: 0x1AC7E, offset: 0x1AC7E, size: 0x8, addend: 0x0, symName: __ZNKSt3__19allocatorIPNS_16__hash_node_baseIPNS_11__hash_nodeINS_12basic_stringIcNS_11char_traitsIcEENS0_IcEEEEPvEEEEE8max_sizeB8ue170006Ev, symObjAddr: 0x60FC, symBinAddr: 0x100007EE0, symSize: 0x14 }
  - { offsetInCU: 0x1ACA3, offset: 0x1ACA3, size: 0x8, addend: 0x0, symName: __ZNSt3__117__compressed_pairImNS_9allocatorIPNS_16__hash_node_baseIPNS_11__hash_nodeINS_12basic_stringIcNS_11char_traitsIcEENS1_IcEEEEPvEEEEEEE5firstB8ue170006Ev, symObjAddr: 0x6110, symBinAddr: 0x100007EF4, symSize: 0x24 }
  - { offsetInCU: 0x1ACD2, offset: 0x1ACD2, size: 0x8, addend: 0x0, symName: __ZNKSt3__16__lessIvvEclB8ue170006ImmEEbRKT_RKT0_, symObjAddr: 0x61A4, symBinAddr: 0x100007F88, symSize: 0x34 }
  - { offsetInCU: 0x1AD25, offset: 0x1AD25, size: 0x8, addend: 0x0, symName: __ZNSt3__122__compressed_pair_elemINS_16__hash_node_baseIPNS_11__hash_nodeINS_12basic_stringIcNS_11char_traitsIcEENS_9allocatorIcEEEEPvEEEELi0ELb0EE5__getB8ue170006Ev, symObjAddr: 0x61D8, symBinAddr: 0x100007FBC, symSize: 0x14 }
  - { offsetInCU: 0x1AD4A, offset: 0x1AD4A, size: 0x8, addend: 0x0, symName: __ZNKSt3__117__compressed_pairIPNS_11__hash_nodeINS_12basic_stringIcNS_11char_traitsIcEENS_9allocatorIcEEEEPvEENS_22__hash_node_destructorINS5_IS9_EEEEE5firstB8ue170006Ev, symObjAddr: 0x61EC, symBinAddr: 0x100007FD0, symSize: 0x24 }
  - { offsetInCU: 0x1AD6F, offset: 0x1AD6F, size: 0x8, addend: 0x0, symName: __ZNKSt3__122__compressed_pair_elemIPNS_11__hash_nodeINS_12basic_stringIcNS_11char_traitsIcEENS_9allocatorIcEEEEPvEELi0ELb0EE5__getB8ue170006Ev, symObjAddr: 0x6210, symBinAddr: 0x100007FF4, symSize: 0x14 }
  - { offsetInCU: 0x1AD94, offset: 0x1AD94, size: 0x8, addend: 0x0, symName: __ZNSt3__117__compressed_pairIPNS_11__hash_nodeINS_12basic_stringIcNS_11char_traitsIcEENS_9allocatorIcEEEEPvEENS_22__hash_node_destructorINS5_IS9_EEEEE5firstB8ue170006Ev, symObjAddr: 0x6224, symBinAddr: 0x100008008, symSize: 0x24 }
  - { offsetInCU: 0x1ADB9, offset: 0x1ADB9, size: 0x8, addend: 0x0, symName: __ZNSt3__122__compressed_pair_elemIPNS_11__hash_nodeINS_12basic_stringIcNS_11char_traitsIcEENS_9allocatorIcEEEEPvEELi0ELb0EE5__getB8ue170006Ev, symObjAddr: 0x6248, symBinAddr: 0x10000802C, symSize: 0x14 }
  - { offsetInCU: 0x1ADDE, offset: 0x1ADDE, size: 0x8, addend: 0x0, symName: __ZNSt3__110unique_ptrINS_11__hash_nodeINS_12basic_stringIcNS_11char_traitsIcEENS_9allocatorIcEEEEPvEENS_22__hash_node_destructorINS5_IS9_EEEEED2B8ue170006Ev, symObjAddr: 0x625C, symBinAddr: 0x100008040, symSize: 0x30 }
  - { offsetInCU: 0x1AE07, offset: 0x1AE07, size: 0x8, addend: 0x0, symName: __ZNSt3__110unique_ptrINS_11__hash_nodeINS_12basic_stringIcNS_11char_traitsIcEENS_9allocatorIcEEEEPvEENS_22__hash_node_destructorINS5_IS9_EEEEE5resetB8ue170006EPS9_, symObjAddr: 0x628C, symBinAddr: 0x100008070, symSize: 0x78 }
  - { offsetInCU: 0x1AE4A, offset: 0x1AE4A, size: 0x8, addend: 0x0, symName: __ZNSt3__122__hash_node_destructorINS_9allocatorINS_11__hash_nodeINS_12basic_stringIcNS_11char_traitsIcEENS1_IcEEEEPvEEEEEclB8ue170006EPS9_, symObjAddr: 0x6304, symBinAddr: 0x1000080E8, symSize: 0x90 }
  - { offsetInCU: 0x1AE7E, offset: 0x1AE7E, size: 0x8, addend: 0x0, symName: __ZNSt3__116allocator_traitsINS_9allocatorINS_11__hash_nodeINS_12basic_stringIcNS_11char_traitsIcEENS1_IcEEEEPvEEEEE7destroyB8ue170006IS7_vvEEvRSA_PT_, symObjAddr: 0x6394, symBinAddr: 0x100008178, symSize: 0x28 }
  - { offsetInCU: 0x1AEB8, offset: 0x1AEB8, size: 0x8, addend: 0x0, symName: __ZNSt3__116allocator_traitsINS_9allocatorINS_11__hash_nodeINS_12basic_stringIcNS_11char_traitsIcEENS1_IcEEEEPvEEEEE10deallocateB8ue170006ERSA_PS9_m, symObjAddr: 0x63BC, symBinAddr: 0x1000081A0, symSize: 0x34 }
  - { offsetInCU: 0x1AEFA, offset: 0x1AEFA, size: 0x8, addend: 0x0, symName: __ZNSt3__19allocatorINS_11__hash_nodeINS_12basic_stringIcNS_11char_traitsIcEENS0_IcEEEEPvEEE10deallocateB8ue170006EPS8_m, symObjAddr: 0x63F0, symBinAddr: 0x1000081D4, symSize: 0x44 }
  - { offsetInCU: 0x1AF3B, offset: 0x1AF3B, size: 0x8, addend: 0x0, symName: __ZNSt3__115__hash_iteratorIPNS_11__hash_nodeINS_12basic_stringIcNS_11char_traitsIcEENS_9allocatorIcEEEEPvEEEC2B8ue170006EPNS_16__hash_node_baseISA_EE, symObjAddr: 0x6434, symBinAddr: 0x100008218, symSize: 0x20 }
  - { offsetInCU: 0x1AF73, offset: 0x1AF73, size: 0x8, addend: 0x0, symName: __ZNSt3__14pairINS_15__hash_iteratorIPNS_11__hash_nodeINS_12basic_stringIcNS_11char_traitsIcEENS_9allocatorIcEEEEPvEEEEbEC2B8ue170006ISC_RbLS9_0EEEOT_OT0_, symObjAddr: 0x6454, symBinAddr: 0x100008238, symSize: 0x38 }
  - { offsetInCU: 0x1AFD0, offset: 0x1AFD0, size: 0x8, addend: 0x0, symName: __ZNSt3__112__hash_tableINS_12basic_stringIcNS_11char_traitsIcEENS_9allocatorIcEEEENS_4hashIS6_EENS_8equal_toIS6_EENS4_IS6_EEED2Ev, symObjAddr: 0x648C, symBinAddr: 0x100008270, symSize: 0x48 }
  - { offsetInCU: 0x1AFFA, offset: 0x1AFFA, size: 0x8, addend: 0x0, symName: __ZNSt3__112__hash_tableINS_12basic_stringIcNS_11char_traitsIcEENS_9allocatorIcEEEENS_4hashIS6_EENS_8equal_toIS6_EENS4_IS6_EEE17__deallocate_nodeEPNS_16__hash_node_baseIPNS_11__hash_nodeIS6_PvEEEE, symObjAddr: 0x64D4, symBinAddr: 0x1000082B8, symSize: 0x98 }
  - { offsetInCU: 0x1B06C, offset: 0x1B06C, size: 0x8, addend: 0x0, symName: __ZNSt3__110unique_ptrIA_PNS_16__hash_node_baseIPNS_11__hash_nodeINS_12basic_stringIcNS_11char_traitsIcEENS_9allocatorIcEEEEPvEEEENS_25__bucket_list_deallocatorINS6_ISD_EEEEED1B8ue170006Ev, symObjAddr: 0x656C, symBinAddr: 0x100008350, symSize: 0x2C }
  - { offsetInCU: 0x1B095, offset: 0x1B095, size: 0x8, addend: 0x0, symName: __ZNSt3__110unique_ptrIA_PNS_16__hash_node_baseIPNS_11__hash_nodeINS_12basic_stringIcNS_11char_traitsIcEENS_9allocatorIcEEEEPvEEEENS_25__bucket_list_deallocatorINS6_ISD_EEEEED2B8ue170006Ev, symObjAddr: 0x6598, symBinAddr: 0x10000837C, symSize: 0x30 }
  - { offsetInCU: 0x1B0BE, offset: 0x1B0BE, size: 0x8, addend: 0x0, symName: __ZNSt3__110unique_ptrIA_PNS_16__hash_node_baseIPNS_11__hash_nodeINS_12basic_stringIcNS_11char_traitsIcEENS_9allocatorIcEEEEPvEEEENS_25__bucket_list_deallocatorINS6_ISD_EEEEE5resetB8ue170006EDn, symObjAddr: 0x65C8, symBinAddr: 0x1000083AC, symSize: 0x6C }
  - { offsetInCU: 0x1B0FD, offset: 0x1B0FD, size: 0x8, addend: 0x0, symName: __ZNSt3__113unordered_setINS_12basic_stringIcNS_11char_traitsIcEENS_9allocatorIcEEEENS_4hashIS6_EENS_8equal_toIS6_EENS4_IS6_EEED2B8ue170006Ev, symObjAddr: 0x6634, symBinAddr: 0x100008418, symSize: 0x2C }
  - { offsetInCU: 0x1B144, offset: 0x1B144, size: 0x8, addend: 0x0, symName: __ZNKSt3__113basic_ostreamIcNS_11char_traitsIcEEE6sentrycvbB8ue170006Ev, symObjAddr: 0x684C, symBinAddr: 0x100008630, symSize: 0x1C }
  - { offsetInCU: 0x1B169, offset: 0x1B169, size: 0x8, addend: 0x0, symName: __ZNSt3__119ostreambuf_iteratorIcNS_11char_traitsIcEEEC1B8ue170006ERNS_13basic_ostreamIcS2_EE, symObjAddr: 0x6AA8, symBinAddr: 0x10000888C, symSize: 0x34 }
  - { offsetInCU: 0x1B1A0, offset: 0x1B1A0, size: 0x8, addend: 0x0, symName: __ZNKSt3__18ios_base5flagsB8ue170006Ev, symObjAddr: 0x6ADC, symBinAddr: 0x1000088C0, symSize: 0x18 }
  - { offsetInCU: 0x1B1C6, offset: 0x1B1C6, size: 0x8, addend: 0x0, symName: __ZNKSt3__19basic_iosIcNS_11char_traitsIcEEE4fillB8ue170006Ev, symObjAddr: 0x6AF4, symBinAddr: 0x1000088D8, symSize: 0x64 }
  - { offsetInCU: 0x1B1ED, offset: 0x1B1ED, size: 0x8, addend: 0x0, symName: __ZNKSt3__119ostreambuf_iteratorIcNS_11char_traitsIcEEE6failedB8ue170006Ev, symObjAddr: 0x6B58, symBinAddr: 0x10000893C, symSize: 0x24 }
  - { offsetInCU: 0x1B212, offset: 0x1B212, size: 0x8, addend: 0x0, symName: __ZNSt3__19basic_iosIcNS_11char_traitsIcEEE8setstateB8ue170006Ej, symObjAddr: 0x6B7C, symBinAddr: 0x100008960, symSize: 0x2C }
  - { offsetInCU: 0x1B246, offset: 0x1B246, size: 0x8, addend: 0x0, symName: __ZNKSt3__18ios_base5widthB8ue170006Ev, symObjAddr: 0x6BA8, symBinAddr: 0x10000898C, symSize: 0x18 }
  - { offsetInCU: 0x1B26D, offset: 0x1B26D, size: 0x8, addend: 0x0, symName: __ZNSt3__115basic_streambufIcNS_11char_traitsIcEEE5sputnB8ue170006EPKcl, symObjAddr: 0x6BC0, symBinAddr: 0x1000089A4, symSize: 0x3C }
  - { offsetInCU: 0x1B2AE, offset: 0x1B2AE, size: 0x8, addend: 0x0, symName: __ZNSt3__112basic_stringIcNS_11char_traitsIcEENS_9allocatorIcEEEC1B8ue170006Emc, symObjAddr: 0x6BFC, symBinAddr: 0x1000089E0, symSize: 0x3C }
  - { offsetInCU: 0x1B2F5, offset: 0x1B2F5, size: 0x8, addend: 0x0, symName: __ZNSt3__18ios_base5widthB8ue170006El, symObjAddr: 0x6C38, symBinAddr: 0x100008A1C, symSize: 0x2C }
  - { offsetInCU: 0x1B33A, offset: 0x1B33A, size: 0x8, addend: 0x0, symName: __ZNSt3__112basic_stringIcNS_11char_traitsIcEENS_9allocatorIcEEEC2B8ue170006Emc, symObjAddr: 0x6C64, symBinAddr: 0x100008A48, symSize: 0x4C }
  - { offsetInCU: 0x1B381, offset: 0x1B381, size: 0x8, addend: 0x0, symName: __ZNSt3__119ostreambuf_iteratorIcNS_11char_traitsIcEEEC2B8ue170006ERNS_13basic_ostreamIcS2_EE, symObjAddr: 0x6CB0, symBinAddr: 0x100008A94, symSize: 0x54 }
  - { offsetInCU: 0x1B3B7, offset: 0x1B3B7, size: 0x8, addend: 0x0, symName: __ZNKSt3__19basic_iosIcNS_11char_traitsIcEEE5rdbufB8ue170006Ev, symObjAddr: 0x6D04, symBinAddr: 0x100008AE8, symSize: 0x24 }
  - { offsetInCU: 0x1B3DE, offset: 0x1B3DE, size: 0x8, addend: 0x0, symName: __ZNKSt3__18ios_base5rdbufB8ue170006Ev, symObjAddr: 0x6D28, symBinAddr: 0x100008B0C, symSize: 0x18 }
  - { offsetInCU: 0x1B403, offset: 0x1B403, size: 0x8, addend: 0x0, symName: __ZNSt3__111char_traitsIcE11eq_int_typeB8ue170006Eii, symObjAddr: 0x6D40, symBinAddr: 0x100008B24, symSize: 0x28 }
  - { offsetInCU: 0x1B436, offset: 0x1B436, size: 0x8, addend: 0x0, symName: __ZNSt3__111char_traitsIcE3eofB8ue170006Ev, symObjAddr: 0x6D68, symBinAddr: 0x100008B4C, symSize: 0x8 }
  - { offsetInCU: 0x1B449, offset: 0x1B449, size: 0x8, addend: 0x0, symName: __ZNKSt3__19basic_iosIcNS_11char_traitsIcEEE5widenB8ue170006Ec, symObjAddr: 0x6D70, symBinAddr: 0x100008B54, symSize: 0x84 }
  - { offsetInCU: 0x1B4B6, offset: 0x1B4B6, size: 0x8, addend: 0x0, symName: __ZNKSt3__15ctypeIcE5widenB8ue170006Ec, symObjAddr: 0x6E20, symBinAddr: 0x100008C04, symSize: 0x38 }
  - { offsetInCU: 0x1B4E9, offset: 0x1B4E9, size: 0x8, addend: 0x0, symName: __ZNSt3__18ios_base8setstateB8ue170006Ej, symObjAddr: 0x6E58, symBinAddr: 0x100008C3C, symSize: 0x34 }
  - { offsetInCU: 0x1B51E, offset: 0x1B51E, size: 0x8, addend: 0x0, symName: __ZNKSt3__112__hash_tableINS_12basic_stringIcNS_11char_traitsIcEENS_9allocatorIcEEEENS_4hashIS6_EENS_8equal_toIS6_EENS4_IS6_EEE4findIS6_EENS_21__hash_const_iteratorIPNS_11__hash_nodeIS6_PvEEEERKT_, symObjAddr: 0x6E8C, symBinAddr: 0x100008C70, symSize: 0x1B8 }
  - { offsetInCU: 0x1B5A8, offset: 0x1B5A8, size: 0x8, addend: 0x0, symName: __ZNKSt3__112__hash_tableINS_12basic_stringIcNS_11char_traitsIcEENS_9allocatorIcEEEENS_4hashIS6_EENS_8equal_toIS6_EENS4_IS6_EEE13hash_functionB8ue170006Ev, symObjAddr: 0x7044, symBinAddr: 0x100008E28, symSize: 0x28 }
  - { offsetInCU: 0x1B5CD, offset: 0x1B5CD, size: 0x8, addend: 0x0, symName: __ZNKSt3__112__hash_tableINS_12basic_stringIcNS_11char_traitsIcEENS_9allocatorIcEEEENS_4hashIS6_EENS_8equal_toIS6_EENS4_IS6_EEE6key_eqB8ue170006Ev, symObjAddr: 0x706C, symBinAddr: 0x100008E50, symSize: 0x28 }
  - { offsetInCU: 0x1B5F2, offset: 0x1B5F2, size: 0x8, addend: 0x0, symName: __ZNSt3__121__hash_const_iteratorIPNS_11__hash_nodeINS_12basic_stringIcNS_11char_traitsIcEENS_9allocatorIcEEEEPvEEEC1B8ue170006EPNS_16__hash_node_baseISA_EE, symObjAddr: 0x7094, symBinAddr: 0x100008E78, symSize: 0x34 }
  - { offsetInCU: 0x1B629, offset: 0x1B629, size: 0x8, addend: 0x0, symName: __ZNKSt3__112__hash_tableINS_12basic_stringIcNS_11char_traitsIcEENS_9allocatorIcEEEENS_4hashIS6_EENS_8equal_toIS6_EENS4_IS6_EEE3endEv, symObjAddr: 0x70C8, symBinAddr: 0x100008EAC, symSize: 0x2C }
  - { offsetInCU: 0x1B650, offset: 0x1B650, size: 0x8, addend: 0x0, symName: __ZNKSt3__117__compressed_pairImNS_4hashINS_12basic_stringIcNS_11char_traitsIcEENS_9allocatorIcEEEEEEE6secondB8ue170006Ev, symObjAddr: 0x70F4, symBinAddr: 0x100008ED8, symSize: 0x24 }
  - { offsetInCU: 0x1B675, offset: 0x1B675, size: 0x8, addend: 0x0, symName: __ZNKSt3__122__compressed_pair_elemINS_4hashINS_12basic_stringIcNS_11char_traitsIcEENS_9allocatorIcEEEEEELi1ELb1EE5__getB8ue170006Ev, symObjAddr: 0x7118, symBinAddr: 0x100008EFC, symSize: 0x14 }
  - { offsetInCU: 0x1B69A, offset: 0x1B69A, size: 0x8, addend: 0x0, symName: __ZNKSt3__117__compressed_pairIfNS_8equal_toINS_12basic_stringIcNS_11char_traitsIcEENS_9allocatorIcEEEEEEE6secondB8ue170006Ev, symObjAddr: 0x712C, symBinAddr: 0x100008F10, symSize: 0x24 }
  - { offsetInCU: 0x1B6BF, offset: 0x1B6BF, size: 0x8, addend: 0x0, symName: __ZNKSt3__122__compressed_pair_elemINS_8equal_toINS_12basic_stringIcNS_11char_traitsIcEENS_9allocatorIcEEEEEELi1ELb1EE5__getB8ue170006Ev, symObjAddr: 0x7150, symBinAddr: 0x100008F34, symSize: 0x14 }
  - { offsetInCU: 0x1B6E4, offset: 0x1B6E4, size: 0x8, addend: 0x0, symName: __ZNSt3__121__hash_const_iteratorIPNS_11__hash_nodeINS_12basic_stringIcNS_11char_traitsIcEENS_9allocatorIcEEEEPvEEEC2B8ue170006EPNS_16__hash_node_baseISA_EE, symObjAddr: 0x7164, symBinAddr: 0x100008F48, symSize: 0x20 }
  - { offsetInCU: 0x1B71C, offset: 0x1B71C, size: 0x8, addend: 0x0, symName: __ZNSt3__16vectorINS_12basic_stringIcNS_11char_traitsIcEENS_9allocatorIcEEEENS4_IS6_EEED2B8ue170006Ev, symObjAddr: 0x7184, symBinAddr: 0x100008F68, symSize: 0x44 }
  - { offsetInCU: 0x1B745, offset: 0x1B745, size: 0x8, addend: 0x0, symName: __ZNSt3__16vectorINS_12basic_stringIcNS_11char_traitsIcEENS_9allocatorIcEEEENS4_IS6_EEE16__destroy_vectorC1B8ue170006ERS8_, symObjAddr: 0x71C8, symBinAddr: 0x100008FAC, symSize: 0x34 }
  - { offsetInCU: 0x1B77D, offset: 0x1B77D, size: 0x8, addend: 0x0, symName: __ZNSt3__16vectorINS_12basic_stringIcNS_11char_traitsIcEENS_9allocatorIcEEEENS4_IS6_EEE16__destroy_vectorclB8ue170006Ev, symObjAddr: 0x71FC, symBinAddr: 0x100008FE0, symSize: 0x90 }
  - { offsetInCU: 0x1B7A2, offset: 0x1B7A2, size: 0x8, addend: 0x0, symName: __ZNSt3__16vectorINS_12basic_stringIcNS_11char_traitsIcEENS_9allocatorIcEEEENS4_IS6_EEE16__destroy_vectorC2B8ue170006ERS8_, symObjAddr: 0x728C, symBinAddr: 0x100009070, symSize: 0x20 }
  - { offsetInCU: 0x1B7DA, offset: 0x1B7DA, size: 0x8, addend: 0x0, symName: __ZNSt3__16vectorINS_12basic_stringIcNS_11char_traitsIcEENS_9allocatorIcEEEENS4_IS6_EEE7__clearB8ue170006Ev, symObjAddr: 0x72AC, symBinAddr: 0x100009090, symSize: 0x28 }
  - { offsetInCU: 0x1B7FF, offset: 0x1B7FF, size: 0x8, addend: 0x0, symName: __ZNKSt3__16vectorINS_12basic_stringIcNS_11char_traitsIcEENS_9allocatorIcEEEENS4_IS6_EEE17__annotate_deleteB8ue170006Ev, symObjAddr: 0x72D4, symBinAddr: 0x1000090B8, symSize: 0xD4 }
  - { offsetInCU: 0x1B824, offset: 0x1B824, size: 0x8, addend: 0x0, symName: __ZNSt3__116allocator_traitsINS_9allocatorINS_12basic_stringIcNS_11char_traitsIcEENS1_IcEEEEEEE10deallocateB8ue170006ERS7_PS6_m, symObjAddr: 0x73A8, symBinAddr: 0x10000918C, symSize: 0x34 }
  - { offsetInCU: 0x1B866, offset: 0x1B866, size: 0x8, addend: 0x0, symName: __ZNSt3__16vectorINS_12basic_stringIcNS_11char_traitsIcEENS_9allocatorIcEEEENS4_IS6_EEE7__allocB8ue170006Ev, symObjAddr: 0x73DC, symBinAddr: 0x1000091C0, symSize: 0x28 }
  - { offsetInCU: 0x1B88B, offset: 0x1B88B, size: 0x8, addend: 0x0, symName: __ZNKSt3__16vectorINS_12basic_stringIcNS_11char_traitsIcEENS_9allocatorIcEEEENS4_IS6_EEE8capacityB8ue170006Ev, symObjAddr: 0x7404, symBinAddr: 0x1000091E8, symSize: 0x40 }
  - { offsetInCU: 0x1B8B0, offset: 0x1B8B0, size: 0x8, addend: 0x0, symName: __ZNSt3__16vectorINS_12basic_stringIcNS_11char_traitsIcEENS_9allocatorIcEEEENS4_IS6_EEE22__base_destruct_at_endB8ue170006EPS6_, symObjAddr: 0x7444, symBinAddr: 0x100009228, symSize: 0x8C }
  - { offsetInCU: 0x1B8F3, offset: 0x1B8F3, size: 0x8, addend: 0x0, symName: __ZNSt3__116allocator_traitsINS_9allocatorINS_12basic_stringIcNS_11char_traitsIcEENS1_IcEEEEEEE7destroyB8ue170006IS6_vEEvRS7_PT_, symObjAddr: 0x74D0, symBinAddr: 0x1000092B4, symSize: 0x2C }
  - { offsetInCU: 0x1B930, offset: 0x1B930, size: 0x8, addend: 0x0, symName: __ZNSt3__19allocatorINS_12basic_stringIcNS_11char_traitsIcEENS0_IcEEEEE7destroyB8ue170006EPS5_, symObjAddr: 0x7510, symBinAddr: 0x1000092F4, symSize: 0x28 }
  - { offsetInCU: 0x1B963, offset: 0x1B963, size: 0x8, addend: 0x0, symName: __ZNKSt3__16vectorINS_12basic_stringIcNS_11char_traitsIcEENS_9allocatorIcEEEENS4_IS6_EEE31__annotate_contiguous_containerB8ue170006EPKvSA_SA_SA_, symObjAddr: 0x7538, symBinAddr: 0x10000931C, symSize: 0x20 }
  - { offsetInCU: 0x1B9B4, offset: 0x1B9B4, size: 0x8, addend: 0x0, symName: __ZNKSt3__16vectorINS_12basic_stringIcNS_11char_traitsIcEENS_9allocatorIcEEEENS4_IS6_EEE4dataB8ue170006Ev, symObjAddr: 0x7558, symBinAddr: 0x10000933C, symSize: 0x28 }
  - { offsetInCU: 0x1B9D9, offset: 0x1B9D9, size: 0x8, addend: 0x0, symName: __ZNSt3__19allocatorINS_12basic_stringIcNS_11char_traitsIcEENS0_IcEEEEE10deallocateB8ue170006EPS5_m, symObjAddr: 0x7580, symBinAddr: 0x100009364, symSize: 0x44 }
  - { offsetInCU: 0x1BA1A, offset: 0x1BA1A, size: 0x8, addend: 0x0, symName: __ZNSt3__117__compressed_pairIPNS_12basic_stringIcNS_11char_traitsIcEENS_9allocatorIcEEEENS4_IS6_EEE6secondB8ue170006Ev, symObjAddr: 0x75C4, symBinAddr: 0x1000093A8, symSize: 0x24 }
  - { offsetInCU: 0x1BA3F, offset: 0x1BA3F, size: 0x8, addend: 0x0, symName: __ZNSt3__122__compressed_pair_elemINS_9allocatorINS_12basic_stringIcNS_11char_traitsIcEENS1_IcEEEEEELi1ELb1EE5__getB8ue170006Ev, symObjAddr: 0x75E8, symBinAddr: 0x1000093CC, symSize: 0x14 }
  - { offsetInCU: 0x1BA64, offset: 0x1BA64, size: 0x8, addend: 0x0, symName: __ZNKSt3__16vectorINS_12basic_stringIcNS_11char_traitsIcEENS_9allocatorIcEEEENS4_IS6_EEE9__end_capB8ue170006Ev, symObjAddr: 0x75FC, symBinAddr: 0x1000093E0, symSize: 0x28 }
  - { offsetInCU: 0x1BA89, offset: 0x1BA89, size: 0x8, addend: 0x0, symName: __ZNKSt3__117__compressed_pairIPNS_12basic_stringIcNS_11char_traitsIcEENS_9allocatorIcEEEENS4_IS6_EEE5firstB8ue170006Ev, symObjAddr: 0x7624, symBinAddr: 0x100009408, symSize: 0x24 }
  - { offsetInCU: 0x1BAAE, offset: 0x1BAAE, size: 0x8, addend: 0x0, symName: __ZNKSt3__122__compressed_pair_elemIPNS_12basic_stringIcNS_11char_traitsIcEENS_9allocatorIcEEEELi0ELb0EE5__getB8ue170006Ev, symObjAddr: 0x7648, symBinAddr: 0x10000942C, symSize: 0x14 }
  - { offsetInCU: 0x1BAD3, offset: 0x1BAD3, size: 0x8, addend: 0x0, symName: __ZNSt3__16vectorINS_12basic_stringIcNS_11char_traitsIcEENS_9allocatorIcEEEENS4_IS6_EEE11__make_iterB8ue170006EPS6_, symObjAddr: 0x765C, symBinAddr: 0x100009440, symSize: 0x30 }
  - { offsetInCU: 0x1BB07, offset: 0x1BB07, size: 0x8, addend: 0x0, symName: __ZNSt3__111__wrap_iterIPNS_12basic_stringIcNS_11char_traitsIcEENS_9allocatorIcEEEEEC1B8ue170006ES7_, symObjAddr: 0x768C, symBinAddr: 0x100009470, symSize: 0x34 }
  - { offsetInCU: 0x1BB3E, offset: 0x1BB3E, size: 0x8, addend: 0x0, symName: __ZNSt3__111__wrap_iterIPNS_12basic_stringIcNS_11char_traitsIcEENS_9allocatorIcEEEEEC2B8ue170006ES7_, symObjAddr: 0x76C0, symBinAddr: 0x1000094A4, symSize: 0x20 }
  - { offsetInCU: 0x1BB75, offset: 0x1BB75, size: 0x8, addend: 0x0, symName: __ZNSt3__16vectorINS_5tupleIJNS_12basic_stringIcNS_11char_traitsIcEENS_9allocatorIcEEEES7_dEEENS5_IS8_EEED2B8ue170006Ev, symObjAddr: 0x76E0, symBinAddr: 0x1000094C4, symSize: 0x44 }
  - { offsetInCU: 0x1BB9E, offset: 0x1BB9E, size: 0x8, addend: 0x0, symName: __ZNSt3__16vectorINS_5tupleIJNS_12basic_stringIcNS_11char_traitsIcEENS_9allocatorIcEEEES7_dEEENS5_IS8_EEE16__destroy_vectorC1B8ue170006ERSA_, symObjAddr: 0x7724, symBinAddr: 0x100009508, symSize: 0x34 }
  - { offsetInCU: 0x1BBD6, offset: 0x1BBD6, size: 0x8, addend: 0x0, symName: __ZNSt3__16vectorINS_5tupleIJNS_12basic_stringIcNS_11char_traitsIcEENS_9allocatorIcEEEES7_dEEENS5_IS8_EEE16__destroy_vectorclB8ue170006Ev, symObjAddr: 0x7758, symBinAddr: 0x10000953C, symSize: 0x90 }
  - { offsetInCU: 0x1BBFB, offset: 0x1BBFB, size: 0x8, addend: 0x0, symName: __ZNSt3__16vectorINS_5tupleIJNS_12basic_stringIcNS_11char_traitsIcEENS_9allocatorIcEEEES7_dEEENS5_IS8_EEE16__destroy_vectorC2B8ue170006ERSA_, symObjAddr: 0x77E8, symBinAddr: 0x1000095CC, symSize: 0x20 }
  - { offsetInCU: 0x1BC33, offset: 0x1BC33, size: 0x8, addend: 0x0, symName: __ZNSt3__16vectorINS_5tupleIJNS_12basic_stringIcNS_11char_traitsIcEENS_9allocatorIcEEEES7_dEEENS5_IS8_EEE7__clearB8ue170006Ev, symObjAddr: 0x7808, symBinAddr: 0x1000095EC, symSize: 0x28 }
  - { offsetInCU: 0x1BC58, offset: 0x1BC58, size: 0x8, addend: 0x0, symName: __ZNKSt3__16vectorINS_5tupleIJNS_12basic_stringIcNS_11char_traitsIcEENS_9allocatorIcEEEES7_dEEENS5_IS8_EEE17__annotate_deleteB8ue170006Ev, symObjAddr: 0x7830, symBinAddr: 0x100009614, symSize: 0xD4 }
  - { offsetInCU: 0x1BC7D, offset: 0x1BC7D, size: 0x8, addend: 0x0, symName: __ZNSt3__116allocator_traitsINS_9allocatorINS_5tupleIJNS_12basic_stringIcNS_11char_traitsIcEENS1_IcEEEES7_dEEEEEE10deallocateB8ue170006ERS9_PS8_m, symObjAddr: 0x7904, symBinAddr: 0x1000096E8, symSize: 0x34 }
  - { offsetInCU: 0x1BCBF, offset: 0x1BCBF, size: 0x8, addend: 0x0, symName: __ZNSt3__16vectorINS_5tupleIJNS_12basic_stringIcNS_11char_traitsIcEENS_9allocatorIcEEEES7_dEEENS5_IS8_EEE7__allocB8ue170006Ev, symObjAddr: 0x7938, symBinAddr: 0x10000971C, symSize: 0x28 }
  - { offsetInCU: 0x1BCE4, offset: 0x1BCE4, size: 0x8, addend: 0x0, symName: __ZNKSt3__16vectorINS_5tupleIJNS_12basic_stringIcNS_11char_traitsIcEENS_9allocatorIcEEEES7_dEEENS5_IS8_EEE8capacityB8ue170006Ev, symObjAddr: 0x7960, symBinAddr: 0x100009744, symSize: 0x40 }
  - { offsetInCU: 0x1BD09, offset: 0x1BD09, size: 0x8, addend: 0x0, symName: __ZNSt3__16vectorINS_5tupleIJNS_12basic_stringIcNS_11char_traitsIcEENS_9allocatorIcEEEES7_dEEENS5_IS8_EEE22__base_destruct_at_endB8ue170006EPS8_, symObjAddr: 0x79A0, symBinAddr: 0x100009784, symSize: 0x8C }
  - { offsetInCU: 0x1BD4C, offset: 0x1BD4C, size: 0x8, addend: 0x0, symName: __ZNSt3__116allocator_traitsINS_9allocatorINS_5tupleIJNS_12basic_stringIcNS_11char_traitsIcEENS1_IcEEEES7_dEEEEEE7destroyB8ue170006IS8_vEEvRS9_PT_, symObjAddr: 0x7A2C, symBinAddr: 0x100009810, symSize: 0x2C }
  - { offsetInCU: 0x1BD89, offset: 0x1BD89, size: 0x8, addend: 0x0, symName: __ZNSt3__19allocatorINS_5tupleIJNS_12basic_stringIcNS_11char_traitsIcEENS0_IcEEEES6_dEEEE7destroyB8ue170006EPS7_, symObjAddr: 0x7A6C, symBinAddr: 0x100009850, symSize: 0x28 }
  - { offsetInCU: 0x1BDBC, offset: 0x1BDBC, size: 0x8, addend: 0x0, symName: __ZNSt3__15tupleIJNS_12basic_stringIcNS_11char_traitsIcEENS_9allocatorIcEEEES6_dEED1Ev, symObjAddr: 0x7A94, symBinAddr: 0x100009878, symSize: 0x2C }
  - { offsetInCU: 0x1BDE8, offset: 0x1BDE8, size: 0x8, addend: 0x0, symName: __ZNSt3__15tupleIJNS_12basic_stringIcNS_11char_traitsIcEENS_9allocatorIcEEEES6_dEED2Ev, symObjAddr: 0x7AC0, symBinAddr: 0x1000098A4, symSize: 0x2C }
  - { offsetInCU: 0x1BE14, offset: 0x1BE14, size: 0x8, addend: 0x0, symName: __ZNSt3__112__tuple_implINS_15__tuple_indicesIJLm0ELm1ELm2EEEEJNS_12basic_stringIcNS_11char_traitsIcEENS_9allocatorIcEEEES8_dEED1Ev, symObjAddr: 0x7AEC, symBinAddr: 0x1000098D0, symSize: 0x2C }
  - { offsetInCU: 0x1BE40, offset: 0x1BE40, size: 0x8, addend: 0x0, symName: __ZNSt3__112__tuple_implINS_15__tuple_indicesIJLm0ELm1ELm2EEEEJNS_12basic_stringIcNS_11char_traitsIcEENS_9allocatorIcEEEES8_dEED2Ev, symObjAddr: 0x7B18, symBinAddr: 0x1000098FC, symSize: 0x38 }
  - { offsetInCU: 0x1BE6C, offset: 0x1BE6C, size: 0x8, addend: 0x0, symName: __ZNSt3__112__tuple_leafILm1ENS_12basic_stringIcNS_11char_traitsIcEENS_9allocatorIcEEEELb0EED2Ev, symObjAddr: 0x7B50, symBinAddr: 0x100009934, symSize: 0x2C }
  - { offsetInCU: 0x1BE98, offset: 0x1BE98, size: 0x8, addend: 0x0, symName: __ZNSt3__112__tuple_leafILm0ENS_12basic_stringIcNS_11char_traitsIcEENS_9allocatorIcEEEELb0EED2Ev, symObjAddr: 0x7B7C, symBinAddr: 0x100009960, symSize: 0x2C }
  - { offsetInCU: 0x1BEC4, offset: 0x1BEC4, size: 0x8, addend: 0x0, symName: __ZNKSt3__16vectorINS_5tupleIJNS_12basic_stringIcNS_11char_traitsIcEENS_9allocatorIcEEEES7_dEEENS5_IS8_EEE31__annotate_contiguous_containerB8ue170006EPKvSC_SC_SC_, symObjAddr: 0x7BA8, symBinAddr: 0x10000998C, symSize: 0x20 }
  - { offsetInCU: 0x1BF15, offset: 0x1BF15, size: 0x8, addend: 0x0, symName: __ZNKSt3__16vectorINS_5tupleIJNS_12basic_stringIcNS_11char_traitsIcEENS_9allocatorIcEEEES7_dEEENS5_IS8_EEE4dataB8ue170006Ev, symObjAddr: 0x7BC8, symBinAddr: 0x1000099AC, symSize: 0x28 }
  - { offsetInCU: 0x1BF3A, offset: 0x1BF3A, size: 0x8, addend: 0x0, symName: __ZNKSt3__16vectorINS_5tupleIJNS_12basic_stringIcNS_11char_traitsIcEENS_9allocatorIcEEEES7_dEEENS5_IS8_EEE4sizeB8ue170006Ev, symObjAddr: 0x7BF0, symBinAddr: 0x1000099D4, symSize: 0x28 }
  - { offsetInCU: 0x1BF5F, offset: 0x1BF5F, size: 0x8, addend: 0x0, symName: __ZNSt3__19allocatorINS_5tupleIJNS_12basic_stringIcNS_11char_traitsIcEENS0_IcEEEES6_dEEEE10deallocateB8ue170006EPS7_m, symObjAddr: 0x7C18, symBinAddr: 0x1000099FC, symSize: 0x44 }
  - { offsetInCU: 0x1BFA0, offset: 0x1BFA0, size: 0x8, addend: 0x0, symName: __ZNSt3__117__compressed_pairIPNS_5tupleIJNS_12basic_stringIcNS_11char_traitsIcEENS_9allocatorIcEEEES7_dEEENS5_IS8_EEE6secondB8ue170006Ev, symObjAddr: 0x7C5C, symBinAddr: 0x100009A40, symSize: 0x24 }
  - { offsetInCU: 0x1BFC5, offset: 0x1BFC5, size: 0x8, addend: 0x0, symName: __ZNSt3__122__compressed_pair_elemINS_9allocatorINS_5tupleIJNS_12basic_stringIcNS_11char_traitsIcEENS1_IcEEEES7_dEEEEELi1ELb1EE5__getB8ue170006Ev, symObjAddr: 0x7C80, symBinAddr: 0x100009A64, symSize: 0x14 }
  - { offsetInCU: 0x1BFEA, offset: 0x1BFEA, size: 0x8, addend: 0x0, symName: __ZNKSt3__16vectorINS_5tupleIJNS_12basic_stringIcNS_11char_traitsIcEENS_9allocatorIcEEEES7_dEEENS5_IS8_EEE9__end_capB8ue170006Ev, symObjAddr: 0x7C94, symBinAddr: 0x100009A78, symSize: 0x28 }
  - { offsetInCU: 0x1C00F, offset: 0x1C00F, size: 0x8, addend: 0x0, symName: __ZNKSt3__117__compressed_pairIPNS_5tupleIJNS_12basic_stringIcNS_11char_traitsIcEENS_9allocatorIcEEEES7_dEEENS5_IS8_EEE5firstB8ue170006Ev, symObjAddr: 0x7CBC, symBinAddr: 0x100009AA0, symSize: 0x24 }
  - { offsetInCU: 0x1C034, offset: 0x1C034, size: 0x8, addend: 0x0, symName: __ZNKSt3__122__compressed_pair_elemIPNS_5tupleIJNS_12basic_stringIcNS_11char_traitsIcEENS_9allocatorIcEEEES7_dEEELi0ELb0EE5__getB8ue170006Ev, symObjAddr: 0x7CE0, symBinAddr: 0x100009AC4, symSize: 0x14 }
  - { offsetInCU: 0x1C059, offset: 0x1C059, size: 0x8, addend: 0x0, symName: __ZNSt3__16vectorINS_5tupleIJNS_12basic_stringIcNS_11char_traitsIcEENS_9allocatorIcEEEES7_dEEENS5_IS8_EEE11__make_iterB8ue170006EPS8_, symObjAddr: 0x7CF4, symBinAddr: 0x100009AD8, symSize: 0x30 }
  - { offsetInCU: 0x1C08D, offset: 0x1C08D, size: 0x8, addend: 0x0, symName: __ZNSt3__111__wrap_iterIPNS_5tupleIJNS_12basic_stringIcNS_11char_traitsIcEENS_9allocatorIcEEEES7_dEEEEC1B8ue170006ES9_, symObjAddr: 0x7D24, symBinAddr: 0x100009B08, symSize: 0x34 }
  - { offsetInCU: 0x1C0C4, offset: 0x1C0C4, size: 0x8, addend: 0x0, symName: __ZNSt3__111__wrap_iterIPNS_5tupleIJNS_12basic_stringIcNS_11char_traitsIcEENS_9allocatorIcEEEES7_dEEEEC2B8ue170006ES9_, symObjAddr: 0x7D58, symBinAddr: 0x100009B3C, symSize: 0x20 }
  - { offsetInCU: 0x1C0FB, offset: 0x1C0FB, size: 0x8, addend: 0x0, symName: __ZNKSt3__112__tuple_leafILm0ENS_12basic_stringIcNS_11char_traitsIcEENS_9allocatorIcEEEELb0EE3getB8ue170006Ev, symObjAddr: 0x7D78, symBinAddr: 0x100009B5C, symSize: 0x14 }
  - { offsetInCU: 0x1C120, offset: 0x1C120, size: 0x8, addend: 0x0, symName: __ZNKSt3__112__tuple_leafILm1ENS_12basic_stringIcNS_11char_traitsIcEENS_9allocatorIcEEEELb0EE3getB8ue170006Ev, symObjAddr: 0x7D8C, symBinAddr: 0x100009B70, symSize: 0x14 }
  - { offsetInCU: 0x1C145, offset: 0x1C145, size: 0x8, addend: 0x0, symName: __ZNKSt3__112__tuple_leafILm2EdLb0EE3getB8ue170006Ev, symObjAddr: 0x7DA0, symBinAddr: 0x100009B84, symSize: 0x14 }
  - { offsetInCU: 0x1C16A, offset: 0x1C16A, size: 0x8, addend: 0x0, symName: __ZNSt3__16vectorIdNS_9allocatorIdEEEC2B8ue170006Ev, symObjAddr: 0x7DB4, symBinAddr: 0x100009B98, symSize: 0x4C }
  - { offsetInCU: 0x1C198, offset: 0x1C198, size: 0x8, addend: 0x0, symName: __ZNSt3__117__compressed_pairIPdNS_9allocatorIdEEEC1B8ue170006IDnNS_18__default_init_tagEEEOT_OT0_, symObjAddr: 0x7E00, symBinAddr: 0x100009BE4, symSize: 0x3C }
  - { offsetInCU: 0x1C1EF, offset: 0x1C1EF, size: 0x8, addend: 0x0, symName: __ZNSt3__117__compressed_pairIPdNS_9allocatorIdEEEC2B8ue170006IDnNS_18__default_init_tagEEEOT_OT0_, symObjAddr: 0x7E3C, symBinAddr: 0x100009C20, symSize: 0x40 }
  - { offsetInCU: 0x1C246, offset: 0x1C246, size: 0x8, addend: 0x0, symName: __ZNSt3__122__compressed_pair_elemIPdLi0ELb0EEC2B8ue170006IDnvEEOT_, symObjAddr: 0x7E7C, symBinAddr: 0x100009C60, symSize: 0x1C }
  - { offsetInCU: 0x1C287, offset: 0x1C287, size: 0x8, addend: 0x0, symName: __ZNSt3__122__compressed_pair_elemINS_9allocatorIdEELi1ELb1EEC2B8ue170006ENS_18__default_init_tagE, symObjAddr: 0x7E98, symBinAddr: 0x100009C7C, symSize: 0x2C }
  - { offsetInCU: 0x1C2BB, offset: 0x1C2BB, size: 0x8, addend: 0x0, symName: __ZNSt3__19allocatorIdEC2B8ue170006Ev, symObjAddr: 0x7EC4, symBinAddr: 0x100009CA8, symSize: 0x2C }
  - { offsetInCU: 0x1C2E4, offset: 0x1C2E4, size: 0x8, addend: 0x0, symName: __ZNSt3__116__non_trivial_ifILb1ENS_9allocatorIdEEEC2B8ue170006Ev, symObjAddr: 0x7EF0, symBinAddr: 0x100009CD4, symSize: 0x14 }
  - { offsetInCU: 0x1C30D, offset: 0x1C30D, size: 0x8, addend: 0x0, symName: __ZNSt3__16vectorIdNS_9allocatorIdEEED2B8ue170006Ev, symObjAddr: 0x7F04, symBinAddr: 0x100009CE8, symSize: 0x44 }
  - { offsetInCU: 0x1C336, offset: 0x1C336, size: 0x8, addend: 0x0, symName: __ZNSt3__16vectorIdNS_9allocatorIdEEE16__destroy_vectorC1B8ue170006ERS3_, symObjAddr: 0x7F48, symBinAddr: 0x100009D2C, symSize: 0x34 }
  - { offsetInCU: 0x1C36E, offset: 0x1C36E, size: 0x8, addend: 0x0, symName: __ZNSt3__16vectorIdNS_9allocatorIdEEE16__destroy_vectorclB8ue170006Ev, symObjAddr: 0x7F7C, symBinAddr: 0x100009D60, symSize: 0x90 }
  - { offsetInCU: 0x1C393, offset: 0x1C393, size: 0x8, addend: 0x0, symName: __ZNSt3__16vectorIdNS_9allocatorIdEEE16__destroy_vectorC2B8ue170006ERS3_, symObjAddr: 0x800C, symBinAddr: 0x100009DF0, symSize: 0x20 }
  - { offsetInCU: 0x1C3CB, offset: 0x1C3CB, size: 0x8, addend: 0x0, symName: __ZNSt3__16vectorIdNS_9allocatorIdEEE7__clearB8ue170006Ev, symObjAddr: 0x802C, symBinAddr: 0x100009E10, symSize: 0x28 }
  - { offsetInCU: 0x1C3F0, offset: 0x1C3F0, size: 0x8, addend: 0x0, symName: __ZNKSt3__16vectorIdNS_9allocatorIdEEE17__annotate_deleteB8ue170006Ev, symObjAddr: 0x8054, symBinAddr: 0x100009E38, symSize: 0xB8 }
  - { offsetInCU: 0x1C415, offset: 0x1C415, size: 0x8, addend: 0x0, symName: __ZNSt3__116allocator_traitsINS_9allocatorIdEEE10deallocateB8ue170006ERS2_Pdm, symObjAddr: 0x810C, symBinAddr: 0x100009EF0, symSize: 0x34 }
  - { offsetInCU: 0x1C457, offset: 0x1C457, size: 0x8, addend: 0x0, symName: __ZNSt3__16vectorIdNS_9allocatorIdEEE7__allocB8ue170006Ev, symObjAddr: 0x8140, symBinAddr: 0x100009F24, symSize: 0x28 }
  - { offsetInCU: 0x1C47C, offset: 0x1C47C, size: 0x8, addend: 0x0, symName: __ZNKSt3__16vectorIdNS_9allocatorIdEEE8capacityB8ue170006Ev, symObjAddr: 0x8168, symBinAddr: 0x100009F4C, symSize: 0x40 }
  - { offsetInCU: 0x1C4A1, offset: 0x1C4A1, size: 0x8, addend: 0x0, symName: __ZNSt3__16vectorIdNS_9allocatorIdEEE22__base_destruct_at_endB8ue170006EPd, symObjAddr: 0x81A8, symBinAddr: 0x100009F8C, symSize: 0x8C }
  - { offsetInCU: 0x1C4E4, offset: 0x1C4E4, size: 0x8, addend: 0x0, symName: __ZNSt3__116allocator_traitsINS_9allocatorIdEEE7destroyB8ue170006IdvEEvRS2_PT_, symObjAddr: 0x8234, symBinAddr: 0x10000A018, symSize: 0x2C }
  - { offsetInCU: 0x1C521, offset: 0x1C521, size: 0x8, addend: 0x0, symName: __ZNSt3__19allocatorIdE7destroyB8ue170006EPd, symObjAddr: 0x8274, symBinAddr: 0x10000A058, symSize: 0x14 }
  - { offsetInCU: 0x1C554, offset: 0x1C554, size: 0x8, addend: 0x0, symName: __ZNKSt3__16vectorIdNS_9allocatorIdEEE31__annotate_contiguous_containerB8ue170006EPKvS5_S5_S5_, symObjAddr: 0x8288, symBinAddr: 0x10000A06C, symSize: 0x20 }
  - { offsetInCU: 0x1C5A5, offset: 0x1C5A5, size: 0x8, addend: 0x0, symName: __ZNKSt3__16vectorIdNS_9allocatorIdEEE4dataB8ue170006Ev, symObjAddr: 0x82A8, symBinAddr: 0x10000A08C, symSize: 0x28 }
  - { offsetInCU: 0x1C5CA, offset: 0x1C5CA, size: 0x8, addend: 0x0, symName: __ZNSt3__19allocatorIdE10deallocateB8ue170006EPdm, symObjAddr: 0x82D0, symBinAddr: 0x10000A0B4, symSize: 0x40 }
  - { offsetInCU: 0x1C60B, offset: 0x1C60B, size: 0x8, addend: 0x0, symName: __ZNSt3__117__compressed_pairIPdNS_9allocatorIdEEE6secondB8ue170006Ev, symObjAddr: 0x8310, symBinAddr: 0x10000A0F4, symSize: 0x24 }
  - { offsetInCU: 0x1C630, offset: 0x1C630, size: 0x8, addend: 0x0, symName: __ZNSt3__122__compressed_pair_elemINS_9allocatorIdEELi1ELb1EE5__getB8ue170006Ev, symObjAddr: 0x8334, symBinAddr: 0x10000A118, symSize: 0x14 }
  - { offsetInCU: 0x1C655, offset: 0x1C655, size: 0x8, addend: 0x0, symName: __ZNKSt3__16vectorIdNS_9allocatorIdEEE9__end_capB8ue170006Ev, symObjAddr: 0x8348, symBinAddr: 0x10000A12C, symSize: 0x28 }
  - { offsetInCU: 0x1C67A, offset: 0x1C67A, size: 0x8, addend: 0x0, symName: __ZNKSt3__117__compressed_pairIPdNS_9allocatorIdEEE5firstB8ue170006Ev, symObjAddr: 0x8370, symBinAddr: 0x10000A154, symSize: 0x24 }
  - { offsetInCU: 0x1C69F, offset: 0x1C69F, size: 0x8, addend: 0x0, symName: __ZNKSt3__122__compressed_pair_elemIPdLi0ELb0EE5__getB8ue170006Ev, symObjAddr: 0x8394, symBinAddr: 0x10000A178, symSize: 0x14 }
  - { offsetInCU: 0x1C6C4, offset: 0x1C6C4, size: 0x8, addend: 0x0, symName: __ZNSt3__16vectorIdNS_9allocatorIdEEE9__end_capB8ue170006Ev, symObjAddr: 0x83A8, symBinAddr: 0x10000A18C, symSize: 0x28 }
  - { offsetInCU: 0x1C6E9, offset: 0x1C6E9, size: 0x8, addend: 0x0, symName: __ZNSt3__16vectorIdNS_9allocatorIdEEE22__construct_one_at_endB8ue170006IJRKdEEEvDpOT_, symObjAddr: 0x83D0, symBinAddr: 0x10000A1B4, symSize: 0x90 }
  - { offsetInCU: 0x1C736, offset: 0x1C736, size: 0x8, addend: 0x0, symName: __ZNSt3__16vectorIdNS_9allocatorIdEEE21__push_back_slow_pathIRKdEEvOT_, symObjAddr: 0x8460, symBinAddr: 0x10000A244, symSize: 0xD8 }
  - { offsetInCU: 0x1C793, offset: 0x1C793, size: 0x8, addend: 0x0, symName: __ZNSt3__117__compressed_pairIPdNS_9allocatorIdEEE5firstB8ue170006Ev, symObjAddr: 0x8538, symBinAddr: 0x10000A31C, symSize: 0x24 }
  - { offsetInCU: 0x1C7B8, offset: 0x1C7B8, size: 0x8, addend: 0x0, symName: __ZNSt3__122__compressed_pair_elemIPdLi0ELb0EE5__getB8ue170006Ev, symObjAddr: 0x855C, symBinAddr: 0x10000A340, symSize: 0x14 }
  - { offsetInCU: 0x1C7F6, offset: 0x1C7F6, size: 0x8, addend: 0x0, symName: __ZNSt3__16vectorIdNS_9allocatorIdEEE21_ConstructTransactionC1B8ue170006ERS3_m, symObjAddr: 0x8570, symBinAddr: 0x10000A354, symSize: 0x3C }
  - { offsetInCU: 0x1C83D, offset: 0x1C83D, size: 0x8, addend: 0x0, symName: __ZNSt3__116allocator_traitsINS_9allocatorIdEEE9constructB8ue170006IdJRKdEvEEvRS2_PT_DpOT0_, symObjAddr: 0x85AC, symBinAddr: 0x10000A390, symSize: 0x34 }
  - { offsetInCU: 0x1C894, offset: 0x1C894, size: 0x8, addend: 0x0, symName: __ZNSt3__16vectorIdNS_9allocatorIdEEE21_ConstructTransactionD1B8ue170006Ev, symObjAddr: 0x85E0, symBinAddr: 0x10000A3C4, symSize: 0x2C }
  - { offsetInCU: 0x1C8BD, offset: 0x1C8BD, size: 0x8, addend: 0x0, symName: __ZNSt3__16vectorIdNS_9allocatorIdEEE21_ConstructTransactionC2B8ue170006ERS3_m, symObjAddr: 0x860C, symBinAddr: 0x10000A3F0, symSize: 0x44 }
  - { offsetInCU: 0x1C904, offset: 0x1C904, size: 0x8, addend: 0x0, symName: __ZNSt3__19allocatorIdE9constructB8ue170006IdJRKdEEEvPT_DpOT0_, symObjAddr: 0x8650, symBinAddr: 0x10000A434, symSize: 0x28 }
  - { offsetInCU: 0x1C959, offset: 0x1C959, size: 0x8, addend: 0x0, symName: __ZNSt3__16vectorIdNS_9allocatorIdEEE21_ConstructTransactionD2B8ue170006Ev, symObjAddr: 0x8678, symBinAddr: 0x10000A45C, symSize: 0x20 }
  - { offsetInCU: 0x1C981, offset: 0x1C981, size: 0x8, addend: 0x0, symName: __ZNKSt3__16vectorIdNS_9allocatorIdEEE11__recommendB8ue170006Em, symObjAddr: 0x8698, symBinAddr: 0x10000A47C, symSize: 0xB4 }
  - { offsetInCU: 0x1C9D5, offset: 0x1C9D5, size: 0x8, addend: 0x0, symName: __ZNSt3__114__split_bufferIdRNS_9allocatorIdEEEC1EmmS3_, symObjAddr: 0x874C, symBinAddr: 0x10000A530, symSize: 0x44 }
  - { offsetInCU: 0x1CA2A, offset: 0x1CA2A, size: 0x8, addend: 0x0, symName: __ZNSt3__114__split_bufferIdRNS_9allocatorIdEEED1Ev, symObjAddr: 0x88A0, symBinAddr: 0x10000A684, symSize: 0x2C }
  - { offsetInCU: 0x1CA54, offset: 0x1CA54, size: 0x8, addend: 0x0, symName: __ZNKSt3__16vectorIdNS_9allocatorIdEEE8max_sizeEv, symObjAddr: 0x88CC, symBinAddr: 0x10000A6B0, symSize: 0x60 }
  - { offsetInCU: 0x1CA7B, offset: 0x1CA7B, size: 0x8, addend: 0x0, symName: __ZNKSt3__16vectorIdNS_9allocatorIdEEE20__throw_length_errorB8ue170006Ev, symObjAddr: 0x892C, symBinAddr: 0x10000A710, symSize: 0x1C }
  - { offsetInCU: 0x1CAAA, offset: 0x1CAAA, size: 0x8, addend: 0x0, symName: __ZNSt3__116allocator_traitsINS_9allocatorIdEEE8max_sizeB8ue170006IS2_vEEmRKS2_, symObjAddr: 0x8974, symBinAddr: 0x10000A758, symSize: 0x24 }
  - { offsetInCU: 0x1CAD8, offset: 0x1CAD8, size: 0x8, addend: 0x0, symName: __ZNKSt3__16vectorIdNS_9allocatorIdEEE7__allocB8ue170006Ev, symObjAddr: 0x8998, symBinAddr: 0x10000A77C, symSize: 0x28 }
  - { offsetInCU: 0x1CAFD, offset: 0x1CAFD, size: 0x8, addend: 0x0, symName: __ZNSt3__114numeric_limitsIlE3maxB8ue170006Ev, symObjAddr: 0x89C0, symBinAddr: 0x10000A7A4, symSize: 0x14 }
  - { offsetInCU: 0x1CB11, offset: 0x1CB11, size: 0x8, addend: 0x0, symName: __ZNKSt3__19allocatorIdE8max_sizeB8ue170006Ev, symObjAddr: 0x8A28, symBinAddr: 0x10000A80C, symSize: 0x14 }
  - { offsetInCU: 0x1CB36, offset: 0x1CB36, size: 0x8, addend: 0x0, symName: __ZNKSt3__117__compressed_pairIPdNS_9allocatorIdEEE6secondB8ue170006Ev, symObjAddr: 0x8A3C, symBinAddr: 0x10000A820, symSize: 0x24 }
  - { offsetInCU: 0x1CB5B, offset: 0x1CB5B, size: 0x8, addend: 0x0, symName: __ZNKSt3__122__compressed_pair_elemINS_9allocatorIdEELi1ELb1EE5__getB8ue170006Ev, symObjAddr: 0x8A60, symBinAddr: 0x10000A844, symSize: 0x14 }
  - { offsetInCU: 0x1CB80, offset: 0x1CB80, size: 0x8, addend: 0x0, symName: __ZNSt3__123__libcpp_numeric_limitsIlLb1EE3maxB8ue170006Ev, symObjAddr: 0x8A74, symBinAddr: 0x10000A858, symSize: 0x8 }
  - { offsetInCU: 0x1CB94, offset: 0x1CB94, size: 0x8, addend: 0x0, symName: __ZNSt12length_errorC1B8ue170006EPKc, symObjAddr: 0x8AE0, symBinAddr: 0x10000A8C4, symSize: 0x34 }
  - { offsetInCU: 0x1CBCB, offset: 0x1CBCB, size: 0x8, addend: 0x0, symName: __ZNSt12length_errorC2B8ue170006EPKc, symObjAddr: 0x8B14, symBinAddr: 0x10000A8F8, symSize: 0x4C }
  - { offsetInCU: 0x1CC02, offset: 0x1CC02, size: 0x8, addend: 0x0, symName: __ZNSt3__114__split_bufferIdRNS_9allocatorIdEEEC2EmmS3_, symObjAddr: 0x8B60, symBinAddr: 0x10000A944, symSize: 0xD4 }
  - { offsetInCU: 0x1CC75, offset: 0x1CC75, size: 0x8, addend: 0x0, symName: __ZNSt3__117__compressed_pairIPdRNS_9allocatorIdEEEC1B8ue170006IDnS4_EEOT_OT0_, symObjAddr: 0x8C34, symBinAddr: 0x10000AA18, symSize: 0x3C }
  - { offsetInCU: 0x1CCCC, offset: 0x1CCCC, size: 0x8, addend: 0x0, symName: __ZNSt3__114__split_bufferIdRNS_9allocatorIdEEE7__allocB8ue170006Ev, symObjAddr: 0x8CB0, symBinAddr: 0x10000AA94, symSize: 0x28 }
  - { offsetInCU: 0x1CCF1, offset: 0x1CCF1, size: 0x8, addend: 0x0, symName: __ZNSt3__114__split_bufferIdRNS_9allocatorIdEEE9__end_capB8ue170006Ev, symObjAddr: 0x8CD8, symBinAddr: 0x10000AABC, symSize: 0x28 }
  - { offsetInCU: 0x1CD16, offset: 0x1CD16, size: 0x8, addend: 0x0, symName: __ZNSt3__117__compressed_pairIPdRNS_9allocatorIdEEEC2B8ue170006IDnS4_EEOT_OT0_, symObjAddr: 0x8D00, symBinAddr: 0x10000AAE4, symSize: 0x48 }
  - { offsetInCU: 0x1CD6D, offset: 0x1CD6D, size: 0x8, addend: 0x0, symName: __ZNSt3__122__compressed_pair_elemIRNS_9allocatorIdEELi1ELb0EEC2B8ue170006IS3_vEEOT_, symObjAddr: 0x8D48, symBinAddr: 0x10000AB2C, symSize: 0x20 }
  - { offsetInCU: 0x1CDAE, offset: 0x1CDAE, size: 0x8, addend: 0x0, symName: __ZNSt3__19allocatorIdE8allocateB8ue170006Em, symObjAddr: 0x8D68, symBinAddr: 0x10000AB4C, symSize: 0x58 }
  - { offsetInCU: 0x1CDE1, offset: 0x1CDE1, size: 0x8, addend: 0x0, symName: __ZNSt3__117__compressed_pairIPdRNS_9allocatorIdEEE6secondB8ue170006Ev, symObjAddr: 0x8DC0, symBinAddr: 0x10000ABA4, symSize: 0x28 }
  - { offsetInCU: 0x1CE06, offset: 0x1CE06, size: 0x8, addend: 0x0, symName: __ZNSt3__122__compressed_pair_elemIRNS_9allocatorIdEELi1ELb0EE5__getB8ue170006Ev, symObjAddr: 0x8DE8, symBinAddr: 0x10000ABCC, symSize: 0x18 }
  - { offsetInCU: 0x1CE2B, offset: 0x1CE2B, size: 0x8, addend: 0x0, symName: __ZNSt3__117__compressed_pairIPdRNS_9allocatorIdEEE5firstB8ue170006Ev, symObjAddr: 0x8E00, symBinAddr: 0x10000ABE4, symSize: 0x24 }
  - { offsetInCU: 0x1CE50, offset: 0x1CE50, size: 0x8, addend: 0x0, symName: __ZNSt3__116reverse_iteratorIPdEC1B8ue170006ES1_, symObjAddr: 0x8E9C, symBinAddr: 0x10000AC80, symSize: 0x34 }
  - { offsetInCU: 0x1CE87, offset: 0x1CE87, size: 0x8, addend: 0x0, symName: __ZNKSt3__116reverse_iteratorIPdE4baseB8ue170006Ev, symObjAddr: 0x8ED0, symBinAddr: 0x10000ACB4, symSize: 0x18 }
  - { offsetInCU: 0x1CEAC, offset: 0x1CEAC, size: 0x8, addend: 0x0, symName: __ZNKSt3__16vectorIdNS_9allocatorIdEEE14__annotate_newB8ue170006Em, symObjAddr: 0x8F24, symBinAddr: 0x10000AD08, symSize: 0xAC }
  - { offsetInCU: 0x1CF03, offset: 0x1CF03, size: 0x8, addend: 0x0, symName: __ZNKSt3__111__move_loopINS_17_ClassicAlgPolicyEEclB8ue170006INS_16reverse_iteratorIPdEES6_S6_EENS_4pairIT_T1_EES8_T0_S9_, symObjAddr: 0x92C0, symBinAddr: 0x10000B0A4, symSize: 0xA0 }
  - { offsetInCU: 0x1CF72, offset: 0x1CF72, size: 0x8, addend: 0x0, symName: __ZNSt3__18_IterOpsINS_17_ClassicAlgPolicyEE11__iter_moveB8ue170006IRNS_16reverse_iteratorIPdEEEENS_9enable_ifIXsr12is_referenceIDTdeclsr3stdE7declvalIRT_EEEEE5valueEDTclsr3stdE4movedeclsr3stdE7declvalISA_EEEEE4typeEOS9_, symObjAddr: 0x94F4, symBinAddr: 0x10000B2D8, symSize: 0x28 }
  - { offsetInCU: 0x1CF9E, offset: 0x1CF9E, size: 0x8, addend: 0x0, symName: __ZNKSt3__116reverse_iteratorIPdEdeB8ue170006Ev, symObjAddr: 0x951C, symBinAddr: 0x10000B300, symSize: 0x28 }
  - { offsetInCU: 0x1CFD1, offset: 0x1CFD1, size: 0x8, addend: 0x0, symName: __ZNSt3__116reverse_iteratorIPdEppB8ue170006Ev, symObjAddr: 0x9544, symBinAddr: 0x10000B328, symSize: 0x20 }
  - { offsetInCU: 0x1CFF6, offset: 0x1CFF6, size: 0x8, addend: 0x0, symName: __ZNSt3__18_IterOpsINS_17_ClassicAlgPolicyEE25__validate_iter_referenceB8ue170006IRNS_16reverse_iteratorIPdEEEEvv, symObjAddr: 0x9564, symBinAddr: 0x10000B348, symSize: 0x4 }
  - { offsetInCU: 0x1D014, offset: 0x1D014, size: 0x8, addend: 0x0, symName: __ZNSt3__118__unwrap_iter_implINS_16reverse_iteratorIPdEELb0EE8__unwrapB8ue170006ES3_, symObjAddr: 0x9568, symBinAddr: 0x10000B34C, symSize: 0x24 }
  - { offsetInCU: 0x1D03C, offset: 0x1D03C, size: 0x8, addend: 0x0, symName: __ZNSt3__14pairINS_16reverse_iteratorIPdEES3_EC1B8ue170006IS3_S3_LPv0EEEOT_OT0_, symObjAddr: 0x958C, symBinAddr: 0x10000B370, symSize: 0x3C }
  - { offsetInCU: 0x1D099, offset: 0x1D099, size: 0x8, addend: 0x0, symName: __ZNSt3__14pairINS_16reverse_iteratorIPdEES3_EC2B8ue170006IS3_S3_LPv0EEEOT_OT0_, symObjAddr: 0x95C8, symBinAddr: 0x10000B3AC, symSize: 0x34 }
  - { offsetInCU: 0x1D0F6, offset: 0x1D0F6, size: 0x8, addend: 0x0, symName: __ZNSt3__118__unwrap_iter_implINS_16reverse_iteratorIPdEELb0EE8__rewrapB8ue170006ES3_S3_, symObjAddr: 0x95FC, symBinAddr: 0x10000B3E0, symSize: 0x2C }
  - { offsetInCU: 0x1D124, offset: 0x1D124, size: 0x8, addend: 0x0, symName: __ZNSt3__116reverse_iteratorIPdEC2B8ue170006ES1_, symObjAddr: 0x9628, symBinAddr: 0x10000B40C, symSize: 0x28 }
  - { offsetInCU: 0x1D15B, offset: 0x1D15B, size: 0x8, addend: 0x0, symName: __ZNSt3__114__split_bufferIdRNS_9allocatorIdEEED2Ev, symObjAddr: 0x9650, symBinAddr: 0x10000B434, symSize: 0x8C }
  - { offsetInCU: 0x1D186, offset: 0x1D186, size: 0x8, addend: 0x0, symName: __ZNSt3__114__split_bufferIdRNS_9allocatorIdEEE5clearB8ue170006Ev, symObjAddr: 0x96DC, symBinAddr: 0x10000B4C0, symSize: 0x28 }
  - { offsetInCU: 0x1D1AB, offset: 0x1D1AB, size: 0x8, addend: 0x0, symName: __ZNKSt3__114__split_bufferIdRNS_9allocatorIdEEE8capacityB8ue170006Ev, symObjAddr: 0x9704, symBinAddr: 0x10000B4E8, symSize: 0x40 }
  - { offsetInCU: 0x1D1D0, offset: 0x1D1D0, size: 0x8, addend: 0x0, symName: __ZNSt3__114__split_bufferIdRNS_9allocatorIdEEE17__destruct_at_endB8ue170006EPd, symObjAddr: 0x9744, symBinAddr: 0x10000B528, symSize: 0x2C }
  - { offsetInCU: 0x1D202, offset: 0x1D202, size: 0x8, addend: 0x0, symName: __ZNSt3__114__split_bufferIdRNS_9allocatorIdEEE17__destruct_at_endB8ue170006EPdNS_17integral_constantIbLb0EEE, symObjAddr: 0x9770, symBinAddr: 0x10000B554, symSize: 0x80 }
  - { offsetInCU: 0x1D242, offset: 0x1D242, size: 0x8, addend: 0x0, symName: __ZNKSt3__114__split_bufferIdRNS_9allocatorIdEEE9__end_capB8ue170006Ev, symObjAddr: 0x97F0, symBinAddr: 0x10000B5D4, symSize: 0x28 }
  - { offsetInCU: 0x1D267, offset: 0x1D267, size: 0x8, addend: 0x0, symName: __ZNKSt3__117__compressed_pairIPdRNS_9allocatorIdEEE5firstB8ue170006Ev, symObjAddr: 0x9818, symBinAddr: 0x10000B5FC, symSize: 0x24 }
  - { offsetInCU: 0x1D28C, offset: 0x1D28C, size: 0x8, addend: 0x0, symName: __ZNSt3__16vectorIdNS_9allocatorIdEEE11__make_iterB8ue170006EPd, symObjAddr: 0x983C, symBinAddr: 0x10000B620, symSize: 0x30 }
  - { offsetInCU: 0x1D2C0, offset: 0x1D2C0, size: 0x8, addend: 0x0, symName: __ZNSt3__111__wrap_iterIPdEC1B8ue170006ES1_, symObjAddr: 0x986C, symBinAddr: 0x10000B650, symSize: 0x34 }
  - { offsetInCU: 0x1D2F7, offset: 0x1D2F7, size: 0x8, addend: 0x0, symName: __ZNSt3__111__wrap_iterIPdEC2B8ue170006ES1_, symObjAddr: 0x98A0, symBinAddr: 0x10000B684, symSize: 0x20 }
  - { offsetInCU: 0x1D32E, offset: 0x1D32E, size: 0x8, addend: 0x0, symName: __ZNSt3__118__unwrap_iter_implINS_11__wrap_iterIPdEELb1EE8__unwrapB8ue170006ES3_, symObjAddr: 0x9A34, symBinAddr: 0x10000B818, symSize: 0x28 }
  - { offsetInCU: 0x1D35B, offset: 0x1D35B, size: 0x8, addend: 0x0, symName: __ZNSt3__119__to_address_helperINS_11__wrap_iterIPdEEvE6__callB8ue170006ERKS3_, symObjAddr: 0x9A80, symBinAddr: 0x10000B864, symSize: 0x30 }
  - { offsetInCU: 0x1D37E, offset: 0x1D37E, size: 0x8, addend: 0x0, symName: __ZNSt3__114pointer_traitsINS_11__wrap_iterIPdEEE10to_addressB8ue170006ES3_, symObjAddr: 0x9AB0, symBinAddr: 0x10000B894, symSize: 0x2C }
  - { offsetInCU: 0x1D3A1, offset: 0x1D3A1, size: 0x8, addend: 0x0, symName: __ZNKSt3__111__wrap_iterIPdE4baseB8ue170006Ev, symObjAddr: 0x9ADC, symBinAddr: 0x10000B8C0, symSize: 0x18 }
  - { offsetInCU: 0x1D3C6, offset: 0x1D3C6, size: 0x8, addend: 0x0, symName: __ZNSt3__16vectorINS0_INS_12basic_stringIcNS_11char_traitsIcEENS_9allocatorIcEEEENS4_IS6_EEEENS4_IS8_EEED2B8ue170006Ev, symObjAddr: 0x9AF4, symBinAddr: 0x10000B8D8, symSize: 0x44 }
  - { offsetInCU: 0x1D3EF, offset: 0x1D3EF, size: 0x8, addend: 0x0, symName: __ZNSt3__16vectorINS0_INS_12basic_stringIcNS_11char_traitsIcEENS_9allocatorIcEEEENS4_IS6_EEEENS4_IS8_EEE16__destroy_vectorC1B8ue170006ERSA_, symObjAddr: 0x9B38, symBinAddr: 0x10000B91C, symSize: 0x34 }
  - { offsetInCU: 0x1D427, offset: 0x1D427, size: 0x8, addend: 0x0, symName: __ZNSt3__16vectorINS0_INS_12basic_stringIcNS_11char_traitsIcEENS_9allocatorIcEEEENS4_IS6_EEEENS4_IS8_EEE16__destroy_vectorclB8ue170006Ev, symObjAddr: 0x9B6C, symBinAddr: 0x10000B950, symSize: 0x90 }
  - { offsetInCU: 0x1D44C, offset: 0x1D44C, size: 0x8, addend: 0x0, symName: __ZNSt3__16vectorINS0_INS_12basic_stringIcNS_11char_traitsIcEENS_9allocatorIcEEEENS4_IS6_EEEENS4_IS8_EEE16__destroy_vectorC2B8ue170006ERSA_, symObjAddr: 0x9BFC, symBinAddr: 0x10000B9E0, symSize: 0x20 }
  - { offsetInCU: 0x1D484, offset: 0x1D484, size: 0x8, addend: 0x0, symName: __ZNSt3__16vectorINS0_INS_12basic_stringIcNS_11char_traitsIcEENS_9allocatorIcEEEENS4_IS6_EEEENS4_IS8_EEE7__clearB8ue170006Ev, symObjAddr: 0x9C1C, symBinAddr: 0x10000BA00, symSize: 0x28 }
  - { offsetInCU: 0x1D4A9, offset: 0x1D4A9, size: 0x8, addend: 0x0, symName: __ZNKSt3__16vectorINS0_INS_12basic_stringIcNS_11char_traitsIcEENS_9allocatorIcEEEENS4_IS6_EEEENS4_IS8_EEE17__annotate_deleteB8ue170006Ev, symObjAddr: 0x9C44, symBinAddr: 0x10000BA28, symSize: 0xD4 }
  - { offsetInCU: 0x1D4CE, offset: 0x1D4CE, size: 0x8, addend: 0x0, symName: __ZNSt3__116allocator_traitsINS_9allocatorINS_6vectorINS_12basic_stringIcNS_11char_traitsIcEENS1_IcEEEENS1_IS7_EEEEEEE10deallocateB8ue170006ERSA_PS9_m, symObjAddr: 0x9D18, symBinAddr: 0x10000BAFC, symSize: 0x34 }
  - { offsetInCU: 0x1D510, offset: 0x1D510, size: 0x8, addend: 0x0, symName: __ZNSt3__16vectorINS0_INS_12basic_stringIcNS_11char_traitsIcEENS_9allocatorIcEEEENS4_IS6_EEEENS4_IS8_EEE7__allocB8ue170006Ev, symObjAddr: 0x9D4C, symBinAddr: 0x10000BB30, symSize: 0x28 }
  - { offsetInCU: 0x1D535, offset: 0x1D535, size: 0x8, addend: 0x0, symName: __ZNKSt3__16vectorINS0_INS_12basic_stringIcNS_11char_traitsIcEENS_9allocatorIcEEEENS4_IS6_EEEENS4_IS8_EEE8capacityB8ue170006Ev, symObjAddr: 0x9D74, symBinAddr: 0x10000BB58, symSize: 0x40 }
  - { offsetInCU: 0x1D55A, offset: 0x1D55A, size: 0x8, addend: 0x0, symName: __ZNSt3__16vectorINS0_INS_12basic_stringIcNS_11char_traitsIcEENS_9allocatorIcEEEENS4_IS6_EEEENS4_IS8_EEE22__base_destruct_at_endB8ue170006EPS8_, symObjAddr: 0x9DB4, symBinAddr: 0x10000BB98, symSize: 0x8C }
  - { offsetInCU: 0x1D59D, offset: 0x1D59D, size: 0x8, addend: 0x0, symName: __ZNSt3__116allocator_traitsINS_9allocatorINS_6vectorINS_12basic_stringIcNS_11char_traitsIcEENS1_IcEEEENS1_IS7_EEEEEEE7destroyB8ue170006IS9_vEEvRSA_PT_, symObjAddr: 0x9E40, symBinAddr: 0x10000BC24, symSize: 0x2C }
  - { offsetInCU: 0x1D5DA, offset: 0x1D5DA, size: 0x8, addend: 0x0, symName: __ZNSt3__19allocatorINS_6vectorINS_12basic_stringIcNS_11char_traitsIcEENS0_IcEEEENS0_IS6_EEEEE7destroyB8ue170006EPS8_, symObjAddr: 0x9E80, symBinAddr: 0x10000BC64, symSize: 0x28 }
  - { offsetInCU: 0x1D60D, offset: 0x1D60D, size: 0x8, addend: 0x0, symName: __ZNKSt3__16vectorINS0_INS_12basic_stringIcNS_11char_traitsIcEENS_9allocatorIcEEEENS4_IS6_EEEENS4_IS8_EEE31__annotate_contiguous_containerB8ue170006EPKvSC_SC_SC_, symObjAddr: 0x9EA8, symBinAddr: 0x10000BC8C, symSize: 0x20 }
  - { offsetInCU: 0x1D65E, offset: 0x1D65E, size: 0x8, addend: 0x0, symName: __ZNKSt3__16vectorINS0_INS_12basic_stringIcNS_11char_traitsIcEENS_9allocatorIcEEEENS4_IS6_EEEENS4_IS8_EEE4dataB8ue170006Ev, symObjAddr: 0x9EC8, symBinAddr: 0x10000BCAC, symSize: 0x28 }
  - { offsetInCU: 0x1D683, offset: 0x1D683, size: 0x8, addend: 0x0, symName: __ZNKSt3__16vectorINS0_INS_12basic_stringIcNS_11char_traitsIcEENS_9allocatorIcEEEENS4_IS6_EEEENS4_IS8_EEE4sizeB8ue170006Ev, symObjAddr: 0x9EF0, symBinAddr: 0x10000BCD4, symSize: 0x28 }
  - { offsetInCU: 0x1D6A8, offset: 0x1D6A8, size: 0x8, addend: 0x0, symName: __ZNSt3__19allocatorINS_6vectorINS_12basic_stringIcNS_11char_traitsIcEENS0_IcEEEENS0_IS6_EEEEE10deallocateB8ue170006EPS8_m, symObjAddr: 0x9F18, symBinAddr: 0x10000BCFC, symSize: 0x44 }
  - { offsetInCU: 0x1D6E9, offset: 0x1D6E9, size: 0x8, addend: 0x0, symName: __ZNSt3__117__compressed_pairIPNS_6vectorINS_12basic_stringIcNS_11char_traitsIcEENS_9allocatorIcEEEENS5_IS7_EEEENS5_IS9_EEE6secondB8ue170006Ev, symObjAddr: 0x9F5C, symBinAddr: 0x10000BD40, symSize: 0x24 }
  - { offsetInCU: 0x1D70E, offset: 0x1D70E, size: 0x8, addend: 0x0, symName: __ZNSt3__122__compressed_pair_elemINS_9allocatorINS_6vectorINS_12basic_stringIcNS_11char_traitsIcEENS1_IcEEEENS1_IS7_EEEEEELi1ELb1EE5__getB8ue170006Ev, symObjAddr: 0x9F80, symBinAddr: 0x10000BD64, symSize: 0x14 }
  - { offsetInCU: 0x1D733, offset: 0x1D733, size: 0x8, addend: 0x0, symName: __ZNKSt3__16vectorINS0_INS_12basic_stringIcNS_11char_traitsIcEENS_9allocatorIcEEEENS4_IS6_EEEENS4_IS8_EEE9__end_capB8ue170006Ev, symObjAddr: 0x9F94, symBinAddr: 0x10000BD78, symSize: 0x28 }
  - { offsetInCU: 0x1D758, offset: 0x1D758, size: 0x8, addend: 0x0, symName: __ZNKSt3__117__compressed_pairIPNS_6vectorINS_12basic_stringIcNS_11char_traitsIcEENS_9allocatorIcEEEENS5_IS7_EEEENS5_IS9_EEE5firstB8ue170006Ev, symObjAddr: 0x9FBC, symBinAddr: 0x10000BDA0, symSize: 0x24 }
  - { offsetInCU: 0x1D77D, offset: 0x1D77D, size: 0x8, addend: 0x0, symName: __ZNKSt3__122__compressed_pair_elemIPNS_6vectorINS_12basic_stringIcNS_11char_traitsIcEENS_9allocatorIcEEEENS5_IS7_EEEELi0ELb0EE5__getB8ue170006Ev, symObjAddr: 0x9FE0, symBinAddr: 0x10000BDC4, symSize: 0x14 }
  - { offsetInCU: 0x1D7A2, offset: 0x1D7A2, size: 0x8, addend: 0x0, symName: __ZNSt3__16vectorINS0_INS_12basic_stringIcNS_11char_traitsIcEENS_9allocatorIcEEEENS4_IS6_EEEENS4_IS8_EEE11__make_iterB8ue170006EPS8_, symObjAddr: 0x9FF4, symBinAddr: 0x10000BDD8, symSize: 0x30 }
  - { offsetInCU: 0x1D7D6, offset: 0x1D7D6, size: 0x8, addend: 0x0, symName: __ZNSt3__111__wrap_iterIPNS_6vectorINS_12basic_stringIcNS_11char_traitsIcEENS_9allocatorIcEEEENS5_IS7_EEEEEC1B8ue170006ESA_, symObjAddr: 0xA024, symBinAddr: 0x10000BE08, symSize: 0x34 }
  - { offsetInCU: 0x1D80D, offset: 0x1D80D, size: 0x8, addend: 0x0, symName: __ZNSt3__111__wrap_iterIPNS_6vectorINS_12basic_stringIcNS_11char_traitsIcEENS_9allocatorIcEEEENS5_IS7_EEEEEC2B8ue170006ESA_, symObjAddr: 0xA058, symBinAddr: 0x10000BE3C, symSize: 0x20 }
  - { offsetInCU: 0x1D844, offset: 0x1D844, size: 0x8, addend: 0x0, symName: __ZNKSt3__16vectorINS_12basic_stringIcNS_11char_traitsIcEENS_9allocatorIcEEEENS4_IS6_EEE11__make_iterB8ue170006EPKS6_, symObjAddr: 0xA078, symBinAddr: 0x10000BE5C, symSize: 0x30 }
  - { offsetInCU: 0x1D878, offset: 0x1D878, size: 0x8, addend: 0x0, symName: __ZNSt3__111__wrap_iterIPKNS_12basic_stringIcNS_11char_traitsIcEENS_9allocatorIcEEEEEC1B8ue170006ES8_, symObjAddr: 0xA0A8, symBinAddr: 0x10000BE8C, symSize: 0x34 }
  - { offsetInCU: 0x1D8AF, offset: 0x1D8AF, size: 0x8, addend: 0x0, symName: __ZNSt3__111__wrap_iterIPKNS_12basic_stringIcNS_11char_traitsIcEENS_9allocatorIcEEEEEC2B8ue170006ES8_, symObjAddr: 0xA0DC, symBinAddr: 0x10000BEC0, symSize: 0x20 }
  - { offsetInCU: 0x5C, offset: 0x1DBC6, size: 0x8, addend: 0x0, symName: __ZNSt3__1L19piecewise_constructE, symObjAddr: 0x1F80F, symBinAddr: 0x100026A70, symSize: 0x0 }
  - { offsetInCU: 0x12B28, offset: 0x30692, size: 0x8, addend: 0x0, symName: __ZNSt3__117__floyd_sift_downB8ue170006INS_17_ClassicAlgPolicyERNS_7greaterINS_4pairIdNS_12basic_stringIcNS_11char_traitsIcEENS_9allocatorIcEEEEEEEENS_11__wrap_iterIPSA_EEEET1_SG_OT0_NS_15iterator_traitsISG_E15difference_typeE, symObjAddr: 0x18838, symBinAddr: 0x10001F4C0, symSize: 0x148 }
  - { offsetInCU: 0x1A0E5, offset: 0x37C4F, size: 0x8, addend: 0x0, symName: __ZNSt3__17getlineB8ue170006IcNS_11char_traitsIcEENS_9allocatorIcEEEERNS_13basic_istreamIT_T0_EES9_RNS_12basic_stringIS6_S7_T1_EE, symObjAddr: 0x598, symBinAddr: 0x10000C688, symSize: 0x5C }
  - { offsetInCU: 0x1A4BC, offset: 0x38026, size: 0x8, addend: 0x0, symName: __ZNSt3__17getlineB8ue170006IcNS_11char_traitsIcEENS_9allocatorIcEEEERNS_13basic_istreamIT_T0_EES9_RNS_12basic_stringIS6_S7_T1_EES6_, symObjAddr: 0x71C, symBinAddr: 0x10000C80C, symSize: 0x238 }
  - { offsetInCU: 0x1A590, offset: 0x380FA, size: 0x8, addend: 0x0, symName: __ZNSt3__1neB8ue170006ERKNS_19__hash_map_iteratorINS_15__hash_iteratorIPNS_11__hash_nodeINS_17__hash_value_typeINS_12basic_stringIcNS_11char_traitsIcEENS_9allocatorIcEEEENS_13unordered_mapIS9_dNS_4hashIS9_EENS_8equal_toIS9_EENS7_INS_4pairIKS9_dEEEEEEEEPvEEEEEESR_, symObjAddr: 0x1070, symBinAddr: 0x10000CEF4, symSize: 0x30 }
  - { offsetInCU: 0x1A5CD, offset: 0x38137, size: 0x8, addend: 0x0, symName: __ZNSt3__1neB8ue170006IcNS_11char_traitsIcEENS_9allocatorIcEEEEbRKNS_12basic_stringIT_T0_T1_EESB_, symObjAddr: 0x11D8, symBinAddr: 0x10000D034, symSize: 0x34 }
  - { offsetInCU: 0x1A625, offset: 0x3818F, size: 0x8, addend: 0x0, symName: __ZNSt3__1neB8ue170006ERKNS_19__hash_map_iteratorINS_15__hash_iteratorIPNS_11__hash_nodeINS_17__hash_value_typeINS_12basic_stringIcNS_11char_traitsIcEENS_9allocatorIcEEEEdEEPvEEEEEESH_, symObjAddr: 0x16A0, symBinAddr: 0x10000D4FC, symSize: 0x30 }
  - { offsetInCU: 0x1B868, offset: 0x393D2, size: 0x8, addend: 0x0, symName: __ZNSt3__17reverseB8ue170006INS_11__wrap_iterIPNS_12basic_stringIcNS_11char_traitsIcEENS_9allocatorIcEEEEEEEEvT_SA_, symObjAddr: 0x1EBC, symBinAddr: 0x10000DD18, symSize: 0x3C }
  - { offsetInCU: 0x1BF18, offset: 0x39A82, size: 0x8, addend: 0x0, symName: __ZNSt3__110make_tupleB8ue170006IJRNS_12basic_stringIcNS_11char_traitsIcEENS_9allocatorIcEEEES7_RdEEENS_5tupleIJDpNS_18__unwrap_ref_decayIT_E4typeEEEEDpOSB_, symObjAddr: 0x2888, symBinAddr: 0x10000E688, symSize: 0x48 }
  - { offsetInCU: 0x1BF79, offset: 0x39AE3, size: 0x8, addend: 0x0, symName: __ZNSt3__110make_tupleB8ue170006IJRKNS_12basic_stringIcNS_11char_traitsIcEENS_9allocatorIcEEEES8_iEEENS_5tupleIJDpNS_18__unwrap_ref_decayIT_E4typeEEEEDpOSB_, symObjAddr: 0x29D4, symBinAddr: 0x10000E7A8, symSize: 0x48 }
  - { offsetInCU: 0x1C2FC, offset: 0x39E66, size: 0x8, addend: 0x0, symName: __ZNSt3__17reverseB8ue170006INS_11__wrap_iterIPNS_5tupleIJNS_12basic_stringIcNS_11char_traitsIcEENS_9allocatorIcEEEES8_dEEEEEEEvT_SC_, symObjAddr: 0x2A7C, symBinAddr: 0x10000E850, symSize: 0x3C }
  - { offsetInCU: 0x1C33C, offset: 0x39EA6, size: 0x8, addend: 0x0, symName: __ZNSt3__13maxB8ue170006IdEERKT_S3_S3_, symObjAddr: 0x3688, symBinAddr: 0x10000F378, symSize: 0x2C }
  - { offsetInCU: 0x1C37F, offset: 0x39EE9, size: 0x8, addend: 0x0, symName: __ZNSt3__1neB8ue170006ERKNS_16__deque_iteratorINS_12basic_stringIcNS_11char_traitsIcEENS_9allocatorIcEEEEPS6_RS6_PS7_lLl170EEESC_, symObjAddr: 0x3E94, symBinAddr: 0x10000FAF0, symSize: 0x34 }
  - { offsetInCU: 0x1C3BC, offset: 0x39F26, size: 0x8, addend: 0x0, symName: __ZNSt3__1eqB8ue170006ERKNS_16__deque_iteratorINS_12basic_stringIcNS_11char_traitsIcEENS_9allocatorIcEEEEPS6_RS6_PS7_lLl170EEESC_, symObjAddr: 0x41F4, symBinAddr: 0x10000FE04, symSize: 0x30 }
  - { offsetInCU: 0x1C3F9, offset: 0x39F63, size: 0x8, addend: 0x0, symName: __ZNSt3__112__to_addressB8ue170006IPNS_12basic_stringIcNS_11char_traitsIcEENS_9allocatorIcEEEEEEPT_S9_, symObjAddr: 0x4CFC, symBinAddr: 0x1000107E8, symSize: 0x14 }
  - { offsetInCU: 0x1C42E, offset: 0x39F98, size: 0x8, addend: 0x0, symName: __ZNSt3__112__to_addressB8ue170006INS_4pairIdNS_12basic_stringIcNS_11char_traitsIcEENS_9allocatorIcEEEEEEEEPT_SA_, symObjAddr: 0x5364, symBinAddr: 0x100010D68, symSize: 0x14 }
  - { offsetInCU: 0x1C496, offset: 0x3A000, size: 0x8, addend: 0x0, symName: __ZNSt3__1neB8ue170006ERKNS_15__hash_iteratorIPNS_11__hash_nodeINS_17__hash_value_typeINS_12basic_stringIcNS_11char_traitsIcEENS_9allocatorIcEEEENS_13unordered_mapIS8_dNS_4hashIS8_EENS_8equal_toIS8_EENS6_INS_4pairIKS8_dEEEEEEEEPvEEEESP_, symObjAddr: 0x75C4, symBinAddr: 0x100012024, symSize: 0x34 }
  - { offsetInCU: 0x1C4D3, offset: 0x3A03D, size: 0x8, addend: 0x0, symName: __ZNSt3__1eqB8ue170006ERKNS_15__hash_iteratorIPNS_11__hash_nodeINS_17__hash_value_typeINS_12basic_stringIcNS_11char_traitsIcEENS_9allocatorIcEEEENS_13unordered_mapIS8_dNS_4hashIS8_EENS_8equal_toIS8_EENS6_INS_4pairIKS8_dEEEEEEEEPvEEEESP_, symObjAddr: 0x75F8, symBinAddr: 0x100012058, symSize: 0x30 }
  - { offsetInCU: 0x1C5B9, offset: 0x3A123, size: 0x8, addend: 0x0, symName: __ZNSt3__119__allocate_at_leastB8ue170006INS_9allocatorINS_12basic_stringIcNS_11char_traitsIcEENS1_IcEEEEEEEENS_19__allocation_resultINS_16allocator_traitsIT_E7pointerEEERSA_m, symObjAddr: 0x8078, symBinAddr: 0x1000128A4, symSize: 0x40 }
  - { offsetInCU: 0x1C5FC, offset: 0x3A166, size: 0x8, addend: 0x0, symName: __ZNSt3__142__uninitialized_allocator_move_if_noexceptB8ue170006INS_9allocatorINS_12basic_stringIcNS_11char_traitsIcEENS1_IcEEEEEENS_16reverse_iteratorIPS6_EESA_SA_EET2_RT_T0_T1_SB_, symObjAddr: 0x82B0, symBinAddr: 0x100012A5C, symSize: 0x12C }
  - { offsetInCU: 0x1C69C, offset: 0x3A206, size: 0x8, addend: 0x0, symName: __ZNSt3__14swapB8ue170006IPNS_12basic_stringIcNS_11char_traitsIcEENS_9allocatorIcEEEEEENS_9enable_ifIXaasr21is_move_constructibleIT_EE5valuesr18is_move_assignableIS9_EE5valueEvE4typeERS9_SC_, symObjAddr: 0x8428, symBinAddr: 0x100012BD4, symSize: 0x3C }
  - { offsetInCU: 0x1C6ED, offset: 0x3A257, size: 0x8, addend: 0x0, symName: __ZNSt3__122__make_exception_guardB8ue170006INS_29_AllocatorDestroyRangeReverseINS_9allocatorINS_12basic_stringIcNS_11char_traitsIcEENS2_IcEEEEEENS_16reverse_iteratorIPS7_EEEEEENS_28__exception_guard_exceptionsIT_EESE_, symObjAddr: 0x852C, symBinAddr: 0x100012CD8, symSize: 0x4C }
  - { offsetInCU: 0x1C723, offset: 0x3A28D, size: 0x8, addend: 0x0, symName: __ZNSt3__1neB8ue170006IPNS_12basic_stringIcNS_11char_traitsIcEENS_9allocatorIcEEEES7_EEbRKNS_16reverse_iteratorIT_EERKNS8_IT0_EE, symObjAddr: 0x85BC, symBinAddr: 0x100012D68, symSize: 0x48 }
  - { offsetInCU: 0x1C76F, offset: 0x3A2D9, size: 0x8, addend: 0x0, symName: __ZNSt3__112__to_addressB8ue170006INS_16reverse_iteratorIPNS_12basic_stringIcNS_11char_traitsIcEENS_9allocatorIcEEEEEEvEEu7__decayIDTclsr19__to_address_helperIT_EE6__callclsr3stdE7declvalIRKSA_EEEEESC_, symObjAddr: 0x8638, symBinAddr: 0x100012DE4, symSize: 0x24 }
  - { offsetInCU: 0x1C7CE, offset: 0x3A338, size: 0x8, addend: 0x0, symName: __ZNSt3__119__allocator_destroyB8ue170006INS_9allocatorINS_12basic_stringIcNS_11char_traitsIcEENS1_IcEEEEEENS_16reverse_iteratorINS8_IPS6_EEEESB_EEvRT_T0_T1_, symObjAddr: 0x8994, symBinAddr: 0x100013140, symSize: 0x70 }
  - { offsetInCU: 0x1C833, offset: 0x3A39D, size: 0x8, addend: 0x0, symName: __ZNSt3__1neB8ue170006INS_16reverse_iteratorIPNS_12basic_stringIcNS_11char_traitsIcEENS_9allocatorIcEEEEEES9_EEbRKNS1_IT_EERKNS1_IT0_EE, symObjAddr: 0x8A40, symBinAddr: 0x1000131EC, symSize: 0x60 }
  - { offsetInCU: 0x1C87F, offset: 0x3A3E9, size: 0x8, addend: 0x0, symName: __ZNSt3__112__to_addressB8ue170006INS_16reverse_iteratorINS1_IPNS_12basic_stringIcNS_11char_traitsIcEENS_9allocatorIcEEEEEEEEvEEu7__decayIDTclsr19__to_address_helperIT_EE6__callclsr3stdE7declvalIRKSB_EEEEESD_, symObjAddr: 0x8AA0, symBinAddr: 0x10001324C, symSize: 0x24 }
  - { offsetInCU: 0x1C915, offset: 0x3A47F, size: 0x8, addend: 0x0, symName: __ZNSt3__116forward_as_tupleB8ue170006IJRKNS_12basic_stringIcNS_11char_traitsIcEENS_9allocatorIcEEEEEEENS_5tupleIJDpOT_EEESC_, symObjAddr: 0x9340, symBinAddr: 0x100013AEC, symSize: 0x2C }
  - { offsetInCU: 0x1C94E, offset: 0x3A4B8, size: 0x8, addend: 0x0, symName: __ZNSt3__116forward_as_tupleB8ue170006IJEEENS_5tupleIJDpOT_EEES4_, symObjAddr: 0x936C, symBinAddr: 0x100013B18, symSize: 0x4 }
  - { offsetInCU: 0x1C99C, offset: 0x3A506, size: 0x8, addend: 0x0, symName: __ZNSt3__13getB8ue170006ILm0EJRKNS_12basic_stringIcNS_11char_traitsIcEENS_9allocatorIcEEEEEEERNS_13tuple_elementIXT_ENS_5tupleIJDpT0_EEEE4typeERSD_, symObjAddr: 0xAC44, symBinAddr: 0x1000144B0, symSize: 0x24 }
  - { offsetInCU: 0x1CA54, offset: 0x3A5BE, size: 0x8, addend: 0x0, symName: __ZNSt3__122__make_exception_guardB8ue170006INS_6vectorINS_12basic_stringIcNS_11char_traitsIcEENS_9allocatorIcEEEENS5_IS7_EEE16__destroy_vectorEEENS_28__exception_guard_exceptionsIT_EESC_, symObjAddr: 0xD2BC, symBinAddr: 0x1000166A8, symSize: 0x40 }
  - { offsetInCU: 0x1CA89, offset: 0x3A5F3, size: 0x8, addend: 0x0, symName: __ZNSt3__130__uninitialized_allocator_copyB8ue170006INS_9allocatorINS_12basic_stringIcNS_11char_traitsIcEENS1_IcEEEEEEPS6_S8_S8_EET2_RT_T0_T1_S9_, symObjAddr: 0xD4DC, symBinAddr: 0x1000168C8, symSize: 0x80 }
  - { offsetInCU: 0x1CB26, offset: 0x3A690, size: 0x8, addend: 0x0, symName: __ZNSt3__114__unwrap_rangeB8ue170006IPNS_12basic_stringIcNS_11char_traitsIcEENS_9allocatorIcEEEES7_EENS_4pairIT0_S9_EET_SB_, symObjAddr: 0xD55C, symBinAddr: 0x100016948, symSize: 0x60 }
  - { offsetInCU: 0x1CB72, offset: 0x3A6DC, size: 0x8, addend: 0x0, symName: __ZNSt3__135__uninitialized_allocator_copy_implB8ue170006INS_9allocatorINS_12basic_stringIcNS_11char_traitsIcEENS1_IcEEEEEEPS6_S8_S8_EET2_RT_T0_T1_S9_, symObjAddr: 0xD5BC, symBinAddr: 0x1000169A8, symSize: 0xF4 }
  - { offsetInCU: 0x1CC10, offset: 0x3A77A, size: 0x8, addend: 0x0, symName: __ZNSt3__113__unwrap_iterB8ue170006IPNS_12basic_stringIcNS_11char_traitsIcEENS_9allocatorIcEEEENS_18__unwrap_iter_implIS7_Lb1EEELi0EEEDTclsrT0_8__unwrapclsr3stdE7declvalIT_EEEESB_, symObjAddr: 0xD6B0, symBinAddr: 0x100016A9C, symSize: 0x24 }
  - { offsetInCU: 0x1CC54, offset: 0x3A7BE, size: 0x8, addend: 0x0, symName: __ZNSt3__113__rewrap_iterB8ue170006IPNS_12basic_stringIcNS_11char_traitsIcEENS_9allocatorIcEEEES7_NS_18__unwrap_iter_implIS7_Lb1EEEEET_SA_T0_, symObjAddr: 0xD6D4, symBinAddr: 0x100016AC0, symSize: 0x3C }
  - { offsetInCU: 0x1CCA9, offset: 0x3A813, size: 0x8, addend: 0x0, symName: __ZNSt3__19make_pairB8ue170006IPNS_12basic_stringIcNS_11char_traitsIcEENS_9allocatorIcEEEES7_EENS_4pairINS_18__unwrap_ref_decayIT_E4typeENS9_IT0_E4typeEEEOSA_OSD_, symObjAddr: 0xD710, symBinAddr: 0x100016AFC, symSize: 0x38 }
  - { offsetInCU: 0x1CDCC, offset: 0x3A936, size: 0x8, addend: 0x0, symName: __ZNSt3__122__make_exception_guardB8ue170006INS_29_AllocatorDestroyRangeReverseINS_9allocatorINS_12basic_stringIcNS_11char_traitsIcEENS2_IcEEEEEEPS7_EEEENS_28__exception_guard_exceptionsIT_EESC_, symObjAddr: 0xD7B8, symBinAddr: 0x100016BA4, symSize: 0x4C }
  - { offsetInCU: 0x1CE02, offset: 0x3A96C, size: 0x8, addend: 0x0, symName: __ZNSt3__119__allocator_destroyB8ue170006INS_9allocatorINS_12basic_stringIcNS_11char_traitsIcEENS1_IcEEEEEENS_16reverse_iteratorIPS6_EESA_EEvRT_T0_T1_, symObjAddr: 0xDA48, symBinAddr: 0x100016E34, symSize: 0x70 }
  - { offsetInCU: 0x1CEEB, offset: 0x3AA55, size: 0x8, addend: 0x0, symName: __ZNSt3__1neB8ue170006ERKNS_15__hash_iteratorIPNS_11__hash_nodeINS_17__hash_value_typeINS_12basic_stringIcNS_11char_traitsIcEENS_9allocatorIcEEEEdEEPvEEEESF_, symObjAddr: 0xDF70, symBinAddr: 0x10001735C, symSize: 0x34 }
  - { offsetInCU: 0x1CF28, offset: 0x3AA92, size: 0x8, addend: 0x0, symName: __ZNSt3__1eqB8ue170006ERKNS_15__hash_iteratorIPNS_11__hash_nodeINS_17__hash_value_typeINS_12basic_stringIcNS_11char_traitsIcEENS_9allocatorIcEEEEdEEPvEEEESF_, symObjAddr: 0xDFA4, symBinAddr: 0x100017390, symSize: 0x30 }
  - { offsetInCU: 0x1D370, offset: 0x3AEDA, size: 0x8, addend: 0x0, symName: __ZNSt3__14swapB8ue170006IPPNS_12basic_stringIcNS_11char_traitsIcEENS_9allocatorIcEEEEEENS_9enable_ifIXaasr21is_move_constructibleIT_EE5valuesr18is_move_assignableISA_EE5valueEvE4typeERSA_SD_, symObjAddr: 0x10D88, symBinAddr: 0x10001967C, symSize: 0x3C }
  - { offsetInCU: 0x1D3C1, offset: 0x3AF2B, size: 0x8, addend: 0x0, symName: __ZNSt3__14moveB8ue170006IPPNS_12basic_stringIcNS_11char_traitsIcEENS_9allocatorIcEEEES8_EET0_T_SA_S9_, symObjAddr: 0x10E6C, symBinAddr: 0x100019760, symSize: 0x40 }
  - { offsetInCU: 0x1D41B, offset: 0x3AF85, size: 0x8, addend: 0x0, symName: __ZNSt3__16__moveB8ue170006INS_17_ClassicAlgPolicyEPPNS_12basic_stringIcNS_11char_traitsIcEENS_9allocatorIcEEEES9_S9_EENS_4pairIT0_T2_EESB_T1_SC_, symObjAddr: 0x10F74, symBinAddr: 0x100019868, symSize: 0x44 }
  - { offsetInCU: 0x1D487, offset: 0x3AFF1, size: 0x8, addend: 0x0, symName: __ZNSt3__123__dispatch_copy_or_moveB8ue170006INS_17_ClassicAlgPolicyENS_11__move_loopIS1_EENS_14__move_trivialEPPNS_12basic_stringIcNS_11char_traitsIcEENS_9allocatorIcEEEESC_SC_EENS_4pairIT2_T4_EESE_T3_SF_, symObjAddr: 0x10FB8, symBinAddr: 0x1000198AC, symSize: 0x44 }
  - { offsetInCU: 0x1D505, offset: 0x3B06F, size: 0x8, addend: 0x0, symName: __ZNSt3__121__unwrap_and_dispatchB8ue170006INS_10__overloadINS_11__move_loopINS_17_ClassicAlgPolicyEEENS_14__move_trivialEEEPPNS_12basic_stringIcNS_11char_traitsIcEENS_9allocatorIcEEEESE_SE_Li0EEENS_4pairIT0_T2_EESG_T1_SH_, symObjAddr: 0x10FFC, symBinAddr: 0x1000198F0, symSize: 0xB4 }
  - { offsetInCU: 0x1D593, offset: 0x3B0FD, size: 0x8, addend: 0x0, symName: __ZNSt3__114__unwrap_rangeB8ue170006IPPNS_12basic_stringIcNS_11char_traitsIcEENS_9allocatorIcEEEES8_EENS_4pairIT0_SA_EET_SC_, symObjAddr: 0x110B0, symBinAddr: 0x1000199A4, symSize: 0x60 }
  - { offsetInCU: 0x1D757, offset: 0x3B2C1, size: 0x8, addend: 0x0, symName: __ZNSt3__113__unwrap_iterB8ue170006IPPNS_12basic_stringIcNS_11char_traitsIcEENS_9allocatorIcEEEENS_18__unwrap_iter_implIS8_Lb1EEELi0EEEDTclsrT0_8__unwrapclsr3stdE7declvalIT_EEEESC_, symObjAddr: 0x11158, symBinAddr: 0x100019A4C, symSize: 0x24 }
  - { offsetInCU: 0x1D79B, offset: 0x3B305, size: 0x8, addend: 0x0, symName: __ZNSt3__19make_pairB8ue170006IPPNS_12basic_stringIcNS_11char_traitsIcEENS_9allocatorIcEEEES8_EENS_4pairINS_18__unwrap_ref_decayIT_E4typeENSA_IT0_E4typeEEEOSB_OSE_, symObjAddr: 0x1117C, symBinAddr: 0x100019A70, symSize: 0x38 }
  - { offsetInCU: 0x1D7EA, offset: 0x3B354, size: 0x8, addend: 0x0, symName: __ZNSt3__114__rewrap_rangeB8ue170006IPPNS_12basic_stringIcNS_11char_traitsIcEENS_9allocatorIcEEEES8_EET_S9_T0_, symObjAddr: 0x111B4, symBinAddr: 0x100019AA8, symSize: 0x2C }
  - { offsetInCU: 0x1D836, offset: 0x3B3A0, size: 0x8, addend: 0x0, symName: __ZNSt3__113__rewrap_iterB8ue170006IPPNS_12basic_stringIcNS_11char_traitsIcEENS_9allocatorIcEEEES8_NS_18__unwrap_iter_implIS8_Lb1EEEEET_SB_T0_, symObjAddr: 0x111E0, symBinAddr: 0x100019AD4, symSize: 0x3C }
  - { offsetInCU: 0x1D88B, offset: 0x3B3F5, size: 0x8, addend: 0x0, symName: __ZNSt3__119__copy_trivial_implB8ue170006IPNS_12basic_stringIcNS_11char_traitsIcEENS_9allocatorIcEEEES7_EENS_4pairIPT_PT0_EESA_SA_SC_, symObjAddr: 0x1121C, symBinAddr: 0x100019B10, symSize: 0x80 }
  - { offsetInCU: 0x1D8F3, offset: 0x3B45D, size: 0x8, addend: 0x0, symName: __ZNSt3__119__constexpr_memmoveB8ue170006IPNS_12basic_stringIcNS_11char_traitsIcEENS_9allocatorIcEEEES7_Li0EEEPT_S9_PT0_NS_15__element_countE, symObjAddr: 0x1129C, symBinAddr: 0x100019B90, symSize: 0x64 }
  - { offsetInCU: 0x1D961, offset: 0x3B4CB, size: 0x8, addend: 0x0, symName: __ZNSt3__19make_pairB8ue170006IRPPNS_12basic_stringIcNS_11char_traitsIcEENS_9allocatorIcEEEES8_EENS_4pairINS_18__unwrap_ref_decayIT_E4typeENSB_IT0_E4typeEEEOSC_OSF_, symObjAddr: 0x11300, symBinAddr: 0x100019BF4, symSize: 0x38 }
  - { offsetInCU: 0x1DA03, offset: 0x3B56D, size: 0x8, addend: 0x0, symName: __ZNSt3__18distanceB8ue170006INS_13move_iteratorIPPNS_12basic_stringIcNS_11char_traitsIcEENS_9allocatorIcEEEEEEEENS_15iterator_traitsIT_E15difference_typeESC_SC_, symObjAddr: 0x11568, symBinAddr: 0x100019E5C, symSize: 0x3C }
  - { offsetInCU: 0x1DA46, offset: 0x3B5B0, size: 0x8, addend: 0x0, symName: __ZNSt3__110__distanceB8ue170006INS_13move_iteratorIPPNS_12basic_stringIcNS_11char_traitsIcEENS_9allocatorIcEEEEEEEENS_15iterator_traitsIT_E15difference_typeESC_SC_NS_26random_access_iterator_tagE, symObjAddr: 0x1176C, symBinAddr: 0x10001A060, symSize: 0x30 }
  - { offsetInCU: 0x1DA94, offset: 0x3B5FE, size: 0x8, addend: 0x0, symName: __ZNSt3__1miB8ue170006IPPNS_12basic_stringIcNS_11char_traitsIcEENS_9allocatorIcEEEES8_EEDTmicldtfp_4baseEcldtfp0_4baseEERKNS_13move_iteratorIT_EERKNSA_IT0_EE, symObjAddr: 0x1179C, symBinAddr: 0x10001A090, symSize: 0x48 }
  - { offsetInCU: 0x1DAE3, offset: 0x3B64D, size: 0x8, addend: 0x0, symName: __ZNSt3__113move_backwardB8ue170006IPPNS_12basic_stringIcNS_11char_traitsIcEENS_9allocatorIcEEEES8_EET0_T_SA_S9_, symObjAddr: 0x11844, symBinAddr: 0x10001A138, symSize: 0x40 }
  - { offsetInCU: 0x1DB3D, offset: 0x3B6A7, size: 0x8, addend: 0x0, symName: __ZNSt3__115__move_backwardB8ue170006INS_17_ClassicAlgPolicyEPPNS_12basic_stringIcNS_11char_traitsIcEENS_9allocatorIcEEEES9_S9_EENS_4pairIT0_T2_EESB_T1_SC_, symObjAddr: 0x11884, symBinAddr: 0x10001A178, symSize: 0x44 }
  - { offsetInCU: 0x1DBA9, offset: 0x3B713, size: 0x8, addend: 0x0, symName: __ZNSt3__123__dispatch_copy_or_moveB8ue170006INS_17_ClassicAlgPolicyENS_20__move_backward_loopIS1_EENS_23__move_backward_trivialEPPNS_12basic_stringIcNS_11char_traitsIcEENS_9allocatorIcEEEESC_SC_EENS_4pairIT2_T4_EESE_T3_SF_, symObjAddr: 0x118C8, symBinAddr: 0x10001A1BC, symSize: 0x44 }
  - { offsetInCU: 0x1DC27, offset: 0x3B791, size: 0x8, addend: 0x0, symName: __ZNSt3__121__unwrap_and_dispatchB8ue170006INS_10__overloadINS_20__move_backward_loopINS_17_ClassicAlgPolicyEEENS_23__move_backward_trivialEEEPPNS_12basic_stringIcNS_11char_traitsIcEENS_9allocatorIcEEEESE_SE_Li0EEENS_4pairIT0_T2_EESG_T1_SH_, symObjAddr: 0x1190C, symBinAddr: 0x10001A200, symSize: 0xB4 }
  - { offsetInCU: 0x1DCFB, offset: 0x3B865, size: 0x8, addend: 0x0, symName: __ZNSt3__128__copy_backward_trivial_implB8ue170006IPNS_12basic_stringIcNS_11char_traitsIcEENS_9allocatorIcEEEES7_EENS_4pairIPT_PT0_EESA_SA_SC_, symObjAddr: 0x11A08, symBinAddr: 0x10001A2FC, symSize: 0x90 }
  - { offsetInCU: 0x1DD63, offset: 0x3B8CD, size: 0x8, addend: 0x0, symName: __ZNSt3__19make_pairB8ue170006IRPPNS_12basic_stringIcNS_11char_traitsIcEENS_9allocatorIcEEEES9_EENS_4pairINS_18__unwrap_ref_decayIT_E4typeENSB_IT0_E4typeEEEOSC_OSF_, symObjAddr: 0x11A98, symBinAddr: 0x10001A38C, symSize: 0x38 }
  - { offsetInCU: 0x1DDB2, offset: 0x3B91C, size: 0x8, addend: 0x0, symName: __ZNSt3__119__allocate_at_leastB8ue170006INS_9allocatorIPNS_12basic_stringIcNS_11char_traitsIcEENS1_IcEEEEEEEENS_19__allocation_resultINS_16allocator_traitsIT_E7pointerEEERSB_m, symObjAddr: 0x11C50, symBinAddr: 0x10001A544, symSize: 0x40 }
  - { offsetInCU: 0x1DE46, offset: 0x3B9B0, size: 0x8, addend: 0x0, symName: __ZNSt3__19__reverseB8ue170006INS_17_ClassicAlgPolicyENS_11__wrap_iterIPNS_12basic_stringIcNS_11char_traitsIcEENS_9allocatorIcEEEEEESA_EEvT0_T1_, symObjAddr: 0x1523C, symBinAddr: 0x10001C5D0, symSize: 0x3C }
  - { offsetInCU: 0x1DE98, offset: 0x3BA02, size: 0x8, addend: 0x0, symName: __ZNSt3__114__reverse_implB8ue170006INS_17_ClassicAlgPolicyENS_11__wrap_iterIPNS_12basic_stringIcNS_11char_traitsIcEENS_9allocatorIcEEEEEEEEvT0_SB_NS_26random_access_iterator_tagE, symObjAddr: 0x15278, symBinAddr: 0x10001C60C, symSize: 0x7C }
  - { offsetInCU: 0x1DEEC, offset: 0x3BA56, size: 0x8, addend: 0x0, symName: __ZNSt3__1ltB8ue170006IPNS_12basic_stringIcNS_11char_traitsIcEENS_9allocatorIcEEEEEEbRKNS_11__wrap_iterIT_EESC_, symObjAddr: 0x152F4, symBinAddr: 0x10001C688, symSize: 0x48 }
  - { offsetInCU: 0x1DFC5, offset: 0x3BB2F, size: 0x8, addend: 0x0, symName: __ZNSt3__19iter_swapB8ue170006INS_11__wrap_iterIPNS_12basic_stringIcNS_11char_traitsIcEENS_9allocatorIcEEEEEES9_EEvT_T0_, symObjAddr: 0x153A0, symBinAddr: 0x10001C734, symSize: 0x50 }
  - { offsetInCU: 0x1E00E, offset: 0x3BB78, size: 0x8, addend: 0x0, symName: __ZNSt3__14swapB8ue170006IcNS_11char_traitsIcEENS_9allocatorIcEEEEvRNS_12basic_stringIT_T0_T1_EESA_, symObjAddr: 0x153F0, symBinAddr: 0x10001C784, symSize: 0x2C }
  - { offsetInCU: 0x1E062, offset: 0x3BBCC, size: 0x8, addend: 0x0, symName: __ZNSt3__14swapB8ue170006INS_12basic_stringIcNS_11char_traitsIcEENS_9allocatorIcEEE5__repEEENS_9enable_ifIXaasr21is_move_constructibleIT_EE5valuesr18is_move_assignableIS9_EE5valueEvE4typeERS9_SC_, symObjAddr: 0x15480, symBinAddr: 0x10001C814, symSize: 0x54 }
  - { offsetInCU: 0x1E0B3, offset: 0x3BC1D, size: 0x8, addend: 0x0, symName: __ZNSt3__116__swap_allocatorB8ue170006INS_9allocatorIcEEEEvRT_S4_, symObjAddr: 0x154D4, symBinAddr: 0x10001C868, symSize: 0x2C }
  - { offsetInCU: 0x1E0F3, offset: 0x3BC5D, size: 0x8, addend: 0x0, symName: __ZNSt3__116__swap_allocatorB8ue170006INS_9allocatorIcEEEEvRT_S4_NS_17integral_constantIbLb0EEE, symObjAddr: 0x15524, symBinAddr: 0x10001C8B8, symSize: 0x14 }
  - { offsetInCU: 0x1E137, offset: 0x3BCA1, size: 0x8, addend: 0x0, symName: __ZNSt3__19push_heapB8ue170006INS_11__wrap_iterIPNS_4pairIdNS_12basic_stringIcNS_11char_traitsIcEENS_9allocatorIcEEEEEEEENS_7greaterIS9_EEEEvT_SE_T0_, symObjAddr: 0x167C0, symBinAddr: 0x10001D448, symSize: 0x40 }
  - { offsetInCU: 0x1E18E, offset: 0x3BCF8, size: 0x8, addend: 0x0, symName: __ZNSt3__119__allocate_at_leastB8ue170006INS_9allocatorINS_4pairIdNS_12basic_stringIcNS_11char_traitsIcEENS1_IcEEEEEEEEEENS_19__allocation_resultINS_16allocator_traitsIT_E7pointerEEERSC_m, symObjAddr: 0x1702C, symBinAddr: 0x10001DCB4, symSize: 0x40 }
  - { offsetInCU: 0x1E1D1, offset: 0x3BD3B, size: 0x8, addend: 0x0, symName: __ZNSt3__142__uninitialized_allocator_move_if_noexceptB8ue170006INS_9allocatorINS_4pairIdNS_12basic_stringIcNS_11char_traitsIcEENS1_IcEEEEEEEENS_16reverse_iteratorIPS8_EESC_SC_EET2_RT_T0_T1_SD_, symObjAddr: 0x171E0, symBinAddr: 0x10001DE68, symSize: 0x12C }
  - { offsetInCU: 0x1E271, offset: 0x3BDDB, size: 0x8, addend: 0x0, symName: __ZNSt3__14swapB8ue170006IPNS_4pairIdNS_12basic_stringIcNS_11char_traitsIcEENS_9allocatorIcEEEEEEEENS_9enable_ifIXaasr21is_move_constructibleIT_EE5valuesr18is_move_assignableISB_EE5valueEvE4typeERSB_SE_, symObjAddr: 0x17358, symBinAddr: 0x10001DFE0, symSize: 0x3C }
  - { offsetInCU: 0x1E2C2, offset: 0x3BE2C, size: 0x8, addend: 0x0, symName: __ZNSt3__122__make_exception_guardB8ue170006INS_29_AllocatorDestroyRangeReverseINS_9allocatorINS_4pairIdNS_12basic_stringIcNS_11char_traitsIcEENS2_IcEEEEEEEENS_16reverse_iteratorIPS9_EEEEEENS_28__exception_guard_exceptionsIT_EESG_, symObjAddr: 0x17440, symBinAddr: 0x10001E0C8, symSize: 0x4C }
  - { offsetInCU: 0x1E2F8, offset: 0x3BE62, size: 0x8, addend: 0x0, symName: __ZNSt3__1neB8ue170006IPNS_4pairIdNS_12basic_stringIcNS_11char_traitsIcEENS_9allocatorIcEEEEEES9_EEbRKNS_16reverse_iteratorIT_EERKNSA_IT0_EE, symObjAddr: 0x174D0, symBinAddr: 0x10001E158, symSize: 0x48 }
  - { offsetInCU: 0x1E344, offset: 0x3BEAE, size: 0x8, addend: 0x0, symName: __ZNSt3__112__to_addressB8ue170006INS_16reverse_iteratorIPNS_4pairIdNS_12basic_stringIcNS_11char_traitsIcEENS_9allocatorIcEEEEEEEEvEEu7__decayIDTclsr19__to_address_helperIT_EE6__callclsr3stdE7declvalIRKSC_EEEEESE_, symObjAddr: 0x17518, symBinAddr: 0x10001E1A0, symSize: 0x24 }
  - { offsetInCU: 0x1E3A3, offset: 0x3BF0D, size: 0x8, addend: 0x0, symName: __ZNSt3__119__allocator_destroyB8ue170006INS_9allocatorINS_4pairIdNS_12basic_stringIcNS_11char_traitsIcEENS1_IcEEEEEEEENS_16reverse_iteratorINSA_IPS8_EEEESD_EEvRT_T0_T1_, symObjAddr: 0x177C8, symBinAddr: 0x10001E450, symSize: 0x70 }
  - { offsetInCU: 0x1E408, offset: 0x3BF72, size: 0x8, addend: 0x0, symName: __ZNSt3__1neB8ue170006INS_16reverse_iteratorIPNS_4pairIdNS_12basic_stringIcNS_11char_traitsIcEENS_9allocatorIcEEEEEEEESB_EEbRKNS1_IT_EERKNS1_IT0_EE, symObjAddr: 0x17874, symBinAddr: 0x10001E4FC, symSize: 0x60 }
  - { offsetInCU: 0x1E454, offset: 0x3BFBE, size: 0x8, addend: 0x0, symName: __ZNSt3__112__to_addressB8ue170006INS_16reverse_iteratorINS1_IPNS_4pairIdNS_12basic_stringIcNS_11char_traitsIcEENS_9allocatorIcEEEEEEEEEEvEEu7__decayIDTclsr19__to_address_helperIT_EE6__callclsr3stdE7declvalIRKSD_EEEEESF_, symObjAddr: 0x178D4, symBinAddr: 0x10001E55C, symSize: 0x24 }
  - { offsetInCU: 0x1E4B3, offset: 0x3C01D, size: 0x8, addend: 0x0, symName: __ZNSt3__111__push_heapB8ue170006INS_17_ClassicAlgPolicyENS_11__wrap_iterIPNS_4pairIdNS_12basic_stringIcNS_11char_traitsIcEENS_9allocatorIcEEEEEEEENS_7greaterISA_EEEEvT0_SF_RT1_, symObjAddr: 0x17C3C, symBinAddr: 0x10001E8C4, symSize: 0x5C }
  - { offsetInCU: 0x1E521, offset: 0x3C08B, size: 0x8, addend: 0x0, symName: __ZNSt3__1miB8ue170006IPNS_4pairIdNS_12basic_stringIcNS_11char_traitsIcEENS_9allocatorIcEEEEEES9_EEDTmicldtfp_4baseEcldtfp0_4baseEERKNS_11__wrap_iterIT_EERKNSB_IT0_EE, symObjAddr: 0x17C98, symBinAddr: 0x10001E920, symSize: 0x48 }
  - { offsetInCU: 0x1E56D, offset: 0x3C0D7, size: 0x8, addend: 0x0, symName: __ZNSt3__19__sift_upB8ue170006INS_17_ClassicAlgPolicyERNS_7greaterINS_4pairIdNS_12basic_stringIcNS_11char_traitsIcEENS_9allocatorIcEEEEEEEENS_11__wrap_iterIPSA_EEEEvT1_SG_OT0_NS_15iterator_traitsISG_E15difference_typeE, symObjAddr: 0x17CE0, symBinAddr: 0x10001E968, symSize: 0x19C }
  - { offsetInCU: 0x1E633, offset: 0x3C19D, size: 0x8, addend: 0x0, symName: __ZNSt3__1gtB8ue170006IdNS_12basic_stringIcNS_11char_traitsIcEENS_9allocatorIcEEEEdS6_EEbRKNS_4pairIT_T0_EERKNS7_IT1_T2_EE, symObjAddr: 0x17FD4, symBinAddr: 0x10001EC5C, symSize: 0x30 }
  - { offsetInCU: 0x1E694, offset: 0x3C1FE, size: 0x8, addend: 0x0, symName: __ZNSt3__1ltB8ue170006IdNS_12basic_stringIcNS_11char_traitsIcEENS_9allocatorIcEEEEdS6_EEbRKNS_4pairIT_T0_EERKNS7_IT1_T2_EE, symObjAddr: 0x18004, symBinAddr: 0x10001EC8C, symSize: 0xA0 }
  - { offsetInCU: 0x1E6F5, offset: 0x3C25F, size: 0x8, addend: 0x0, symName: __ZNSt3__1ltB8ue170006IcNS_11char_traitsIcEENS_9allocatorIcEEEEbRKNS_12basic_stringIT_T0_T1_EESB_, symObjAddr: 0x180A4, symBinAddr: 0x10001ED2C, symSize: 0x38 }
  - { offsetInCU: 0x1E74D, offset: 0x3C2B7, size: 0x8, addend: 0x0, symName: __ZNSt3__18pop_heapB8ue170006INS_11__wrap_iterIPNS_4pairIdNS_12basic_stringIcNS_11char_traitsIcEENS_9allocatorIcEEEEEEEENS_7greaterIS9_EEEEvT_SE_T0_, symObjAddr: 0x18650, symBinAddr: 0x10001F2D8, symSize: 0x58 }
  - { offsetInCU: 0x1E7B2, offset: 0x3C31C, size: 0x8, addend: 0x0, symName: __ZNSt3__110__pop_heapB8ue170006INS_17_ClassicAlgPolicyENS_7greaterINS_4pairIdNS_12basic_stringIcNS_11char_traitsIcEENS_9allocatorIcEEEEEEEENS_11__wrap_iterIPSA_EEEEvT1_SF_RT0_NS_15iterator_traitsISF_E15difference_typeE, symObjAddr: 0x186D4, symBinAddr: 0x10001F35C, symSize: 0x164 }
  - { offsetInCU: 0x1E85D, offset: 0x3C3C7, size: 0x8, addend: 0x0, symName: __ZNSt3__1eqB8ue170006IPNS_4pairIdNS_12basic_stringIcNS_11char_traitsIcEENS_9allocatorIcEEEEEEEEbRKNS_11__wrap_iterIT_EESE_, symObjAddr: 0x18980, symBinAddr: 0x10001F608, symSize: 0x48 }
  - { offsetInCU: 0x1E8BF, offset: 0x3C429, size: 0x8, addend: 0x0, symName: __ZNSt3__119__allocate_at_leastB8ue170006INS_9allocatorINS_5tupleIJNS_12basic_stringIcNS_11char_traitsIcEENS1_IcEEEES7_dEEEEEEENS_19__allocation_resultINS_16allocator_traitsIT_E7pointerEEERSC_m, symObjAddr: 0x195B4, symBinAddr: 0x10002023C, symSize: 0x40 }
  - { offsetInCU: 0x1E902, offset: 0x3C46C, size: 0x8, addend: 0x0, symName: __ZNSt3__142__uninitialized_allocator_move_if_noexceptB8ue170006INS_9allocatorINS_5tupleIJNS_12basic_stringIcNS_11char_traitsIcEENS1_IcEEEES7_dEEEEENS_16reverse_iteratorIPS8_EESC_SC_EET2_RT_T0_T1_SD_, symObjAddr: 0x1976C, symBinAddr: 0x1000203F4, symSize: 0x12C }
  - { offsetInCU: 0x1E9A2, offset: 0x3C50C, size: 0x8, addend: 0x0, symName: __ZNSt3__14swapB8ue170006IPNS_5tupleIJNS_12basic_stringIcNS_11char_traitsIcEENS_9allocatorIcEEEES7_dEEEEENS_9enable_ifIXaasr21is_move_constructibleIT_EE5valuesr18is_move_assignableISB_EE5valueEvE4typeERSB_SE_, symObjAddr: 0x198E4, symBinAddr: 0x10002056C, symSize: 0x3C }
  - { offsetInCU: 0x1E9F3, offset: 0x3C55D, size: 0x8, addend: 0x0, symName: __ZNSt3__122__make_exception_guardB8ue170006INS_29_AllocatorDestroyRangeReverseINS_9allocatorINS_5tupleIJNS_12basic_stringIcNS_11char_traitsIcEENS2_IcEEEES8_dEEEEENS_16reverse_iteratorIPS9_EEEEEENS_28__exception_guard_exceptionsIT_EESG_, symObjAddr: 0x199E8, symBinAddr: 0x100020670, symSize: 0x4C }
  - { offsetInCU: 0x1EA29, offset: 0x3C593, size: 0x8, addend: 0x0, symName: __ZNSt3__1neB8ue170006IPNS_5tupleIJNS_12basic_stringIcNS_11char_traitsIcEENS_9allocatorIcEEEES7_dEEES9_EEbRKNS_16reverse_iteratorIT_EERKNSA_IT0_EE, symObjAddr: 0x19A78, symBinAddr: 0x100020700, symSize: 0x48 }
  - { offsetInCU: 0x1EA75, offset: 0x3C5DF, size: 0x8, addend: 0x0, symName: __ZNSt3__112__to_addressB8ue170006INS_16reverse_iteratorIPNS_5tupleIJNS_12basic_stringIcNS_11char_traitsIcEENS_9allocatorIcEEEES8_dEEEEEvEEu7__decayIDTclsr19__to_address_helperIT_EE6__callclsr3stdE7declvalIRKSC_EEEEESE_, symObjAddr: 0x19AF4, symBinAddr: 0x10002077C, symSize: 0x24 }
  - { offsetInCU: 0x1EAD4, offset: 0x3C63E, size: 0x8, addend: 0x0, symName: __ZNSt3__119__allocator_destroyB8ue170006INS_9allocatorINS_5tupleIJNS_12basic_stringIcNS_11char_traitsIcEENS1_IcEEEES7_dEEEEENS_16reverse_iteratorINSA_IPS8_EEEESD_EEvRT_T0_T1_, symObjAddr: 0x19F2C, symBinAddr: 0x100020BB4, symSize: 0x70 }
  - { offsetInCU: 0x1EB39, offset: 0x3C6A3, size: 0x8, addend: 0x0, symName: __ZNSt3__1neB8ue170006INS_16reverse_iteratorIPNS_5tupleIJNS_12basic_stringIcNS_11char_traitsIcEENS_9allocatorIcEEEES8_dEEEEESB_EEbRKNS1_IT_EERKNS1_IT0_EE, symObjAddr: 0x19FD8, symBinAddr: 0x100020C60, symSize: 0x60 }
  - { offsetInCU: 0x1EB85, offset: 0x3C6EF, size: 0x8, addend: 0x0, symName: __ZNSt3__112__to_addressB8ue170006INS_16reverse_iteratorINS1_IPNS_5tupleIJNS_12basic_stringIcNS_11char_traitsIcEENS_9allocatorIcEEEES8_dEEEEEEEvEEu7__decayIDTclsr19__to_address_helperIT_EE6__callclsr3stdE7declvalIRKSD_EEEEESF_, symObjAddr: 0x1A038, symBinAddr: 0x100020CC0, symSize: 0x24 }
  - { offsetInCU: 0x1EC03, offset: 0x3C76D, size: 0x8, addend: 0x0, symName: __ZNSt3__13getB8ue170006ILm0EJNS_12basic_stringIcNS_11char_traitsIcEENS_9allocatorIcEEEES6_iEEERNS_13tuple_elementIXT_ENS_5tupleIJDpT0_EEEE4typeERSB_, symObjAddr: 0x1A7BC, symBinAddr: 0x100021444, symSize: 0x24 }
  - { offsetInCU: 0x1EC4F, offset: 0x3C7B9, size: 0x8, addend: 0x0, symName: __ZNSt3__13getB8ue170006ILm1EJNS_12basic_stringIcNS_11char_traitsIcEENS_9allocatorIcEEEES6_iEEERNS_13tuple_elementIXT_ENS_5tupleIJDpT0_EEEE4typeERSB_, symObjAddr: 0x1A814, symBinAddr: 0x10002149C, symSize: 0x28 }
  - { offsetInCU: 0x1EC9B, offset: 0x3C805, size: 0x8, addend: 0x0, symName: __ZNSt3__13getB8ue170006ILm2EJNS_12basic_stringIcNS_11char_traitsIcEENS_9allocatorIcEEEES6_iEEERNS_13tuple_elementIXT_ENS_5tupleIJDpT0_EEEE4typeERSB_, symObjAddr: 0x1A870, symBinAddr: 0x1000214F8, symSize: 0x28 }
  - { offsetInCU: 0x1ECE7, offset: 0x3C851, size: 0x8, addend: 0x0, symName: __ZNSt3__19__reverseB8ue170006INS_17_ClassicAlgPolicyENS_11__wrap_iterIPNS_5tupleIJNS_12basic_stringIcNS_11char_traitsIcEENS_9allocatorIcEEEES9_dEEEEESC_EEvT0_T1_, symObjAddr: 0x1A988, symBinAddr: 0x10002158C, symSize: 0x3C }
  - { offsetInCU: 0x1ED39, offset: 0x3C8A3, size: 0x8, addend: 0x0, symName: __ZNSt3__114__reverse_implB8ue170006INS_17_ClassicAlgPolicyENS_11__wrap_iterIPNS_5tupleIJNS_12basic_stringIcNS_11char_traitsIcEENS_9allocatorIcEEEES9_dEEEEEEEvT0_SD_NS_26random_access_iterator_tagE, symObjAddr: 0x1A9C4, symBinAddr: 0x1000215C8, symSize: 0x7C }
  - { offsetInCU: 0x1ED8D, offset: 0x3C8F7, size: 0x8, addend: 0x0, symName: __ZNSt3__1ltB8ue170006IPNS_5tupleIJNS_12basic_stringIcNS_11char_traitsIcEENS_9allocatorIcEEEES7_dEEEEEbRKNS_11__wrap_iterIT_EESE_, symObjAddr: 0x1AA74, symBinAddr: 0x100021644, symSize: 0x48 }
  - { offsetInCU: 0x1EDD0, offset: 0x3C93A, size: 0x8, addend: 0x0, symName: __ZNSt3__19iter_swapB8ue170006INS_11__wrap_iterIPNS_5tupleIJNS_12basic_stringIcNS_11char_traitsIcEENS_9allocatorIcEEEES8_dEEEEESB_EEvT_T0_, symObjAddr: 0x1ABA0, symBinAddr: 0x1000216F0, symSize: 0x50 }
  - { offsetInCU: 0x1EE19, offset: 0x3C983, size: 0x8, addend: 0x0, symName: __ZNSt3__14swapB8ue170006IJNS_12basic_stringIcNS_11char_traitsIcEENS_9allocatorIcEEEES6_dEEENS_9enable_ifIXsr5__allIXspsr14__is_swappableIT_EE5valueEEE5valueEvE4typeERNS_5tupleIJDpS8_EEESE_, symObjAddr: 0x1ABF0, symBinAddr: 0x100021740, symSize: 0x2C }
  - { offsetInCU: 0x1EE6B, offset: 0x3C9D5, size: 0x8, addend: 0x0, symName: __ZNSt3__19__swallowB8ue170006IJiiiEEEvDpOT_, symObjAddr: 0x1ACE8, symBinAddr: 0x100021820, symSize: 0x18 }
  - { offsetInCU: 0x1EEBD, offset: 0x3CA27, size: 0x8, addend: 0x0, symName: __ZNSt3__14swapB8ue170006ILm0ENS_12basic_stringIcNS_11char_traitsIcEENS_9allocatorIcEEEELb0EEEvRNS_12__tuple_leafIXT_ET0_XT1_EEESA_, symObjAddr: 0x1AD90, symBinAddr: 0x1000218C8, symSize: 0x40 }
  - { offsetInCU: 0x1EF13, offset: 0x3CA7D, size: 0x8, addend: 0x0, symName: __ZNSt3__14swapB8ue170006ILm1ENS_12basic_stringIcNS_11char_traitsIcEENS_9allocatorIcEEEELb0EEEvRNS_12__tuple_leafIXT_ET0_XT1_EEESA_, symObjAddr: 0x1ADD0, symBinAddr: 0x100021908, symSize: 0x40 }
  - { offsetInCU: 0x1EF69, offset: 0x3CAD3, size: 0x8, addend: 0x0, symName: __ZNSt3__14swapB8ue170006ILm2EdLb0EEEvRNS_12__tuple_leafIXT_ET0_XT1_EEES4_, symObjAddr: 0x1AE10, symBinAddr: 0x100021948, symSize: 0x40 }
  - { offsetInCU: 0x1EFBF, offset: 0x3CB29, size: 0x8, addend: 0x0, symName: __ZNSt3__14swapB8ue170006IdEENS_9enable_ifIXaasr21is_move_constructibleIT_EE5valuesr18is_move_assignableIS2_EE5valueEvE4typeERS2_S5_, symObjAddr: 0x1AE50, symBinAddr: 0x100021988, symSize: 0x3C }
  - { offsetInCU: 0x1F094, offset: 0x3CBFE, size: 0x8, addend: 0x0, symName: __ZNSt3__119__allocate_at_leastB8ue170006INS_9allocatorINS_6vectorINS_12basic_stringIcNS_11char_traitsIcEENS1_IcEEEENS1_IS7_EEEEEEEENS_19__allocation_resultINS_16allocator_traitsIT_E7pointerEEERSD_m, symObjAddr: 0x1DF78, symBinAddr: 0x1000245B0, symSize: 0x40 }
  - { offsetInCU: 0x1F0D7, offset: 0x3CC41, size: 0x8, addend: 0x0, symName: __ZNSt3__142__uninitialized_allocator_move_if_noexceptB8ue170006INS_9allocatorINS_6vectorINS_12basic_stringIcNS_11char_traitsIcEENS1_IcEEEENS1_IS7_EEEEEENS_16reverse_iteratorIPS9_EESD_SD_EET2_RT_T0_T1_SE_, symObjAddr: 0x1E130, symBinAddr: 0x100024768, symSize: 0x12C }
  - { offsetInCU: 0x1F177, offset: 0x3CCE1, size: 0x8, addend: 0x0, symName: __ZNSt3__14swapB8ue170006IPNS_6vectorINS_12basic_stringIcNS_11char_traitsIcEENS_9allocatorIcEEEENS5_IS7_EEEEEENS_9enable_ifIXaasr21is_move_constructibleIT_EE5valuesr18is_move_assignableISC_EE5valueEvE4typeERSC_SF_, symObjAddr: 0x1E2A8, symBinAddr: 0x1000248E0, symSize: 0x3C }
  - { offsetInCU: 0x1F1C8, offset: 0x3CD32, size: 0x8, addend: 0x0, symName: __ZNSt3__122__make_exception_guardB8ue170006INS_29_AllocatorDestroyRangeReverseINS_9allocatorINS_6vectorINS_12basic_stringIcNS_11char_traitsIcEENS2_IcEEEENS2_IS8_EEEEEENS_16reverse_iteratorIPSA_EEEEEENS_28__exception_guard_exceptionsIT_EESH_, symObjAddr: 0x1E3AC, symBinAddr: 0x1000249E4, symSize: 0x4C }
  - { offsetInCU: 0x1F1FE, offset: 0x3CD68, size: 0x8, addend: 0x0, symName: __ZNSt3__1neB8ue170006IPNS_6vectorINS_12basic_stringIcNS_11char_traitsIcEENS_9allocatorIcEEEENS5_IS7_EEEESA_EEbRKNS_16reverse_iteratorIT_EERKNSB_IT0_EE, symObjAddr: 0x1E43C, symBinAddr: 0x100024A74, symSize: 0x48 }
  - { offsetInCU: 0x1F24A, offset: 0x3CDB4, size: 0x8, addend: 0x0, symName: __ZNSt3__112__to_addressB8ue170006INS_16reverse_iteratorIPNS_6vectorINS_12basic_stringIcNS_11char_traitsIcEENS_9allocatorIcEEEENS6_IS8_EEEEEEvEEu7__decayIDTclsr19__to_address_helperIT_EE6__callclsr3stdE7declvalIRKSD_EEEEESF_, symObjAddr: 0x1E4B8, symBinAddr: 0x100024AF0, symSize: 0x24 }
  - { offsetInCU: 0x1F2A9, offset: 0x3CE13, size: 0x8, addend: 0x0, symName: __ZNSt3__119__allocator_destroyB8ue170006INS_9allocatorINS_6vectorINS_12basic_stringIcNS_11char_traitsIcEENS1_IcEEEENS1_IS7_EEEEEENS_16reverse_iteratorINSB_IPS9_EEEESE_EEvRT_T0_T1_, symObjAddr: 0x1E798, symBinAddr: 0x100024DD0, symSize: 0x70 }
  - { offsetInCU: 0x1F30E, offset: 0x3CE78, size: 0x8, addend: 0x0, symName: __ZNSt3__1neB8ue170006INS_16reverse_iteratorIPNS_6vectorINS_12basic_stringIcNS_11char_traitsIcEENS_9allocatorIcEEEENS6_IS8_EEEEEESC_EEbRKNS1_IT_EERKNS1_IT0_EE, symObjAddr: 0x1E844, symBinAddr: 0x100024E7C, symSize: 0x60 }
  - { offsetInCU: 0x1F35A, offset: 0x3CEC4, size: 0x8, addend: 0x0, symName: __ZNSt3__112__to_addressB8ue170006INS_16reverse_iteratorINS1_IPNS_6vectorINS_12basic_stringIcNS_11char_traitsIcEENS_9allocatorIcEEEENS6_IS8_EEEEEEEEvEEu7__decayIDTclsr19__to_address_helperIT_EE6__callclsr3stdE7declvalIRKSE_EEEEESG_, symObjAddr: 0x1E8A4, symBinAddr: 0x100024EDC, symSize: 0x24 }
  - { offsetInCU: 0x1F3B9, offset: 0x3CF23, size: 0x8, addend: 0x0, symName: __ZNSt3__13maxB8ue170006IdNS_6__lessIvvEEEERKT_S5_S5_T0_, symObjAddr: 0x1EC0C, symBinAddr: 0x100025244, symSize: 0x54 }
  - { offsetInCU: 0x204BD, offset: 0x3E027, size: 0x8, addend: 0x0, symName: __ZNSt3__16vectorINS_12basic_stringIcNS_11char_traitsIcEENS_9allocatorIcEEEENS4_IS6_EEE26__swap_out_circular_bufferERNS_14__split_bufferIS6_RS7_EE, symObjAddr: 0x7AD4, symBinAddr: 0x100012534, symSize: 0x110 }
  - { offsetInCU: 0x20DEC, offset: 0x3E956, size: 0x8, addend: 0x0, symName: __ZNSt3__16vectorINS_4pairIdNS_12basic_stringIcNS_11char_traitsIcEENS_9allocatorIcEEEEEENS5_IS8_EEE26__swap_out_circular_bufferERNS_14__split_bufferIS8_RS9_EE, symObjAddr: 0x16CCC, symBinAddr: 0x10001D954, symSize: 0x110 }
  - { offsetInCU: 0x20E7D, offset: 0x3E9E7, size: 0x8, addend: 0x0, symName: __ZNSt3__16vectorINS_5tupleIJNS_12basic_stringIcNS_11char_traitsIcEENS_9allocatorIcEEEES7_dEEENS5_IS8_EEE26__swap_out_circular_bufferERNS_14__split_bufferIS8_RS9_EE, symObjAddr: 0x1923C, symBinAddr: 0x10001FEC4, symSize: 0x110 }
  - { offsetInCU: 0x21478, offset: 0x3EFE2, size: 0x8, addend: 0x0, symName: __ZNSt3__16vectorINS0_INS_12basic_stringIcNS_11char_traitsIcEENS_9allocatorIcEEEENS4_IS6_EEEENS4_IS8_EEE26__swap_out_circular_bufferERNS_14__split_bufferIS8_RS9_EE, symObjAddr: 0x1DC08, symBinAddr: 0x100024240, symSize: 0x110 }
  - { offsetInCU: 0x2370F, offset: 0x41279, size: 0x8, addend: 0x0, symName: __ZN5GraphC2ERKPKc, symObjAddr: 0x0, symBinAddr: 0x10000C0F0, symSize: 0x3A8 }
  - { offsetInCU: 0x237BF, offset: 0x41329, size: 0x8, addend: 0x0, symName: __ZNSt3__113unordered_mapINS_12basic_stringIcNS_11char_traitsIcEENS_9allocatorIcEEEENS0_IS6_dNS_4hashIS6_EENS_8equal_toIS6_EENS4_INS_4pairIKS6_dEEEEEES8_SA_NS4_INSB_ISC_SF_EEEEEC1B8ue170006Ev, symObjAddr: 0x3A8, symBinAddr: 0x10000C498, symSize: 0x2C }
  - { offsetInCU: 0x237E8, offset: 0x41352, size: 0x8, addend: 0x0, symName: __ZNSt3__16vectorINS_12basic_stringIcNS_11char_traitsIcEENS_9allocatorIcEEEENS4_IS6_EEEC1B8ue170006Ev, symObjAddr: 0x3D4, symBinAddr: 0x10000C4C4, symSize: 0x2C }
  - { offsetInCU: 0x23938, offset: 0x414A2, size: 0x8, addend: 0x0, symName: __ZNSt3__114basic_ifstreamIcNS_11char_traitsIcEEEC1EPKcj, symObjAddr: 0x400, symBinAddr: 0x10000C4F0, symSize: 0x16C }
  - { offsetInCU: 0x23981, offset: 0x414EB, size: 0x8, addend: 0x0, symName: __ZNSt3__112basic_stringIcNS_11char_traitsIcEENS_9allocatorIcEEEC1B8ue170006Ev, symObjAddr: 0x56C, symBinAddr: 0x10000C65C, symSize: 0x2C }
  - { offsetInCU: 0x239AA, offset: 0x41514, size: 0x8, addend: 0x0, symName: __ZNKSt3__19basic_iosIcNS_11char_traitsIcEEEcvbB8ue170006Ev, symObjAddr: 0x5F4, symBinAddr: 0x10000C6E4, symSize: 0x2C }
  - { offsetInCU: 0x23A1F, offset: 0x41589, size: 0x8, addend: 0x0, symName: __ZNSt3__119basic_istringstreamIcNS_11char_traitsIcEENS_9allocatorIcEEEC1B8ue170006ERKNS_12basic_stringIcS2_S4_EEj, symObjAddr: 0x620, symBinAddr: 0x10000C710, symSize: 0xFC }
  - { offsetInCU: 0x23A66, offset: 0x415D0, size: 0x8, addend: 0x0, symName: __ZN5Graph19insertNodesToVectorENSt3__112basic_stringIcNS0_11char_traitsIcEENS0_9allocatorIcEEEES6_RNS0_6vectorIS6_NS4_IS6_EEEE, symObjAddr: 0x954, symBinAddr: 0x10000CA44, symSize: 0xFC }
  - { offsetInCU: 0x23AB9, offset: 0x41623, size: 0x8, addend: 0x0, symName: __ZN5Graph15insertToAdjListENSt3__112basic_stringIcNS0_11char_traitsIcEENS0_9allocatorIcEEEES6_dRNS0_13unordered_mapIS6_NS7_IS6_dNS0_4hashIS6_EENS0_8equal_toIS6_EENS4_INS0_4pairIKS6_dEEEEEES9_SB_NS4_INSC_ISD_SG_EEEEEE, symObjAddr: 0xA50, symBinAddr: 0x10000CB40, symSize: 0x144 }
  - { offsetInCU: 0x23BAD, offset: 0x41717, size: 0x8, addend: 0x0, symName: __ZNSt3__119basic_istringstreamIcNS_11char_traitsIcEENS_9allocatorIcEEED1Ev, symObjAddr: 0xB94, symBinAddr: 0x10000CC84, symSize: 0x40 }
  - { offsetInCU: 0x23BDE, offset: 0x41748, size: 0x8, addend: 0x0, symName: __ZNSt3__114basic_ifstreamIcNS_11char_traitsIcEEED1Ev, symObjAddr: 0xBD4, symBinAddr: 0x10000CCC4, symSize: 0x40 }
  - { offsetInCU: 0x23C0A, offset: 0x41774, size: 0x8, addend: 0x0, symName: __ZN5GraphC1ERKPKc, symObjAddr: 0xC6C, symBinAddr: 0x10000CD04, symSize: 0x34 }
  - { offsetInCU: 0x23C43, offset: 0x417AD, size: 0x8, addend: 0x0, symName: __ZN5Graph14nodeIsInVectorERNSt3__112basic_stringIcNS0_11char_traitsIcEENS0_9allocatorIcEEEERNS0_6vectorIS6_NS4_IS6_EEEE, symObjAddr: 0xCA0, symBinAddr: 0x10000CD38, symSize: 0xA8 }
  - { offsetInCU: 0x23CA2, offset: 0x4180C, size: 0x8, addend: 0x0, symName: __ZN5Graph18createDegreeVectorERNSt3__113unordered_mapINS0_12basic_stringIcNS0_11char_traitsIcEENS0_9allocatorIcEEEENS1_IS7_dNS0_4hashIS7_EENS0_8equal_toIS7_EENS5_INS0_4pairIKS7_dEEEEEES9_SB_NS5_INSC_ISD_SG_EEEEEERNS0_6vectorINSL_IS7_NS5_IS7_EEEENS5_ISN_EEEE, symObjAddr: 0xF5C, symBinAddr: 0x10000CDE0, symSize: 0xA4 }
  - { offsetInCU: 0x23D63, offset: 0x418CD, size: 0x8, addend: 0x0, symName: __ZNSt3__113unordered_mapINS_12basic_stringIcNS_11char_traitsIcEENS_9allocatorIcEEEENS0_IS6_dNS_4hashIS6_EENS_8equal_toIS6_EENS4_INS_4pairIKS6_dEEEEEES8_SA_NS4_INSB_ISC_SF_EEEEE5beginB8ue170006Ev, symObjAddr: 0x1000, symBinAddr: 0x10000CE84, symSize: 0x38 }
  - { offsetInCU: 0x23D88, offset: 0x418F2, size: 0x8, addend: 0x0, symName: __ZNSt3__113unordered_mapINS_12basic_stringIcNS_11char_traitsIcEENS_9allocatorIcEEEENS0_IS6_dNS_4hashIS6_EENS_8equal_toIS6_EENS4_INS_4pairIKS6_dEEEEEES8_SA_NS4_INSB_ISC_SF_EEEEE3endB8ue170006Ev, symObjAddr: 0x1038, symBinAddr: 0x10000CEBC, symSize: 0x38 }
  - { offsetInCU: 0x23DAD, offset: 0x41917, size: 0x8, addend: 0x0, symName: __ZNKSt3__119__hash_map_iteratorINS_15__hash_iteratorIPNS_11__hash_nodeINS_17__hash_value_typeINS_12basic_stringIcNS_11char_traitsIcEENS_9allocatorIcEEEENS_13unordered_mapIS9_dNS_4hashIS9_EENS_8equal_toIS9_EENS7_INS_4pairIKS9_dEEEEEEEEPvEEEEEdeB8ue170006Ev, symObjAddr: 0x10A0, symBinAddr: 0x10000CF24, symSize: 0x28 }
  - { offsetInCU: 0x23DD2, offset: 0x4193C, size: 0x8, addend: 0x0, symName: __ZNKSt3__113unordered_mapINS_12basic_stringIcNS_11char_traitsIcEENS_9allocatorIcEEEEdNS_4hashIS6_EENS_8equal_toIS6_EENS4_INS_4pairIKS6_dEEEEE4sizeB8ue170006Ev, symObjAddr: 0x10C8, symBinAddr: 0x10000CF4C, symSize: 0x24 }
  - { offsetInCU: 0x23DF7, offset: 0x41961, size: 0x8, addend: 0x0, symName: __ZNSt3__16vectorINS0_INS_12basic_stringIcNS_11char_traitsIcEENS_9allocatorIcEEEENS4_IS6_EEEENS4_IS8_EEEixB8ue170006Em, symObjAddr: 0x10EC, symBinAddr: 0x10000CF70, symSize: 0x2C }
  - { offsetInCU: 0x23E2D, offset: 0x41997, size: 0x8, addend: 0x0, symName: __ZNSt3__16vectorINS_12basic_stringIcNS_11char_traitsIcEENS_9allocatorIcEEEENS4_IS6_EEE9push_backB8ue170006ERKS6_, symObjAddr: 0x1118, symBinAddr: 0x10000CF9C, symSize: 0x6C }
  - { offsetInCU: 0x23E62, offset: 0x419CC, size: 0x8, addend: 0x0, symName: __ZNSt3__119__hash_map_iteratorINS_15__hash_iteratorIPNS_11__hash_nodeINS_17__hash_value_typeINS_12basic_stringIcNS_11char_traitsIcEENS_9allocatorIcEEEENS_13unordered_mapIS9_dNS_4hashIS9_EENS_8equal_toIS9_EENS7_INS_4pairIKS9_dEEEEEEEEPvEEEEEppB8ue170006Ev, symObjAddr: 0x1184, symBinAddr: 0x10000D008, symSize: 0x2C }
  - { offsetInCU: 0x23E87, offset: 0x419F1, size: 0x8, addend: 0x0, symName: __ZNKSt3__113unordered_mapINS_12basic_stringIcNS_11char_traitsIcEENS_9allocatorIcEEEENS0_IS6_dNS_4hashIS6_EENS_8equal_toIS6_EENS4_INS_4pairIKS6_dEEEEEES8_SA_NS4_INSB_ISC_SF_EEEEE5emptyB8ue170006Ev, symObjAddr: 0x120C, symBinAddr: 0x10000D068, symSize: 0x30 }
  - { offsetInCU: 0x23EAC, offset: 0x41A16, size: 0x8, addend: 0x0, symName: __ZNSt3__113unordered_mapINS_12basic_stringIcNS_11char_traitsIcEENS_9allocatorIcEEEENS0_IS6_dNS_4hashIS6_EENS_8equal_toIS6_EENS4_INS_4pairIKS6_dEEEEEES8_SA_NS4_INSB_ISC_SF_EEEEEixERSC_, symObjAddr: 0x123C, symBinAddr: 0x10000D098, symSize: 0x80 }
  - { offsetInCU: 0x23EE1, offset: 0x41A4B, size: 0x8, addend: 0x0, symName: __ZNSt3__113unordered_mapINS_12basic_stringIcNS_11char_traitsIcEENS_9allocatorIcEEEEdNS_4hashIS6_EENS_8equal_toIS6_EENS4_INS_4pairIKS6_dEEEEEixERSC_, symObjAddr: 0x12BC, symBinAddr: 0x10000D118, symSize: 0x80 }
  - { offsetInCU: 0x23F16, offset: 0x41A80, size: 0x8, addend: 0x0, symName: __ZN5Graph9num_nodesEv, symObjAddr: 0x133C, symBinAddr: 0x10000D198, symSize: 0x28 }
  - { offsetInCU: 0x23F3D, offset: 0x41AA7, size: 0x8, addend: 0x0, symName: __ZN5Graph5nodesEv, symObjAddr: 0x1364, symBinAddr: 0x10000D1C0, symSize: 0x3C }
  - { offsetInCU: 0x23F64, offset: 0x41ACE, size: 0x8, addend: 0x0, symName: __ZNSt3__16vectorINS_12basic_stringIcNS_11char_traitsIcEENS_9allocatorIcEEEENS4_IS6_EEEC1ERKS8_, symObjAddr: 0x13A0, symBinAddr: 0x10000D1FC, symSize: 0x34 }
  - { offsetInCU: 0x23F9E, offset: 0x41B08, size: 0x8, addend: 0x0, symName: __ZN5Graph9num_edgesEv, symObjAddr: 0x13D4, symBinAddr: 0x10000D230, symSize: 0xA4 }
  - { offsetInCU: 0x24026, offset: 0x41B90, size: 0x8, addend: 0x0, symName: __ZN5Graph13num_neighborsERKNSt3__112basic_stringIcNS0_11char_traitsIcEENS0_9allocatorIcEEEE, symObjAddr: 0x1478, symBinAddr: 0x10000D2D4, symSize: 0x9C }
  - { offsetInCU: 0x24069, offset: 0x41BD3, size: 0x8, addend: 0x0, symName: __ZNSt3__113unordered_mapINS_12basic_stringIcNS_11char_traitsIcEENS_9allocatorIcEEEENS0_IS6_dNS_4hashIS6_EENS_8equal_toIS6_EENS4_INS_4pairIKS6_dEEEEEES8_SA_NS4_INSB_ISC_SF_EEEEE4findB8ue170006ERSC_, symObjAddr: 0x1514, symBinAddr: 0x10000D370, symSize: 0x40 }
  - { offsetInCU: 0x2409D, offset: 0x41C07, size: 0x8, addend: 0x0, symName: __ZN5Graph11edge_weightERKNSt3__112basic_stringIcNS0_11char_traitsIcEENS0_9allocatorIcEEEES8_, symObjAddr: 0x1554, symBinAddr: 0x10000D3B0, symSize: 0xE0 }
  - { offsetInCU: 0x24119, offset: 0x41C83, size: 0x8, addend: 0x0, symName: __ZNKSt3__119__hash_map_iteratorINS_15__hash_iteratorIPNS_11__hash_nodeINS_17__hash_value_typeINS_12basic_stringIcNS_11char_traitsIcEENS_9allocatorIcEEEENS_13unordered_mapIS9_dNS_4hashIS9_EENS_8equal_toIS9_EENS7_INS_4pairIKS9_dEEEEEEEEPvEEEEEptB8ue170006Ev, symObjAddr: 0x1634, symBinAddr: 0x10000D490, symSize: 0x2C }
  - { offsetInCU: 0x2413E, offset: 0x41CA8, size: 0x8, addend: 0x0, symName: __ZNSt3__113unordered_mapINS_12basic_stringIcNS_11char_traitsIcEENS_9allocatorIcEEEEdNS_4hashIS6_EENS_8equal_toIS6_EENS4_INS_4pairIKS6_dEEEEE4findB8ue170006ERSC_, symObjAddr: 0x1660, symBinAddr: 0x10000D4BC, symSize: 0x40 }
  - { offsetInCU: 0x24172, offset: 0x41CDC, size: 0x8, addend: 0x0, symName: __ZNSt3__113unordered_mapINS_12basic_stringIcNS_11char_traitsIcEENS_9allocatorIcEEEEdNS_4hashIS6_EENS_8equal_toIS6_EENS4_INS_4pairIKS6_dEEEEE3endB8ue170006Ev, symObjAddr: 0x16D0, symBinAddr: 0x10000D52C, symSize: 0x38 }
  - { offsetInCU: 0x24197, offset: 0x41D01, size: 0x8, addend: 0x0, symName: __ZNKSt3__119__hash_map_iteratorINS_15__hash_iteratorIPNS_11__hash_nodeINS_17__hash_value_typeINS_12basic_stringIcNS_11char_traitsIcEENS_9allocatorIcEEEEdEEPvEEEEEptB8ue170006Ev, symObjAddr: 0x1708, symBinAddr: 0x10000D564, symSize: 0x2C }
  - { offsetInCU: 0x241BC, offset: 0x41D26, size: 0x8, addend: 0x0, symName: __ZN5Graph9neighborsERKNSt3__112basic_stringIcNS0_11char_traitsIcEENS0_9allocatorIcEEEE, symObjAddr: 0x1734, symBinAddr: 0x10000D590, symSize: 0x188 }
  - { offsetInCU: 0x24257, offset: 0x41DC1, size: 0x8, addend: 0x0, symName: __ZNSt3__113unordered_mapINS_12basic_stringIcNS_11char_traitsIcEENS_9allocatorIcEEEEdNS_4hashIS6_EENS_8equal_toIS6_EENS4_INS_4pairIKS6_dEEEEE5beginB8ue170006Ev, symObjAddr: 0x18BC, symBinAddr: 0x10000D718, symSize: 0x38 }
  - { offsetInCU: 0x2427C, offset: 0x41DE6, size: 0x8, addend: 0x0, symName: __ZNKSt3__119__hash_map_iteratorINS_15__hash_iteratorIPNS_11__hash_nodeINS_17__hash_value_typeINS_12basic_stringIcNS_11char_traitsIcEENS_9allocatorIcEEEEdEEPvEEEEEdeB8ue170006Ev, symObjAddr: 0x18F4, symBinAddr: 0x10000D750, symSize: 0x28 }
  - { offsetInCU: 0x242A1, offset: 0x41E0B, size: 0x8, addend: 0x0, symName: __ZNSt3__119__hash_map_iteratorINS_15__hash_iteratorIPNS_11__hash_nodeINS_17__hash_value_typeINS_12basic_stringIcNS_11char_traitsIcEENS_9allocatorIcEEEEdEEPvEEEEEppB8ue170006Ev, symObjAddr: 0x191C, symBinAddr: 0x10000D778, symSize: 0x2C }
  - { offsetInCU: 0x242C6, offset: 0x41E30, size: 0x8, addend: 0x0, symName: __ZN5Graph24shortest_path_unweightedERKNSt3__112basic_stringIcNS0_11char_traitsIcEENS0_9allocatorIcEEEES8_, symObjAddr: 0x1948, symBinAddr: 0x10000D7A4, symSize: 0x388 }
  - { offsetInCU: 0x2441F, offset: 0x41F89, size: 0x8, addend: 0x0, symName: __ZNSt3__113unordered_setINS_12basic_stringIcNS_11char_traitsIcEENS_9allocatorIcEEEENS_4hashIS6_EENS_8equal_toIS6_EENS4_IS6_EEEC1B8ue170006Ev, symObjAddr: 0x1CD0, symBinAddr: 0x10000DB2C, symSize: 0x2C }
  - { offsetInCU: 0x244CF, offset: 0x42039, size: 0x8, addend: 0x0, symName: __ZNSt3__113unordered_mapINS_12basic_stringIcNS_11char_traitsIcEENS_9allocatorIcEEEES6_NS_4hashIS6_EENS_8equal_toIS6_EENS4_INS_4pairIKS6_S6_EEEEEC1B8ue170006Ev, symObjAddr: 0x1CFC, symBinAddr: 0x10000DB58, symSize: 0x2C }
  - { offsetInCU: 0x24534, offset: 0x4209E, size: 0x8, addend: 0x0, symName: __ZNSt3__15queueINS_12basic_stringIcNS_11char_traitsIcEENS_9allocatorIcEEEENS_5dequeIS6_NS4_IS6_EEEEEC1B8ue170006Ev, symObjAddr: 0x1D28, symBinAddr: 0x10000DB84, symSize: 0x2C }
  - { offsetInCU: 0x2455D, offset: 0x420C7, size: 0x8, addend: 0x0, symName: __ZNSt3__15queueINS_12basic_stringIcNS_11char_traitsIcEENS_9allocatorIcEEEENS_5dequeIS6_NS4_IS6_EEEEE4pushB8ue170006ERKS6_, symObjAddr: 0x1D54, symBinAddr: 0x10000DBB0, symSize: 0x2C }
  - { offsetInCU: 0x24591, offset: 0x420FB, size: 0x8, addend: 0x0, symName: __ZNSt3__113unordered_setINS_12basic_stringIcNS_11char_traitsIcEENS_9allocatorIcEEEENS_4hashIS6_EENS_8equal_toIS6_EENS4_IS6_EEE6insertB8ue170006ERKS6_, symObjAddr: 0x1D80, symBinAddr: 0x10000DBDC, symSize: 0x4C }
  - { offsetInCU: 0x245C5, offset: 0x4212F, size: 0x8, addend: 0x0, symName: __ZNKSt3__15queueINS_12basic_stringIcNS_11char_traitsIcEENS_9allocatorIcEEEENS_5dequeIS6_NS4_IS6_EEEEE5emptyB8ue170006Ev, symObjAddr: 0x1DCC, symBinAddr: 0x10000DC28, symSize: 0x28 }
  - { offsetInCU: 0x245EA, offset: 0x42154, size: 0x8, addend: 0x0, symName: __ZNSt3__15queueINS_12basic_stringIcNS_11char_traitsIcEENS_9allocatorIcEEEENS_5dequeIS6_NS4_IS6_EEEEE5frontB8ue170006Ev, symObjAddr: 0x1DF4, symBinAddr: 0x10000DC50, symSize: 0x24 }
  - { offsetInCU: 0x2460F, offset: 0x42179, size: 0x8, addend: 0x0, symName: __ZNSt3__15queueINS_12basic_stringIcNS_11char_traitsIcEENS_9allocatorIcEEEENS_5dequeIS6_NS4_IS6_EEEEE3popB8ue170006Ev, symObjAddr: 0x1E18, symBinAddr: 0x10000DC74, symSize: 0x24 }
  - { offsetInCU: 0x24634, offset: 0x4219E, size: 0x8, addend: 0x0, symName: __ZNSt3__113unordered_mapINS_12basic_stringIcNS_11char_traitsIcEENS_9allocatorIcEEEES6_NS_4hashIS6_EENS_8equal_toIS6_EENS4_INS_4pairIKS6_S6_EEEEEixERSC_, symObjAddr: 0x1E3C, symBinAddr: 0x10000DC98, symSize: 0x80 }
  - { offsetInCU: 0x24669, offset: 0x421D3, size: 0x8, addend: 0x0, symName: __ZNSt3__16vectorINS_12basic_stringIcNS_11char_traitsIcEENS_9allocatorIcEEEENS4_IS6_EEEC1B8ue170006EOS8_, symObjAddr: 0x1EF8, symBinAddr: 0x10000DD54, symSize: 0x34 }
  - { offsetInCU: 0x246A3, offset: 0x4220D, size: 0x8, addend: 0x0, symName: __ZNSt3__113unordered_setINS_12basic_stringIcNS_11char_traitsIcEENS_9allocatorIcEEEENS_4hashIS6_EENS_8equal_toIS6_EENS4_IS6_EEE4findB8ue170006ERKS6_, symObjAddr: 0x1F5C, symBinAddr: 0x10000DD88, symSize: 0x40 }
  - { offsetInCU: 0x246D7, offset: 0x42241, size: 0x8, addend: 0x0, symName: __ZNSt3__113unordered_setINS_12basic_stringIcNS_11char_traitsIcEENS_9allocatorIcEEEENS_4hashIS6_EENS_8equal_toIS6_EENS4_IS6_EEE3endB8ue170006Ev, symObjAddr: 0x1F9C, symBinAddr: 0x10000DDC8, symSize: 0x38 }
  - { offsetInCU: 0x246FC, offset: 0x42266, size: 0x8, addend: 0x0, symName: __ZNSt3__15queueINS_12basic_stringIcNS_11char_traitsIcEENS_9allocatorIcEEEENS_5dequeIS6_NS4_IS6_EEEEED1Ev, symObjAddr: 0x1FD4, symBinAddr: 0x10000DE00, symSize: 0x2C }
  - { offsetInCU: 0x24728, offset: 0x42292, size: 0x8, addend: 0x0, symName: __ZNSt3__113unordered_mapINS_12basic_stringIcNS_11char_traitsIcEENS_9allocatorIcEEEES6_NS_4hashIS6_EENS_8equal_toIS6_EENS4_INS_4pairIKS6_S6_EEEEED1B8ue170006Ev, symObjAddr: 0x2000, symBinAddr: 0x10000DE2C, symSize: 0x2C }
  - { offsetInCU: 0x24751, offset: 0x422BB, size: 0x8, addend: 0x0, symName: __ZN5Graph22shortest_path_weightedERKNSt3__112basic_stringIcNS0_11char_traitsIcEENS0_9allocatorIcEEEES8_, symObjAddr: 0x2058, symBinAddr: 0x10000DE58, symSize: 0x63C }
  - { offsetInCU: 0x248F9, offset: 0x42463, size: 0x8, addend: 0x0, symName: __ZNSt3__16vectorINS_5tupleIJNS_12basic_stringIcNS_11char_traitsIcEENS_9allocatorIcEEEES7_dEEENS5_IS8_EEEC1B8ue170006Ev, symObjAddr: 0x2694, symBinAddr: 0x10000E494, symSize: 0x2C }
  - { offsetInCU: 0x24972, offset: 0x424DC, size: 0x8, addend: 0x0, symName: __ZNSt3__114priority_queueINS_4pairIdNS_12basic_stringIcNS_11char_traitsIcEENS_9allocatorIcEEEEEENS_6vectorIS8_NS5_IS8_EEEENS_7greaterIS8_EEEC1B8ue170006Ev, symObjAddr: 0x26C0, symBinAddr: 0x10000E4C0, symSize: 0x2C }
  - { offsetInCU: 0x2499B, offset: 0x42505, size: 0x8, addend: 0x0, symName: __ZNSt3__113unordered_mapINS_12basic_stringIcNS_11char_traitsIcEENS_9allocatorIcEEEEdNS_4hashIS6_EENS_8equal_toIS6_EENS4_INS_4pairIKS6_dEEEEEC1B8ue170006Ev, symObjAddr: 0x26EC, symBinAddr: 0x10000E4EC, symSize: 0x2C }
  - { offsetInCU: 0x249C4, offset: 0x4252E, size: 0x8, addend: 0x0, symName: __ZNSt3__114numeric_limitsIdE3maxB8ue170006Ev, symObjAddr: 0x2718, symBinAddr: 0x10000E518, symSize: 0x14 }
  - { offsetInCU: 0x249D8, offset: 0x42542, size: 0x8, addend: 0x0, symName: __ZNSt3__114priority_queueINS_4pairIdNS_12basic_stringIcNS_11char_traitsIcEENS_9allocatorIcEEEEEENS_6vectorIS8_NS5_IS8_EEEENS_7greaterIS8_EEE4pushEOS8_, symObjAddr: 0x272C, symBinAddr: 0x10000E52C, symSize: 0x58 }
  - { offsetInCU: 0x24A12, offset: 0x4257C, size: 0x8, addend: 0x0, symName: __ZNSt3__14pairIdNS_12basic_stringIcNS_11char_traitsIcEENS_9allocatorIcEEEEEC1B8ue170006IdRKS6_LPv0EEEOT_OT0_, symObjAddr: 0x2784, symBinAddr: 0x10000E584, symSize: 0x3C }
  - { offsetInCU: 0x24A6F, offset: 0x425D9, size: 0x8, addend: 0x0, symName: __ZNSt3__14pairIdNS_12basic_stringIcNS_11char_traitsIcEENS_9allocatorIcEEEEED1Ev, symObjAddr: 0x27C0, symBinAddr: 0x10000E5C0, symSize: 0x2C }
  - { offsetInCU: 0x24A9A, offset: 0x42604, size: 0x8, addend: 0x0, symName: __ZNKSt3__114priority_queueINS_4pairIdNS_12basic_stringIcNS_11char_traitsIcEENS_9allocatorIcEEEEEENS_6vectorIS8_NS5_IS8_EEEENS_7greaterIS8_EEE5emptyB8ue170006Ev, symObjAddr: 0x27EC, symBinAddr: 0x10000E5EC, symSize: 0x28 }
  - { offsetInCU: 0x24ABF, offset: 0x42629, size: 0x8, addend: 0x0, symName: __ZNKSt3__114priority_queueINS_4pairIdNS_12basic_stringIcNS_11char_traitsIcEENS_9allocatorIcEEEEEENS_6vectorIS8_NS5_IS8_EEEENS_7greaterIS8_EEE3topB8ue170006Ev, symObjAddr: 0x2814, symBinAddr: 0x10000E614, symSize: 0x24 }
  - { offsetInCU: 0x24AE4, offset: 0x4264E, size: 0x8, addend: 0x0, symName: __ZNSt3__114priority_queueINS_4pairIdNS_12basic_stringIcNS_11char_traitsIcEENS_9allocatorIcEEEEEENS_6vectorIS8_NS5_IS8_EEEENS_7greaterIS8_EEE3popEv, symObjAddr: 0x2838, symBinAddr: 0x10000E638, symSize: 0x50 }
  - { offsetInCU: 0x24B0A, offset: 0x42674, size: 0x8, addend: 0x0, symName: __ZNSt3__16vectorINS_5tupleIJNS_12basic_stringIcNS_11char_traitsIcEENS_9allocatorIcEEEES7_dEEENS5_IS8_EEE9push_backB8ue170006ERKS8_, symObjAddr: 0x28D0, symBinAddr: 0x10000E6D0, symSize: 0x6C }
  - { offsetInCU: 0x24B3F, offset: 0x426A9, size: 0x8, addend: 0x0, symName: __ZNSt3__16vectorINS_5tupleIJNS_12basic_stringIcNS_11char_traitsIcEENS_9allocatorIcEEEES7_dEEENS5_IS8_EEE9push_backB8ue170006EOS8_, symObjAddr: 0x2968, symBinAddr: 0x10000E73C, symSize: 0x6C }
  - { offsetInCU: 0x24BCE, offset: 0x42738, size: 0x8, addend: 0x0, symName: __ZNSt3__15tupleIJNS_12basic_stringIcNS_11char_traitsIcEENS_9allocatorIcEEEES6_dEEC1B8ue170006IJS6_S6_iELi0EEEONS0_IJDpT_EEE, symObjAddr: 0x2A1C, symBinAddr: 0x10000E7F0, symSize: 0x34 }
  - { offsetInCU: 0x24C21, offset: 0x4278B, size: 0x8, addend: 0x0, symName: __ZNSt3__15tupleIJNS_12basic_stringIcNS_11char_traitsIcEENS_9allocatorIcEEEES6_iEED1Ev, symObjAddr: 0x2A50, symBinAddr: 0x10000E824, symSize: 0x2C }
  - { offsetInCU: 0x24C4D, offset: 0x427B7, size: 0x8, addend: 0x0, symName: __ZNSt3__14pairIdNS_12basic_stringIcNS_11char_traitsIcEENS_9allocatorIcEEEEEC1B8ue170006IRdRKS6_LPv0EEEOT_OT0_, symObjAddr: 0x2B18, symBinAddr: 0x10000E88C, symSize: 0x3C }
  - { offsetInCU: 0x24CAA, offset: 0x42814, size: 0x8, addend: 0x0, symName: __ZNSt3__114priority_queueINS_4pairIdNS_12basic_stringIcNS_11char_traitsIcEENS_9allocatorIcEEEEEENS_6vectorIS8_NS5_IS8_EEEENS_7greaterIS8_EEED1Ev, symObjAddr: 0x2B80, symBinAddr: 0x10000E8C8, symSize: 0x2C }
  - { offsetInCU: 0x24CD6, offset: 0x42840, size: 0x8, addend: 0x0, symName: __ZN5Graph3dfsERKNSt3__112basic_stringIcNS0_11char_traitsIcEENS0_9allocatorIcEEEEdRNS0_13unordered_mapIS6_bNS0_4hashIS6_EENS0_8equal_toIS6_EENS4_INS0_4pairIS7_bEEEEEERNS0_6vectorIS6_NS4_IS6_EEEE, symObjAddr: 0x2BD8, symBinAddr: 0x10000E8F4, symSize: 0x100 }
  - { offsetInCU: 0x24D88, offset: 0x428F2, size: 0x8, addend: 0x0, symName: __ZNSt3__113unordered_mapINS_12basic_stringIcNS_11char_traitsIcEENS_9allocatorIcEEEEbNS_4hashIS6_EENS_8equal_toIS6_EENS4_INS_4pairIKS6_bEEEEEixERSC_, symObjAddr: 0x2CD8, symBinAddr: 0x10000E9F4, symSize: 0x80 }
  - { offsetInCU: 0x24DBD, offset: 0x42927, size: 0x8, addend: 0x0, symName: __ZN5Graph20connected_componentsERKd, symObjAddr: 0x2D58, symBinAddr: 0x10000EA74, symSize: 0x204 }
  - { offsetInCU: 0x24ECB, offset: 0x42A35, size: 0x8, addend: 0x0, symName: __ZNSt3__16vectorINS0_INS_12basic_stringIcNS_11char_traitsIcEENS_9allocatorIcEEEENS4_IS6_EEEENS4_IS8_EEEC1B8ue170006Ev, symObjAddr: 0x2F5C, symBinAddr: 0x10000EC78, symSize: 0x2C }
  - { offsetInCU: 0x24EF4, offset: 0x42A5E, size: 0x8, addend: 0x0, symName: __ZNSt3__113unordered_mapINS_12basic_stringIcNS_11char_traitsIcEENS_9allocatorIcEEEEbNS_4hashIS6_EENS_8equal_toIS6_EENS4_INS_4pairIKS6_bEEEEEC1B8ue170006Ev, symObjAddr: 0x2F88, symBinAddr: 0x10000ECA4, symSize: 0x2C }
  - { offsetInCU: 0x24F1D, offset: 0x42A87, size: 0x8, addend: 0x0, symName: __ZNSt3__16vectorINS0_INS_12basic_stringIcNS_11char_traitsIcEENS_9allocatorIcEEEENS4_IS6_EEEENS4_IS8_EEE9push_backB8ue170006ERKS8_, symObjAddr: 0x2FB4, symBinAddr: 0x10000ECD0, symSize: 0x6C }
  - { offsetInCU: 0x24F52, offset: 0x42ABC, size: 0x8, addend: 0x0, symName: __ZNSt3__113unordered_mapINS_12basic_stringIcNS_11char_traitsIcEENS_9allocatorIcEEEEbNS_4hashIS6_EENS_8equal_toIS6_EENS4_INS_4pairIKS6_bEEEEED1B8ue170006Ev, symObjAddr: 0x3020, symBinAddr: 0x10000ED3C, symSize: 0x2C }
  - { offsetInCU: 0x24F7B, offset: 0x42AE5, size: 0x8, addend: 0x0, symName: __ZN5Graph29smallest_connecting_thresholdERKNSt3__112basic_stringIcNS0_11char_traitsIcEENS0_9allocatorIcEEEES8_, symObjAddr: 0x3078, symBinAddr: 0x10000ED68, symSize: 0x140 }
  - { offsetInCU: 0x24FE1, offset: 0x42B4B, size: 0x8, addend: 0x0, symName: __ZN5Graph8dijkstraERKNSt3__112basic_stringIcNS0_11char_traitsIcEENS0_9allocatorIcEEEERNS0_13unordered_mapIS6_dNS0_4hashIS6_EENS0_8equal_toIS6_EENS4_INS0_4pairIS7_dEEEEEE, symObjAddr: 0x31B8, symBinAddr: 0x10000EEA8, symSize: 0x4D0 }
  - { offsetInCU: 0x25163, offset: 0x42CCD, size: 0x8, addend: 0x0, symName: __ZNSt3__14pairIdNS_12basic_stringIcNS_11char_traitsIcEENS_9allocatorIcEEEEEC1B8ue170006IRdRS6_LPv0EEEOT_OT0_, symObjAddr: 0x36B4, symBinAddr: 0x10000F3A4, symSize: 0x3C }
  - { offsetInCU: 0x251C0, offset: 0x42D2A, size: 0x8, addend: 0x0, symName: __ZNSt3__119basic_istringstreamIcNS_11char_traitsIcEENS_9allocatorIcEEED2Ev, symObjAddr: 0x36F0, symBinAddr: 0x10000F3E0, symSize: 0x64 }
  - { offsetInCU: 0x251F8, offset: 0x42D62, size: 0x8, addend: 0x0, symName: __ZTv0_n24_NSt3__119basic_istringstreamIcNS_11char_traitsIcEENS_9allocatorIcEEED1Ev, symObjAddr: 0x3754, symBinAddr: 0x10000F444, symSize: 0x28 }
  - { offsetInCU: 0x25214, offset: 0x42D7E, size: 0x8, addend: 0x0, symName: __ZNSt3__115basic_stringbufIcNS_11char_traitsIcEENS_9allocatorIcEEED1Ev, symObjAddr: 0x377C, symBinAddr: 0x10000F46C, symSize: 0x2C }
  - { offsetInCU: 0x25240, offset: 0x42DAA, size: 0x8, addend: 0x0, symName: __ZNSt3__115basic_stringbufIcNS_11char_traitsIcEENS_9allocatorIcEEED2Ev, symObjAddr: 0x37A8, symBinAddr: 0x10000F498, symSize: 0x48 }
  - { offsetInCU: 0x2526C, offset: 0x42DD6, size: 0x8, addend: 0x0, symName: __ZNSt3__114basic_ifstreamIcNS_11char_traitsIcEEED2Ev, symObjAddr: 0x37F0, symBinAddr: 0x10000F4E0, symSize: 0x64 }
  - { offsetInCU: 0x252A4, offset: 0x42E0E, size: 0x8, addend: 0x0, symName: __ZTv0_n24_NSt3__114basic_ifstreamIcNS_11char_traitsIcEEED1Ev, symObjAddr: 0x3854, symBinAddr: 0x10000F544, symSize: 0x28 }
  - { offsetInCU: 0x252BB, offset: 0x42E25, size: 0x8, addend: 0x0, symName: __ZNSt3__15queueINS_12basic_stringIcNS_11char_traitsIcEENS_9allocatorIcEEEENS_5dequeIS6_NS4_IS6_EEEEED2Ev, symObjAddr: 0x38DC, symBinAddr: 0x10000F56C, symSize: 0x2C }
  - { offsetInCU: 0x252E7, offset: 0x42E51, size: 0x8, addend: 0x0, symName: __ZNSt3__15dequeINS_12basic_stringIcNS_11char_traitsIcEENS_9allocatorIcEEEENS4_IS6_EEED1B8ue170006Ev, symObjAddr: 0x3908, symBinAddr: 0x10000F598, symSize: 0x2C }
  - { offsetInCU: 0x25310, offset: 0x42E7A, size: 0x8, addend: 0x0, symName: __ZNSt3__15dequeINS_12basic_stringIcNS_11char_traitsIcEENS_9allocatorIcEEEENS4_IS6_EEED2B8ue170006Ev, symObjAddr: 0x3934, symBinAddr: 0x10000F5C4, symSize: 0xA4 }
  - { offsetInCU: 0x25366, offset: 0x42ED0, size: 0x8, addend: 0x0, symName: __ZNSt3__15dequeINS_12basic_stringIcNS_11char_traitsIcEENS_9allocatorIcEEEENS4_IS6_EEE5clearEv, symObjAddr: 0x39D8, symBinAddr: 0x10000F668, symSize: 0x194 }
  - { offsetInCU: 0x253BF, offset: 0x42F29, size: 0x8, addend: 0x0, symName: __ZNKSt3__15dequeINS_12basic_stringIcNS_11char_traitsIcEENS_9allocatorIcEEEENS4_IS6_EEE17__annotate_deleteB8ue170006Ev, symObjAddr: 0x3B6C, symBinAddr: 0x10000F7FC, symSize: 0xEC }
  - { offsetInCU: 0x25402, offset: 0x42F6C, size: 0x8, addend: 0x0, symName: __ZNSt3__114__split_bufferIPNS_12basic_stringIcNS_11char_traitsIcEENS_9allocatorIcEEEENS4_IS7_EEE5beginB8ue170006Ev, symObjAddr: 0x3C58, symBinAddr: 0x10000F8E8, symSize: 0x18 }
  - { offsetInCU: 0x25427, offset: 0x42F91, size: 0x8, addend: 0x0, symName: __ZNSt3__114__split_bufferIPNS_12basic_stringIcNS_11char_traitsIcEENS_9allocatorIcEEEENS4_IS7_EEE3endB8ue170006Ev, symObjAddr: 0x3C70, symBinAddr: 0x10000F900, symSize: 0x18 }
  - { offsetInCU: 0x2544C, offset: 0x42FB6, size: 0x8, addend: 0x0, symName: __ZNSt3__15dequeINS_12basic_stringIcNS_11char_traitsIcEENS_9allocatorIcEEEENS4_IS6_EEE7__allocB8ue170006Ev, symObjAddr: 0x3CBC, symBinAddr: 0x10000F918, symSize: 0x28 }
  - { offsetInCU: 0x25471, offset: 0x42FDB, size: 0x8, addend: 0x0, symName: __ZNSt3__114__split_bufferIPNS_12basic_stringIcNS_11char_traitsIcEENS_9allocatorIcEEEENS4_IS7_EEED1Ev, symObjAddr: 0x3CE4, symBinAddr: 0x10000F940, symSize: 0x2C }
  - { offsetInCU: 0x2549C, offset: 0x43006, size: 0x8, addend: 0x0, symName: __ZNSt3__15dequeINS_12basic_stringIcNS_11char_traitsIcEENS_9allocatorIcEEEENS4_IS6_EEE5beginB8ue170006Ev, symObjAddr: 0x3D10, symBinAddr: 0x10000F96C, symSize: 0xC0 }
  - { offsetInCU: 0x254D0, offset: 0x4303A, size: 0x8, addend: 0x0, symName: __ZNSt3__15dequeINS_12basic_stringIcNS_11char_traitsIcEENS_9allocatorIcEEEENS4_IS6_EEE3endB8ue170006Ev, symObjAddr: 0x3DD0, symBinAddr: 0x10000FA2C, symSize: 0xC4 }
  - { offsetInCU: 0x25513, offset: 0x4307D, size: 0x8, addend: 0x0, symName: __ZNKSt3__116__deque_iteratorINS_12basic_stringIcNS_11char_traitsIcEENS_9allocatorIcEEEEPS6_RS6_PS7_lLl170EEdeB8ue170006Ev, symObjAddr: 0x3F00, symBinAddr: 0x10000FB24, symSize: 0x18 }
  - { offsetInCU: 0x25538, offset: 0x430A2, size: 0x8, addend: 0x0, symName: __ZNSt3__116__deque_iteratorINS_12basic_stringIcNS_11char_traitsIcEENS_9allocatorIcEEEEPS6_RS6_PS7_lLl170EEppB8ue170006Ev, symObjAddr: 0x3F18, symBinAddr: 0x10000FB3C, symSize: 0x70 }
  - { offsetInCU: 0x2555D, offset: 0x430C7, size: 0x8, addend: 0x0, symName: __ZNSt3__15dequeINS_12basic_stringIcNS_11char_traitsIcEENS_9allocatorIcEEEENS4_IS6_EEE6__sizeB8ue170006Ev, symObjAddr: 0x3F88, symBinAddr: 0x10000FBAC, symSize: 0x28 }
  - { offsetInCU: 0x25582, offset: 0x430EC, size: 0x8, addend: 0x0, symName: __ZNKSt3__114__split_bufferIPNS_12basic_stringIcNS_11char_traitsIcEENS_9allocatorIcEEEENS4_IS7_EEE4sizeB8ue170006Ev, symObjAddr: 0x3FB0, symBinAddr: 0x10000FBD4, symSize: 0x28 }
  - { offsetInCU: 0x255A7, offset: 0x43111, size: 0x8, addend: 0x0, symName: __ZNSt3__114__split_bufferIPNS_12basic_stringIcNS_11char_traitsIcEENS_9allocatorIcEEEENS4_IS7_EEE5frontB8ue170006Ev, symObjAddr: 0x3FD8, symBinAddr: 0x10000FBFC, symSize: 0x18 }
  - { offsetInCU: 0x255CC, offset: 0x43136, size: 0x8, addend: 0x0, symName: __ZNSt3__114__split_bufferIPNS_12basic_stringIcNS_11char_traitsIcEENS_9allocatorIcEEEENS4_IS7_EEE9pop_frontB8ue170006Ev, symObjAddr: 0x3FF0, symBinAddr: 0x10000FC14, symSize: 0x2C }
  - { offsetInCU: 0x255F1, offset: 0x4315B, size: 0x8, addend: 0x0, symName: __ZNKSt3__15dequeINS_12basic_stringIcNS_11char_traitsIcEENS_9allocatorIcEEEENS4_IS6_EEE14__annotate_newB8ue170006Em, symObjAddr: 0x401C, symBinAddr: 0x10000FC40, symSize: 0xC0 }
  - { offsetInCU: 0x25625, offset: 0x4318F, size: 0x8, addend: 0x0, symName: __ZNKSt3__114__split_bufferIPNS_12basic_stringIcNS_11char_traitsIcEENS_9allocatorIcEEEENS4_IS7_EEE5emptyB8ue170006Ev, symObjAddr: 0x40DC, symBinAddr: 0x10000FD00, symSize: 0x28 }
  - { offsetInCU: 0x2564A, offset: 0x431B4, size: 0x8, addend: 0x0, symName: __ZNSt3__116__deque_iteratorINS_12basic_stringIcNS_11char_traitsIcEENS_9allocatorIcEEEEPS6_RS6_PS7_lLl170EEC1B8ue170006ES9_S7_, symObjAddr: 0x4104, symBinAddr: 0x10000FD28, symSize: 0x3C }
  - { offsetInCU: 0x25691, offset: 0x431FB, size: 0x8, addend: 0x0, symName: __ZNSt3__116__deque_iteratorINS_12basic_stringIcNS_11char_traitsIcEENS_9allocatorIcEEEEPS6_RS6_PS7_lLl170EEC2B8ue170006ES9_S7_, symObjAddr: 0x4140, symBinAddr: 0x10000FD64, symSize: 0x2C }
  - { offsetInCU: 0x256D8, offset: 0x43242, size: 0x8, addend: 0x0, symName: __ZNKSt3__15dequeINS_12basic_stringIcNS_11char_traitsIcEENS_9allocatorIcEEEENS4_IS6_EEE4sizeB8ue170006Ev, symObjAddr: 0x416C, symBinAddr: 0x10000FD90, symSize: 0x28 }
  - { offsetInCU: 0x256FD, offset: 0x43267, size: 0x8, addend: 0x0, symName: __ZNKSt3__15dequeINS_12basic_stringIcNS_11char_traitsIcEENS_9allocatorIcEEEENS4_IS6_EEE6__sizeB8ue170006Ev, symObjAddr: 0x4194, symBinAddr: 0x10000FDB8, symSize: 0x28 }
  - { offsetInCU: 0x25722, offset: 0x4328C, size: 0x8, addend: 0x0, symName: __ZNKSt3__117__compressed_pairImNS_9allocatorINS_12basic_stringIcNS_11char_traitsIcEENS1_IcEEEEEEE5firstB8ue170006Ev, symObjAddr: 0x41BC, symBinAddr: 0x10000FDE0, symSize: 0x24 }
  - { offsetInCU: 0x25747, offset: 0x432B1, size: 0x8, addend: 0x0, symName: __ZNSt3__117__compressed_pairImNS_9allocatorINS_12basic_stringIcNS_11char_traitsIcEENS1_IcEEEEEEE5firstB8ue170006Ev, symObjAddr: 0x424C, symBinAddr: 0x10000FE34, symSize: 0x24 }
  - { offsetInCU: 0x2576C, offset: 0x432D6, size: 0x8, addend: 0x0, symName: __ZNSt3__114__split_bufferIPNS_12basic_stringIcNS_11char_traitsIcEENS_9allocatorIcEEEENS4_IS7_EEE19__destruct_at_beginB8ue170006EPS7_, symObjAddr: 0x4284, symBinAddr: 0x10000FE58, symSize: 0x2C }
  - { offsetInCU: 0x2579F, offset: 0x43309, size: 0x8, addend: 0x0, symName: __ZNSt3__114__split_bufferIPNS_12basic_stringIcNS_11char_traitsIcEENS_9allocatorIcEEEENS4_IS7_EEE19__destruct_at_beginEPS7_NS_17integral_constantIbLb1EEE, symObjAddr: 0x42B0, symBinAddr: 0x10000FE84, symSize: 0x20 }
  - { offsetInCU: 0x257DF, offset: 0x43349, size: 0x8, addend: 0x0, symName: __ZNKSt3__15dequeINS_12basic_stringIcNS_11char_traitsIcEENS_9allocatorIcEEEENS4_IS6_EEE18__annotate_from_toB8ue170006EmmNS8_22__asan_annotation_typeENS8_23__asan_annotation_placeE, symObjAddr: 0x42D0, symBinAddr: 0x10000FEA4, symSize: 0x598 }
  - { offsetInCU: 0x2599C, offset: 0x43506, size: 0x8, addend: 0x0, symName: __ZNKSt3__114__split_bufferIPNS_12basic_stringIcNS_11char_traitsIcEENS_9allocatorIcEEEENS4_IS7_EEE5beginB8ue170006Ev, symObjAddr: 0x4868, symBinAddr: 0x10001043C, symSize: 0x18 }
  - { offsetInCU: 0x259C1, offset: 0x4352B, size: 0x8, addend: 0x0, symName: __ZNKSt3__15dequeINS_12basic_stringIcNS_11char_traitsIcEENS_9allocatorIcEEEENS4_IS6_EEE5emptyB8ue170006Ev, symObjAddr: 0x4880, symBinAddr: 0x100010454, symSize: 0x30 }
  - { offsetInCU: 0x259E6, offset: 0x43550, size: 0x8, addend: 0x0, symName: __ZNKSt3__15dequeINS_12basic_stringIcNS_11char_traitsIcEENS_9allocatorIcEEEENS4_IS6_EEE44__annotate_double_ended_contiguous_containerB8ue170006EPKvSA_SA_SA_SA_SA_, symObjAddr: 0x48C4, symBinAddr: 0x100010484, symSize: 0x28 }
  - { offsetInCU: 0x25A4D, offset: 0x435B7, size: 0x8, addend: 0x0, symName: __ZNKSt3__15dequeINS_12basic_stringIcNS_11char_traitsIcEENS_9allocatorIcEEEENS4_IS6_EEE22__annotate_whole_blockB8ue170006EmNS8_22__asan_annotation_typeE, symObjAddr: 0x48EC, symBinAddr: 0x1000104AC, symSize: 0xAC }
  - { offsetInCU: 0x25ABD, offset: 0x43627, size: 0x8, addend: 0x0, symName: __ZNKSt3__15dequeINS_12basic_stringIcNS_11char_traitsIcEENS_9allocatorIcEEEENS4_IS6_EEE23__annotate_poison_blockB8ue170006EPKvSA_, symObjAddr: 0x4998, symBinAddr: 0x100010558, symSize: 0x44 }
  - { offsetInCU: 0x25B00, offset: 0x4366A, size: 0x8, addend: 0x0, symName: __ZNSt3__117__compressed_pairImNS_9allocatorINS_12basic_stringIcNS_11char_traitsIcEENS1_IcEEEEEEE6secondB8ue170006Ev, symObjAddr: 0x4A9C, symBinAddr: 0x10001059C, symSize: 0x24 }
  - { offsetInCU: 0x25B25, offset: 0x4368F, size: 0x8, addend: 0x0, symName: __ZNSt3__114__split_bufferIPNS_12basic_stringIcNS_11char_traitsIcEENS_9allocatorIcEEEENS4_IS7_EEED2Ev, symObjAddr: 0x4AD4, symBinAddr: 0x1000105C0, symSize: 0x8C }
  - { offsetInCU: 0x25B50, offset: 0x436BA, size: 0x8, addend: 0x0, symName: __ZNSt3__114__split_bufferIPNS_12basic_stringIcNS_11char_traitsIcEENS_9allocatorIcEEEENS4_IS7_EEE5clearB8ue170006Ev, symObjAddr: 0x4B60, symBinAddr: 0x10001064C, symSize: 0x28 }
  - { offsetInCU: 0x25B75, offset: 0x436DF, size: 0x8, addend: 0x0, symName: __ZNSt3__116allocator_traitsINS_9allocatorIPNS_12basic_stringIcNS_11char_traitsIcEENS1_IcEEEEEEE10deallocateB8ue170006ERS8_PS7_m, symObjAddr: 0x4B88, symBinAddr: 0x100010674, symSize: 0x34 }
  - { offsetInCU: 0x25BB7, offset: 0x43721, size: 0x8, addend: 0x0, symName: __ZNSt3__114__split_bufferIPNS_12basic_stringIcNS_11char_traitsIcEENS_9allocatorIcEEEENS4_IS7_EEE7__allocB8ue170006Ev, symObjAddr: 0x4BBC, symBinAddr: 0x1000106A8, symSize: 0x28 }
  - { offsetInCU: 0x25BDC, offset: 0x43746, size: 0x8, addend: 0x0, symName: __ZNKSt3__114__split_bufferIPNS_12basic_stringIcNS_11char_traitsIcEENS_9allocatorIcEEEENS4_IS7_EEE8capacityB8ue170006Ev, symObjAddr: 0x4BE4, symBinAddr: 0x1000106D0, symSize: 0x40 }
  - { offsetInCU: 0x25C01, offset: 0x4376B, size: 0x8, addend: 0x0, symName: __ZNSt3__114__split_bufferIPNS_12basic_stringIcNS_11char_traitsIcEENS_9allocatorIcEEEENS4_IS7_EEE17__destruct_at_endB8ue170006EPS7_, symObjAddr: 0x4C24, symBinAddr: 0x100010710, symSize: 0x2C }
  - { offsetInCU: 0x25C34, offset: 0x4379E, size: 0x8, addend: 0x0, symName: __ZNSt3__114__split_bufferIPNS_12basic_stringIcNS_11char_traitsIcEENS_9allocatorIcEEEENS4_IS7_EEE17__destruct_at_endB8ue170006EPS7_NS_17integral_constantIbLb0EEE, symObjAddr: 0x4C50, symBinAddr: 0x10001073C, symSize: 0x80 }
  - { offsetInCU: 0x25C73, offset: 0x437DD, size: 0x8, addend: 0x0, symName: __ZNSt3__116allocator_traitsINS_9allocatorIPNS_12basic_stringIcNS_11char_traitsIcEENS1_IcEEEEEEE7destroyB8ue170006IS7_vEEvRS8_PT_, symObjAddr: 0x4CD0, symBinAddr: 0x1000107BC, symSize: 0x2C }
  - { offsetInCU: 0x25CB0, offset: 0x4381A, size: 0x8, addend: 0x0, symName: __ZNSt3__19allocatorIPNS_12basic_stringIcNS_11char_traitsIcEENS0_IcEEEEE7destroyB8ue170006EPS6_, symObjAddr: 0x4D10, symBinAddr: 0x1000107FC, symSize: 0x14 }
  - { offsetInCU: 0x25CE3, offset: 0x4384D, size: 0x8, addend: 0x0, symName: __ZNSt3__19allocatorIPNS_12basic_stringIcNS_11char_traitsIcEENS0_IcEEEEE10deallocateB8ue170006EPS6_m, symObjAddr: 0x4D24, symBinAddr: 0x100010810, symSize: 0x40 }
  - { offsetInCU: 0x25D24, offset: 0x4388E, size: 0x8, addend: 0x0, symName: __ZNSt3__117__compressed_pairIPPNS_12basic_stringIcNS_11char_traitsIcEENS_9allocatorIcEEEENS4_IS7_EEE6secondB8ue170006Ev, symObjAddr: 0x4D64, symBinAddr: 0x100010850, symSize: 0x24 }
  - { offsetInCU: 0x25D49, offset: 0x438B3, size: 0x8, addend: 0x0, symName: __ZNSt3__122__compressed_pair_elemINS_9allocatorIPNS_12basic_stringIcNS_11char_traitsIcEENS1_IcEEEEEELi1ELb1EE5__getB8ue170006Ev, symObjAddr: 0x4D88, symBinAddr: 0x100010874, symSize: 0x14 }
  - { offsetInCU: 0x25D6E, offset: 0x438D8, size: 0x8, addend: 0x0, symName: __ZNKSt3__114__split_bufferIPNS_12basic_stringIcNS_11char_traitsIcEENS_9allocatorIcEEEENS4_IS7_EEE9__end_capB8ue170006Ev, symObjAddr: 0x4D9C, symBinAddr: 0x100010888, symSize: 0x28 }
  - { offsetInCU: 0x25D93, offset: 0x438FD, size: 0x8, addend: 0x0, symName: __ZNKSt3__117__compressed_pairIPPNS_12basic_stringIcNS_11char_traitsIcEENS_9allocatorIcEEEENS4_IS7_EEE5firstB8ue170006Ev, symObjAddr: 0x4DC4, symBinAddr: 0x1000108B0, symSize: 0x24 }
  - { offsetInCU: 0x25DB8, offset: 0x43922, size: 0x8, addend: 0x0, symName: __ZNKSt3__122__compressed_pair_elemIPPNS_12basic_stringIcNS_11char_traitsIcEENS_9allocatorIcEEEELi0ELb0EE5__getB8ue170006Ev, symObjAddr: 0x4DE8, symBinAddr: 0x1000108D4, symSize: 0x14 }
  - { offsetInCU: 0x25DDD, offset: 0x43947, size: 0x8, addend: 0x0, symName: __ZNSt3__123__libcpp_numeric_limitsIdLb1EE3maxB8ue170006Ev, symObjAddr: 0x4DFC, symBinAddr: 0x1000108E8, symSize: 0xC }
  - { offsetInCU: 0x25DF1, offset: 0x4395B, size: 0x8, addend: 0x0, symName: __ZNSt3__14pairIdNS_12basic_stringIcNS_11char_traitsIcEENS_9allocatorIcEEEEED2Ev, symObjAddr: 0x4E08, symBinAddr: 0x1000108F4, symSize: 0x30 }
  - { offsetInCU: 0x25E1C, offset: 0x43986, size: 0x8, addend: 0x0, symName: __ZNSt3__15tupleIJNS_12basic_stringIcNS_11char_traitsIcEENS_9allocatorIcEEEES6_iEED2Ev, symObjAddr: 0x4F20, symBinAddr: 0x100010924, symSize: 0x2C }
  - { offsetInCU: 0x25E48, offset: 0x439B2, size: 0x8, addend: 0x0, symName: __ZNSt3__112__tuple_implINS_15__tuple_indicesIJLm0ELm1ELm2EEEEJNS_12basic_stringIcNS_11char_traitsIcEENS_9allocatorIcEEEES8_iEED1Ev, symObjAddr: 0x4F4C, symBinAddr: 0x100010950, symSize: 0x2C }
  - { offsetInCU: 0x25E74, offset: 0x439DE, size: 0x8, addend: 0x0, symName: __ZNSt3__112__tuple_implINS_15__tuple_indicesIJLm0ELm1ELm2EEEEJNS_12basic_stringIcNS_11char_traitsIcEENS_9allocatorIcEEEES8_iEED2Ev, symObjAddr: 0x4F78, symBinAddr: 0x10001097C, symSize: 0x38 }
  - { offsetInCU: 0x25EA0, offset: 0x43A0A, size: 0x8, addend: 0x0, symName: __ZNSt3__114priority_queueINS_4pairIdNS_12basic_stringIcNS_11char_traitsIcEENS_9allocatorIcEEEEEENS_6vectorIS8_NS5_IS8_EEEENS_7greaterIS8_EEED2Ev, symObjAddr: 0x4FB0, symBinAddr: 0x1000109B4, symSize: 0x2C }
  - { offsetInCU: 0x25ECC, offset: 0x43A36, size: 0x8, addend: 0x0, symName: __ZNSt3__16vectorINS_4pairIdNS_12basic_stringIcNS_11char_traitsIcEENS_9allocatorIcEEEEEENS5_IS8_EEED1B8ue170006Ev, symObjAddr: 0x4FDC, symBinAddr: 0x1000109E0, symSize: 0x2C }
  - { offsetInCU: 0x25EF5, offset: 0x43A5F, size: 0x8, addend: 0x0, symName: __ZNSt3__16vectorINS_4pairIdNS_12basic_stringIcNS_11char_traitsIcEENS_9allocatorIcEEEEEENS5_IS8_EEED2B8ue170006Ev, symObjAddr: 0x5008, symBinAddr: 0x100010A0C, symSize: 0x44 }
  - { offsetInCU: 0x25F1E, offset: 0x43A88, size: 0x8, addend: 0x0, symName: __ZNSt3__16vectorINS_4pairIdNS_12basic_stringIcNS_11char_traitsIcEENS_9allocatorIcEEEEEENS5_IS8_EEE16__destroy_vectorC1B8ue170006ERSA_, symObjAddr: 0x504C, symBinAddr: 0x100010A50, symSize: 0x34 }
  - { offsetInCU: 0x25F56, offset: 0x43AC0, size: 0x8, addend: 0x0, symName: __ZNSt3__16vectorINS_4pairIdNS_12basic_stringIcNS_11char_traitsIcEENS_9allocatorIcEEEEEENS5_IS8_EEE16__destroy_vectorclB8ue170006Ev, symObjAddr: 0x5080, symBinAddr: 0x100010A84, symSize: 0x90 }
  - { offsetInCU: 0x25F7B, offset: 0x43AE5, size: 0x8, addend: 0x0, symName: __ZNSt3__16vectorINS_4pairIdNS_12basic_stringIcNS_11char_traitsIcEENS_9allocatorIcEEEEEENS5_IS8_EEE16__destroy_vectorC2B8ue170006ERSA_, symObjAddr: 0x5110, symBinAddr: 0x100010B14, symSize: 0x20 }
  - { offsetInCU: 0x25FB3, offset: 0x43B1D, size: 0x8, addend: 0x0, symName: __ZNSt3__16vectorINS_4pairIdNS_12basic_stringIcNS_11char_traitsIcEENS_9allocatorIcEEEEEENS5_IS8_EEE7__clearB8ue170006Ev, symObjAddr: 0x5130, symBinAddr: 0x100010B34, symSize: 0x28 }
  - { offsetInCU: 0x25FD8, offset: 0x43B42, size: 0x8, addend: 0x0, symName: __ZNKSt3__16vectorINS_4pairIdNS_12basic_stringIcNS_11char_traitsIcEENS_9allocatorIcEEEEEENS5_IS8_EEE17__annotate_deleteB8ue170006Ev, symObjAddr: 0x5158, symBinAddr: 0x100010B5C, symSize: 0xB8 }
  - { offsetInCU: 0x25FFD, offset: 0x43B67, size: 0x8, addend: 0x0, symName: __ZNSt3__116allocator_traitsINS_9allocatorINS_4pairIdNS_12basic_stringIcNS_11char_traitsIcEENS1_IcEEEEEEEEE10deallocateB8ue170006ERS9_PS8_m, symObjAddr: 0x5210, symBinAddr: 0x100010C14, symSize: 0x34 }
  - { offsetInCU: 0x2603F, offset: 0x43BA9, size: 0x8, addend: 0x0, symName: __ZNSt3__16vectorINS_4pairIdNS_12basic_stringIcNS_11char_traitsIcEENS_9allocatorIcEEEEEENS5_IS8_EEE7__allocB8ue170006Ev, symObjAddr: 0x5244, symBinAddr: 0x100010C48, symSize: 0x28 }
  - { offsetInCU: 0x26064, offset: 0x43BCE, size: 0x8, addend: 0x0, symName: __ZNKSt3__16vectorINS_4pairIdNS_12basic_stringIcNS_11char_traitsIcEENS_9allocatorIcEEEEEENS5_IS8_EEE8capacityB8ue170006Ev, symObjAddr: 0x526C, symBinAddr: 0x100010C70, symSize: 0x40 }
  - { offsetInCU: 0x26089, offset: 0x43BF3, size: 0x8, addend: 0x0, symName: __ZNSt3__16vectorINS_4pairIdNS_12basic_stringIcNS_11char_traitsIcEENS_9allocatorIcEEEEEENS5_IS8_EEE22__base_destruct_at_endB8ue170006EPS8_, symObjAddr: 0x52AC, symBinAddr: 0x100010CB0, symSize: 0x8C }
  - { offsetInCU: 0x260CC, offset: 0x43C36, size: 0x8, addend: 0x0, symName: __ZNSt3__116allocator_traitsINS_9allocatorINS_4pairIdNS_12basic_stringIcNS_11char_traitsIcEENS1_IcEEEEEEEEE7destroyB8ue170006IS8_vEEvRS9_PT_, symObjAddr: 0x5338, symBinAddr: 0x100010D3C, symSize: 0x2C }
  - { offsetInCU: 0x26109, offset: 0x43C73, size: 0x8, addend: 0x0, symName: __ZNSt3__19allocatorINS_4pairIdNS_12basic_stringIcNS_11char_traitsIcEENS0_IcEEEEEEE7destroyB8ue170006EPS7_, symObjAddr: 0x5378, symBinAddr: 0x100010D7C, symSize: 0x28 }
  - { offsetInCU: 0x2613C, offset: 0x43CA6, size: 0x8, addend: 0x0, symName: __ZNKSt3__16vectorINS_4pairIdNS_12basic_stringIcNS_11char_traitsIcEENS_9allocatorIcEEEEEENS5_IS8_EEE31__annotate_contiguous_containerB8ue170006EPKvSC_SC_SC_, symObjAddr: 0x53A0, symBinAddr: 0x100010DA4, symSize: 0x20 }
  - { offsetInCU: 0x2618D, offset: 0x43CF7, size: 0x8, addend: 0x0, symName: __ZNKSt3__16vectorINS_4pairIdNS_12basic_stringIcNS_11char_traitsIcEENS_9allocatorIcEEEEEENS5_IS8_EEE4dataB8ue170006Ev, symObjAddr: 0x53C0, symBinAddr: 0x100010DC4, symSize: 0x28 }
  - { offsetInCU: 0x261B2, offset: 0x43D1C, size: 0x8, addend: 0x0, symName: __ZNKSt3__16vectorINS_4pairIdNS_12basic_stringIcNS_11char_traitsIcEENS_9allocatorIcEEEEEENS5_IS8_EEE4sizeB8ue170006Ev, symObjAddr: 0x53E8, symBinAddr: 0x100010DEC, symSize: 0x28 }
  - { offsetInCU: 0x261D7, offset: 0x43D41, size: 0x8, addend: 0x0, symName: __ZNSt3__19allocatorINS_4pairIdNS_12basic_stringIcNS_11char_traitsIcEENS0_IcEEEEEEE10deallocateB8ue170006EPS7_m, symObjAddr: 0x5410, symBinAddr: 0x100010E14, symSize: 0x40 }
  - { offsetInCU: 0x26218, offset: 0x43D82, size: 0x8, addend: 0x0, symName: __ZNSt3__117__compressed_pairIPNS_4pairIdNS_12basic_stringIcNS_11char_traitsIcEENS_9allocatorIcEEEEEENS5_IS8_EEE6secondB8ue170006Ev, symObjAddr: 0x5450, symBinAddr: 0x100010E54, symSize: 0x24 }
  - { offsetInCU: 0x2623D, offset: 0x43DA7, size: 0x8, addend: 0x0, symName: __ZNSt3__122__compressed_pair_elemINS_9allocatorINS_4pairIdNS_12basic_stringIcNS_11char_traitsIcEENS1_IcEEEEEEEELi1ELb1EE5__getB8ue170006Ev, symObjAddr: 0x5474, symBinAddr: 0x100010E78, symSize: 0x14 }
  - { offsetInCU: 0x26262, offset: 0x43DCC, size: 0x8, addend: 0x0, symName: __ZNKSt3__16vectorINS_4pairIdNS_12basic_stringIcNS_11char_traitsIcEENS_9allocatorIcEEEEEENS5_IS8_EEE9__end_capB8ue170006Ev, symObjAddr: 0x5488, symBinAddr: 0x100010E8C, symSize: 0x28 }
  - { offsetInCU: 0x26287, offset: 0x43DF1, size: 0x8, addend: 0x0, symName: __ZNKSt3__117__compressed_pairIPNS_4pairIdNS_12basic_stringIcNS_11char_traitsIcEENS_9allocatorIcEEEEEENS5_IS8_EEE5firstB8ue170006Ev, symObjAddr: 0x54B0, symBinAddr: 0x100010EB4, symSize: 0x24 }
  - { offsetInCU: 0x262AC, offset: 0x43E16, size: 0x8, addend: 0x0, symName: __ZNKSt3__122__compressed_pair_elemIPNS_4pairIdNS_12basic_stringIcNS_11char_traitsIcEENS_9allocatorIcEEEEEELi0ELb0EE5__getB8ue170006Ev, symObjAddr: 0x54D4, symBinAddr: 0x100010ED8, symSize: 0x14 }
  - { offsetInCU: 0x262D1, offset: 0x43E3B, size: 0x8, addend: 0x0, symName: __ZNSt3__112basic_stringIcNS_11char_traitsIcEENS_9allocatorIcEEEC2B8ue170006Ev, symObjAddr: 0x54E8, symBinAddr: 0x100010EEC, symSize: 0x48 }
  - { offsetInCU: 0x262FF, offset: 0x43E69, size: 0x8, addend: 0x0, symName: __ZNSt3__112basic_stringIcNS_11char_traitsIcEENS_9allocatorIcEEE14__default_initB8ue170006Ev, symObjAddr: 0x556C, symBinAddr: 0x100010F34, symSize: 0x40 }
  - { offsetInCU: 0x26324, offset: 0x43E8E, size: 0x8, addend: 0x0, symName: __ZNSt3__117__compressed_pairINS_12basic_stringIcNS_11char_traitsIcEENS_9allocatorIcEEE5__repES5_E5firstB8ue170006Ev, symObjAddr: 0x5668, symBinAddr: 0x100010F74, symSize: 0x24 }
  - { offsetInCU: 0x26349, offset: 0x43EB3, size: 0x8, addend: 0x0, symName: __ZNSt3__122__compressed_pair_elemINS_12basic_stringIcNS_11char_traitsIcEENS_9allocatorIcEEE5__repELi0ELb0EE5__getB8ue170006Ev, symObjAddr: 0x568C, symBinAddr: 0x100010F98, symSize: 0x14 }
  - { offsetInCU: 0x2636E, offset: 0x43ED8, size: 0x8, addend: 0x0, symName: __ZNSt3__113unordered_mapINS_12basic_stringIcNS_11char_traitsIcEENS_9allocatorIcEEEENS0_IS6_dNS_4hashIS6_EENS_8equal_toIS6_EENS4_INS_4pairIKS6_dEEEEEES8_SA_NS4_INSB_ISC_SF_EEEEEC2B8ue170006Ev, symObjAddr: 0x56A0, symBinAddr: 0x100010FAC, symSize: 0x2C }
  - { offsetInCU: 0x26397, offset: 0x43F01, size: 0x8, addend: 0x0, symName: __ZNSt3__112__hash_tableINS_17__hash_value_typeINS_12basic_stringIcNS_11char_traitsIcEENS_9allocatorIcEEEENS_13unordered_mapIS7_dNS_4hashIS7_EENS_8equal_toIS7_EENS5_INS_4pairIKS7_dEEEEEEEENS_22__unordered_map_hasherIS7_SI_SA_SC_Lb1EEENS_21__unordered_map_equalIS7_SI_SC_SA_Lb1EEENS5_ISI_EEEC1Ev, symObjAddr: 0x56CC, symBinAddr: 0x100010FD8, symSize: 0x2C }
  - { offsetInCU: 0x263C2, offset: 0x43F2C, size: 0x8, addend: 0x0, symName: __ZNSt3__112__hash_tableINS_17__hash_value_typeINS_12basic_stringIcNS_11char_traitsIcEENS_9allocatorIcEEEENS_13unordered_mapIS7_dNS_4hashIS7_EENS_8equal_toIS7_EENS5_INS_4pairIKS7_dEEEEEEEENS_22__unordered_map_hasherIS7_SI_SA_SC_Lb1EEENS_21__unordered_map_equalIS7_SI_SC_SA_Lb1EEENS5_ISI_EEEC2Ev, symObjAddr: 0x56F8, symBinAddr: 0x100011004, symSize: 0x7C }
  - { offsetInCU: 0x263ED, offset: 0x43F57, size: 0x8, addend: 0x0, symName: __ZNSt3__110unique_ptrIA_PNS_16__hash_node_baseIPNS_11__hash_nodeINS_17__hash_value_typeINS_12basic_stringIcNS_11char_traitsIcEENS_9allocatorIcEEEENS_13unordered_mapIS9_dNS_4hashIS9_EENS_8equal_toIS9_EENS7_INS_4pairIKS9_dEEEEEEEEPvEEEENS_25__bucket_list_deallocatorINS7_ISP_EEEEEC1B8ue170006ILb1EvEEv, symObjAddr: 0x5774, symBinAddr: 0x100011080, symSize: 0x2C }
  - { offsetInCU: 0x26421, offset: 0x43F8B, size: 0x8, addend: 0x0, symName: __ZNSt3__117__compressed_pairINS_16__hash_node_baseIPNS_11__hash_nodeINS_17__hash_value_typeINS_12basic_stringIcNS_11char_traitsIcEENS_9allocatorIcEEEENS_13unordered_mapIS9_dNS_4hashIS9_EENS_8equal_toIS9_EENS7_INS_4pairIKS9_dEEEEEEEEPvEEEENS7_ISM_EEEC1B8ue170006ILb1EvEEv, symObjAddr: 0x57A0, symBinAddr: 0x1000110AC, symSize: 0x2C }
  - { offsetInCU: 0x2645A, offset: 0x43FC4, size: 0x8, addend: 0x0, symName: __ZNSt3__117__compressed_pairImNS_22__unordered_map_hasherINS_12basic_stringIcNS_11char_traitsIcEENS_9allocatorIcEEEENS_17__hash_value_typeIS7_NS_13unordered_mapIS7_dNS_4hashIS7_EENS_8equal_toIS7_EENS5_INS_4pairIKS7_dEEEEEEEESB_SD_Lb1EEEEC1B8ue170006IiNS_18__default_init_tagEEEOT_OT0_, symObjAddr: 0x57CC, symBinAddr: 0x1000110D8, symSize: 0x3C }
  - { offsetInCU: 0x264B6, offset: 0x44020, size: 0x8, addend: 0x0, symName: __ZNSt3__117__compressed_pairIfNS_21__unordered_map_equalINS_12basic_stringIcNS_11char_traitsIcEENS_9allocatorIcEEEENS_17__hash_value_typeIS7_NS_13unordered_mapIS7_dNS_4hashIS7_EENS_8equal_toIS7_EENS5_INS_4pairIKS7_dEEEEEEEESD_SB_Lb1EEEEC1B8ue170006IfNS_18__default_init_tagEEEOT_OT0_, symObjAddr: 0x5808, symBinAddr: 0x100011114, symSize: 0x3C }
  - { offsetInCU: 0x2650D, offset: 0x44077, size: 0x8, addend: 0x0, symName: __ZNSt3__110unique_ptrIA_PNS_16__hash_node_baseIPNS_11__hash_nodeINS_17__hash_value_typeINS_12basic_stringIcNS_11char_traitsIcEENS_9allocatorIcEEEENS_13unordered_mapIS9_dNS_4hashIS9_EENS_8equal_toIS9_EENS7_INS_4pairIKS9_dEEEEEEEEPvEEEENS_25__bucket_list_deallocatorINS7_ISP_EEEEEC2B8ue170006ILb1EvEEv, symObjAddr: 0x5844, symBinAddr: 0x100011150, symSize: 0x3C }
  - { offsetInCU: 0x26546, offset: 0x440B0, size: 0x8, addend: 0x0, symName: __ZNSt3__117__compressed_pairIPPNS_16__hash_node_baseIPNS_11__hash_nodeINS_17__hash_value_typeINS_12basic_stringIcNS_11char_traitsIcEENS_9allocatorIcEEEENS_13unordered_mapIS9_dNS_4hashIS9_EENS_8equal_toIS9_EENS7_INS_4pairIKS9_dEEEEEEEEPvEEEENS_25__bucket_list_deallocatorINS7_ISP_EEEEEC1B8ue170006INS_16__value_init_tagESW_EEOT_OT0_, symObjAddr: 0x5880, symBinAddr: 0x10001118C, symSize: 0x3C }
  - { offsetInCU: 0x2659D, offset: 0x44107, size: 0x8, addend: 0x0, symName: __ZNSt3__117__compressed_pairIPPNS_16__hash_node_baseIPNS_11__hash_nodeINS_17__hash_value_typeINS_12basic_stringIcNS_11char_traitsIcEENS_9allocatorIcEEEENS_13unordered_mapIS9_dNS_4hashIS9_EENS_8equal_toIS9_EENS7_INS_4pairIKS9_dEEEEEEEEPvEEEENS_25__bucket_list_deallocatorINS7_ISP_EEEEEC2B8ue170006INS_16__value_init_tagESW_EEOT_OT0_, symObjAddr: 0x58BC, symBinAddr: 0x1000111C8, symSize: 0x40 }
  - { offsetInCU: 0x265F4, offset: 0x4415E, size: 0x8, addend: 0x0, symName: __ZNSt3__122__compressed_pair_elemIPPNS_16__hash_node_baseIPNS_11__hash_nodeINS_17__hash_value_typeINS_12basic_stringIcNS_11char_traitsIcEENS_9allocatorIcEEEENS_13unordered_mapIS9_dNS_4hashIS9_EENS_8equal_toIS9_EENS7_INS_4pairIKS9_dEEEEEEEEPvEEEELi0ELb0EEC2B8ue170006ENS_16__value_init_tagE, symObjAddr: 0x58FC, symBinAddr: 0x100011208, symSize: 0x18 }
  - { offsetInCU: 0x26628, offset: 0x44192, size: 0x8, addend: 0x0, symName: __ZNSt3__122__compressed_pair_elemINS_25__bucket_list_deallocatorINS_9allocatorIPNS_16__hash_node_baseIPNS_11__hash_nodeINS_17__hash_value_typeINS_12basic_stringIcNS_11char_traitsIcEENS2_IcEEEENS_13unordered_mapISA_dNS_4hashISA_EENS_8equal_toISA_EENS2_INS_4pairIKSA_dEEEEEEEEPvEEEEEEEELi1ELb0EEC2B8ue170006ENS_16__value_init_tagE, symObjAddr: 0x5914, symBinAddr: 0x100011220, symSize: 0x2C }
  - { offsetInCU: 0x2665C, offset: 0x441C6, size: 0x8, addend: 0x0, symName: __ZNSt3__125__bucket_list_deallocatorINS_9allocatorIPNS_16__hash_node_baseIPNS_11__hash_nodeINS_17__hash_value_typeINS_12basic_stringIcNS_11char_traitsIcEENS1_IcEEEENS_13unordered_mapIS9_dNS_4hashIS9_EENS_8equal_toIS9_EENS1_INS_4pairIKS9_dEEEEEEEEPvEEEEEEEC1B8ue170006Ev, symObjAddr: 0x5940, symBinAddr: 0x10001124C, symSize: 0x2C }
  - { offsetInCU: 0x26685, offset: 0x441EF, size: 0x8, addend: 0x0, symName: __ZNSt3__125__bucket_list_deallocatorINS_9allocatorIPNS_16__hash_node_baseIPNS_11__hash_nodeINS_17__hash_value_typeINS_12basic_stringIcNS_11char_traitsIcEENS1_IcEEEENS_13unordered_mapIS9_dNS_4hashIS9_EENS_8equal_toIS9_EENS1_INS_4pairIKS9_dEEEEEEEEPvEEEEEEEC2B8ue170006Ev, symObjAddr: 0x596C, symBinAddr: 0x100011278, symSize: 0x40 }
  - { offsetInCU: 0x266AE, offset: 0x44218, size: 0x8, addend: 0x0, symName: __ZNSt3__117__compressed_pairImNS_9allocatorIPNS_16__hash_node_baseIPNS_11__hash_nodeINS_17__hash_value_typeINS_12basic_stringIcNS_11char_traitsIcEENS1_IcEEEENS_13unordered_mapIS9_dNS_4hashIS9_EENS_8equal_toIS9_EENS1_INS_4pairIKS9_dEEEEEEEEPvEEEEEEEC1B8ue170006IiNS_18__default_init_tagEEEOT_OT0_, symObjAddr: 0x59AC, symBinAddr: 0x1000112B8, symSize: 0x3C }
  - { offsetInCU: 0x26705, offset: 0x4426F, size: 0x8, addend: 0x0, symName: __ZNSt3__117__compressed_pairImNS_9allocatorIPNS_16__hash_node_baseIPNS_11__hash_nodeINS_17__hash_value_typeINS_12basic_stringIcNS_11char_traitsIcEENS1_IcEEEENS_13unordered_mapIS9_dNS_4hashIS9_EENS_8equal_toIS9_EENS1_INS_4pairIKS9_dEEEEEEEEPvEEEEEEEC2B8ue170006IiNS_18__default_init_tagEEEOT_OT0_, symObjAddr: 0x59E8, symBinAddr: 0x1000112F4, symSize: 0x40 }
  - { offsetInCU: 0x2675C, offset: 0x442C6, size: 0x8, addend: 0x0, symName: __ZNSt3__122__compressed_pair_elemINS_9allocatorIPNS_16__hash_node_baseIPNS_11__hash_nodeINS_17__hash_value_typeINS_12basic_stringIcNS_11char_traitsIcEENS1_IcEEEENS_13unordered_mapIS9_dNS_4hashIS9_EENS_8equal_toIS9_EENS1_INS_4pairIKS9_dEEEEEEEEPvEEEEEELi1ELb1EEC2B8ue170006ENS_18__default_init_tagE, symObjAddr: 0x5A4C, symBinAddr: 0x100011334, symSize: 0x2C }
  - { offsetInCU: 0x26790, offset: 0x442FA, size: 0x8, addend: 0x0, symName: __ZNSt3__19allocatorIPNS_16__hash_node_baseIPNS_11__hash_nodeINS_17__hash_value_typeINS_12basic_stringIcNS_11char_traitsIcEENS0_IcEEEENS_13unordered_mapIS8_dNS_4hashIS8_EENS_8equal_toIS8_EENS0_INS_4pairIKS8_dEEEEEEEEPvEEEEEC2B8ue170006Ev, symObjAddr: 0x5A78, symBinAddr: 0x100011360, symSize: 0x2C }
  - { offsetInCU: 0x267B9, offset: 0x44323, size: 0x8, addend: 0x0, symName: __ZNSt3__116__non_trivial_ifILb1ENS_9allocatorIPNS_16__hash_node_baseIPNS_11__hash_nodeINS_17__hash_value_typeINS_12basic_stringIcNS_11char_traitsIcEENS1_IcEEEENS_13unordered_mapIS9_dNS_4hashIS9_EENS_8equal_toIS9_EENS1_INS_4pairIKS9_dEEEEEEEEPvEEEEEEEC2B8ue170006Ev, symObjAddr: 0x5AA4, symBinAddr: 0x10001138C, symSize: 0x14 }
  - { offsetInCU: 0x267E2, offset: 0x4434C, size: 0x8, addend: 0x0, symName: __ZNSt3__117__compressed_pairINS_16__hash_node_baseIPNS_11__hash_nodeINS_17__hash_value_typeINS_12basic_stringIcNS_11char_traitsIcEENS_9allocatorIcEEEENS_13unordered_mapIS9_dNS_4hashIS9_EENS_8equal_toIS9_EENS7_INS_4pairIKS9_dEEEEEEEEPvEEEENS7_ISM_EEEC2B8ue170006ILb1EvEEv, symObjAddr: 0x5AB8, symBinAddr: 0x1000113A0, symSize: 0x34 }
  - { offsetInCU: 0x26816, offset: 0x44380, size: 0x8, addend: 0x0, symName: __ZNSt3__122__compressed_pair_elemINS_16__hash_node_baseIPNS_11__hash_nodeINS_17__hash_value_typeINS_12basic_stringIcNS_11char_traitsIcEENS_9allocatorIcEEEENS_13unordered_mapIS9_dNS_4hashIS9_EENS_8equal_toIS9_EENS7_INS_4pairIKS9_dEEEEEEEEPvEEEELi0ELb0EEC2B8ue170006ENS_16__value_init_tagE, symObjAddr: 0x5AEC, symBinAddr: 0x1000113D4, symSize: 0x2C }
  - { offsetInCU: 0x2684A, offset: 0x443B4, size: 0x8, addend: 0x0, symName: __ZNSt3__122__compressed_pair_elemINS_9allocatorINS_11__hash_nodeINS_17__hash_value_typeINS_12basic_stringIcNS_11char_traitsIcEENS1_IcEEEENS_13unordered_mapIS8_dNS_4hashIS8_EENS_8equal_toIS8_EENS1_INS_4pairIKS8_dEEEEEEEEPvEEEELi1ELb1EEC2B8ue170006ENS_16__value_init_tagE, symObjAddr: 0x5B18, symBinAddr: 0x100011400, symSize: 0x2C }
  - { offsetInCU: 0x2687E, offset: 0x443E8, size: 0x8, addend: 0x0, symName: __ZNSt3__116__hash_node_baseIPNS_11__hash_nodeINS_17__hash_value_typeINS_12basic_stringIcNS_11char_traitsIcEENS_9allocatorIcEEEENS_13unordered_mapIS8_dNS_4hashIS8_EENS_8equal_toIS8_EENS6_INS_4pairIKS8_dEEEEEEEEPvEEEC1B8ue170006Ev, symObjAddr: 0x5B44, symBinAddr: 0x10001142C, symSize: 0x2C }
  - { offsetInCU: 0x268A7, offset: 0x44411, size: 0x8, addend: 0x0, symName: __ZNSt3__116__hash_node_baseIPNS_11__hash_nodeINS_17__hash_value_typeINS_12basic_stringIcNS_11char_traitsIcEENS_9allocatorIcEEEENS_13unordered_mapIS8_dNS_4hashIS8_EENS_8equal_toIS8_EENS6_INS_4pairIKS8_dEEEEEEEEPvEEEC2B8ue170006Ev, symObjAddr: 0x5B70, symBinAddr: 0x100011458, symSize: 0x18 }
  - { offsetInCU: 0x268D0, offset: 0x4443A, size: 0x8, addend: 0x0, symName: __ZNSt3__19allocatorINS_11__hash_nodeINS_17__hash_value_typeINS_12basic_stringIcNS_11char_traitsIcEENS0_IcEEEENS_13unordered_mapIS7_dNS_4hashIS7_EENS_8equal_toIS7_EENS0_INS_4pairIKS7_dEEEEEEEEPvEEEC2B8ue170006Ev, symObjAddr: 0x5B88, symBinAddr: 0x100011470, symSize: 0x2C }
  - { offsetInCU: 0x268F9, offset: 0x44463, size: 0x8, addend: 0x0, symName: __ZNSt3__116__non_trivial_ifILb1ENS_9allocatorINS_11__hash_nodeINS_17__hash_value_typeINS_12basic_stringIcNS_11char_traitsIcEENS1_IcEEEENS_13unordered_mapIS8_dNS_4hashIS8_EENS_8equal_toIS8_EENS1_INS_4pairIKS8_dEEEEEEEEPvEEEEEC2B8ue170006Ev, symObjAddr: 0x5BB4, symBinAddr: 0x10001149C, symSize: 0x14 }
  - { offsetInCU: 0x26922, offset: 0x4448C, size: 0x8, addend: 0x0, symName: __ZNSt3__117__compressed_pairImNS_22__unordered_map_hasherINS_12basic_stringIcNS_11char_traitsIcEENS_9allocatorIcEEEENS_17__hash_value_typeIS7_NS_13unordered_mapIS7_dNS_4hashIS7_EENS_8equal_toIS7_EENS5_INS_4pairIKS7_dEEEEEEEESB_SD_Lb1EEEEC2B8ue170006IiNS_18__default_init_tagEEEOT_OT0_, symObjAddr: 0x5BC8, symBinAddr: 0x1000114B0, symSize: 0x40 }
  - { offsetInCU: 0x26979, offset: 0x444E3, size: 0x8, addend: 0x0, symName: __ZNSt3__122__compressed_pair_elemINS_22__unordered_map_hasherINS_12basic_stringIcNS_11char_traitsIcEENS_9allocatorIcEEEENS_17__hash_value_typeIS7_NS_13unordered_mapIS7_dNS_4hashIS7_EENS_8equal_toIS7_EENS5_INS_4pairIKS7_dEEEEEEEESB_SD_Lb1EEELi1ELb1EEC2B8ue170006ENS_18__default_init_tagE, symObjAddr: 0x5C08, symBinAddr: 0x1000114F0, symSize: 0x2C }
  - { offsetInCU: 0x269AD, offset: 0x44517, size: 0x8, addend: 0x0, symName: __ZNSt3__122__unordered_map_hasherINS_12basic_stringIcNS_11char_traitsIcEENS_9allocatorIcEEEENS_17__hash_value_typeIS6_NS_13unordered_mapIS6_dNS_4hashIS6_EENS_8equal_toIS6_EENS4_INS_4pairIKS6_dEEEEEEEESA_SC_Lb1EEC2B8ue170006Ev, symObjAddr: 0x5C34, symBinAddr: 0x10001151C, symSize: 0x14 }
  - { offsetInCU: 0x269D6, offset: 0x44540, size: 0x8, addend: 0x0, symName: __ZNSt3__117__compressed_pairIfNS_21__unordered_map_equalINS_12basic_stringIcNS_11char_traitsIcEENS_9allocatorIcEEEENS_17__hash_value_typeIS7_NS_13unordered_mapIS7_dNS_4hashIS7_EENS_8equal_toIS7_EENS5_INS_4pairIKS7_dEEEEEEEESD_SB_Lb1EEEEC2B8ue170006IfNS_18__default_init_tagEEEOT_OT0_, symObjAddr: 0x5C48, symBinAddr: 0x100011530, symSize: 0x40 }
  - { offsetInCU: 0x26A2D, offset: 0x44597, size: 0x8, addend: 0x0, symName: __ZNSt3__122__compressed_pair_elemINS_21__unordered_map_equalINS_12basic_stringIcNS_11char_traitsIcEENS_9allocatorIcEEEENS_17__hash_value_typeIS7_NS_13unordered_mapIS7_dNS_4hashIS7_EENS_8equal_toIS7_EENS5_INS_4pairIKS7_dEEEEEEEESD_SB_Lb1EEELi1ELb1EEC2B8ue170006ENS_18__default_init_tagE, symObjAddr: 0x5CAC, symBinAddr: 0x100011570, symSize: 0x2C }
  - { offsetInCU: 0x26A61, offset: 0x445CB, size: 0x8, addend: 0x0, symName: __ZNSt3__121__unordered_map_equalINS_12basic_stringIcNS_11char_traitsIcEENS_9allocatorIcEEEENS_17__hash_value_typeIS6_NS_13unordered_mapIS6_dNS_4hashIS6_EENS_8equal_toIS6_EENS4_INS_4pairIKS6_dEEEEEEEESC_SA_Lb1EEC2B8ue170006Ev, symObjAddr: 0x5CD8, symBinAddr: 0x10001159C, symSize: 0x14 }
  - { offsetInCU: 0x26A8A, offset: 0x445F4, size: 0x8, addend: 0x0, symName: __ZNSt3__16vectorINS_12basic_stringIcNS_11char_traitsIcEENS_9allocatorIcEEEENS4_IS6_EEEC2B8ue170006Ev, symObjAddr: 0x5CEC, symBinAddr: 0x1000115B0, symSize: 0x4C }
  - { offsetInCU: 0x26AB8, offset: 0x44622, size: 0x8, addend: 0x0, symName: __ZNSt3__117__compressed_pairIPNS_12basic_stringIcNS_11char_traitsIcEENS_9allocatorIcEEEENS4_IS6_EEEC1B8ue170006IDnNS_18__default_init_tagEEEOT_OT0_, symObjAddr: 0x5D38, symBinAddr: 0x1000115FC, symSize: 0x3C }
  - { offsetInCU: 0x26B0F, offset: 0x44679, size: 0x8, addend: 0x0, symName: __ZNSt3__117__compressed_pairIPNS_12basic_stringIcNS_11char_traitsIcEENS_9allocatorIcEEEENS4_IS6_EEEC2B8ue170006IDnNS_18__default_init_tagEEEOT_OT0_, symObjAddr: 0x5D74, symBinAddr: 0x100011638, symSize: 0x40 }
  - { offsetInCU: 0x26B66, offset: 0x446D0, size: 0x8, addend: 0x0, symName: __ZNSt3__122__compressed_pair_elemIPNS_12basic_stringIcNS_11char_traitsIcEENS_9allocatorIcEEEELi0ELb0EEC2B8ue170006IDnvEEOT_, symObjAddr: 0x5DB4, symBinAddr: 0x100011678, symSize: 0x1C }
  - { offsetInCU: 0x26BA7, offset: 0x44711, size: 0x8, addend: 0x0, symName: __ZNSt3__122__compressed_pair_elemINS_9allocatorINS_12basic_stringIcNS_11char_traitsIcEENS1_IcEEEEEELi1ELb1EEC2B8ue170006ENS_18__default_init_tagE, symObjAddr: 0x5DD0, symBinAddr: 0x100011694, symSize: 0x2C }
  - { offsetInCU: 0x26BDB, offset: 0x44745, size: 0x8, addend: 0x0, symName: __ZNSt3__19allocatorINS_12basic_stringIcNS_11char_traitsIcEENS0_IcEEEEEC2B8ue170006Ev, symObjAddr: 0x5DFC, symBinAddr: 0x1000116C0, symSize: 0x2C }
  - { offsetInCU: 0x26C04, offset: 0x4476E, size: 0x8, addend: 0x0, symName: __ZNSt3__116__non_trivial_ifILb1ENS_9allocatorINS_12basic_stringIcNS_11char_traitsIcEENS1_IcEEEEEEEC2B8ue170006Ev, symObjAddr: 0x5E28, symBinAddr: 0x1000116EC, symSize: 0x14 }
  - { offsetInCU: 0x26C2D, offset: 0x44797, size: 0x8, addend: 0x0, symName: __ZNSt3__19basic_iosIcNS_11char_traitsIcEEEC2B8ue170006Ev, symObjAddr: 0x6820, symBinAddr: 0x100011700, symSize: 0x44 }
  - { offsetInCU: 0x26C56, offset: 0x447C0, size: 0x8, addend: 0x0, symName: __ZNSt3__113basic_istreamIcNS_11char_traitsIcEEEC2B8ue170006EPNS_15basic_streambufIcS2_EE, symObjAddr: 0x6864, symBinAddr: 0x100011744, symSize: 0x64 }
  - { offsetInCU: 0x26C99, offset: 0x44803, size: 0x8, addend: 0x0, symName: __ZNSt3__18ios_baseC2B8ue170006Ev, symObjAddr: 0x68F4, symBinAddr: 0x1000117A8, symSize: 0x24 }
  - { offsetInCU: 0x26CC2, offset: 0x4482C, size: 0x8, addend: 0x0, symName: __ZNSt3__19basic_iosIcNS_11char_traitsIcEEE4initB8ue170006EPNS_15basic_streambufIcS2_EE, symObjAddr: 0x6918, symBinAddr: 0x1000117CC, symSize: 0x44 }
  - { offsetInCU: 0x26CF7, offset: 0x44861, size: 0x8, addend: 0x0, symName: __ZNKSt3__19basic_iosIcNS_11char_traitsIcEEE4failB8ue170006Ev, symObjAddr: 0x6A80, symBinAddr: 0x100011810, symSize: 0x28 }
  - { offsetInCU: 0x26D1C, offset: 0x44886, size: 0x8, addend: 0x0, symName: __ZNKSt3__18ios_base4failB8ue170006Ev, symObjAddr: 0x6AA8, symBinAddr: 0x100011838, symSize: 0x28 }
  - { offsetInCU: 0x26D43, offset: 0x448AD, size: 0x8, addend: 0x0, symName: __ZNSt3__115basic_stringbufIcNS_11char_traitsIcEENS_9allocatorIcEEEC1B8ue170006ERKNS_12basic_stringIcS2_S4_EEj, symObjAddr: 0x6AD0, symBinAddr: 0x100011860, symSize: 0x3C }
  - { offsetInCU: 0x26D8A, offset: 0x448F4, size: 0x8, addend: 0x0, symName: __ZNSt3__115basic_stringbufIcNS_11char_traitsIcEENS_9allocatorIcEEEC2B8ue170006ERKNS_12basic_stringIcS2_S4_EEj, symObjAddr: 0x6B0C, symBinAddr: 0x10001189C, symSize: 0xB4 }
  - { offsetInCU: 0x26DD1, offset: 0x4493B, size: 0x8, addend: 0x0, symName: __ZNKSt3__112basic_stringIcNS_11char_traitsIcEENS_9allocatorIcEEE13get_allocatorB8ue170006Ev, symObjAddr: 0x6BC0, symBinAddr: 0x100011950, symSize: 0x24 }
  - { offsetInCU: 0x26DF6, offset: 0x44960, size: 0x8, addend: 0x0, symName: __ZNSt3__112basic_stringIcNS_11char_traitsIcEENS_9allocatorIcEEEC1B8ue170006ERKS4_, symObjAddr: 0x6BE4, symBinAddr: 0x100011974, symSize: 0x34 }
  - { offsetInCU: 0x26E2E, offset: 0x44998, size: 0x8, addend: 0x0, symName: __ZNKSt3__112basic_stringIcNS_11char_traitsIcEENS_9allocatorIcEEE7__allocB8ue170006Ev, symObjAddr: 0x6C18, symBinAddr: 0x1000119A8, symSize: 0x24 }
  - { offsetInCU: 0x26E53, offset: 0x449BD, size: 0x8, addend: 0x0, symName: __ZNKSt3__117__compressed_pairINS_12basic_stringIcNS_11char_traitsIcEENS_9allocatorIcEEE5__repES5_E6secondB8ue170006Ev, symObjAddr: 0x6C3C, symBinAddr: 0x1000119CC, symSize: 0x24 }
  - { offsetInCU: 0x26E78, offset: 0x449E2, size: 0x8, addend: 0x0, symName: __ZNKSt3__122__compressed_pair_elemINS_9allocatorIcEELi1ELb1EE5__getB8ue170006Ev, symObjAddr: 0x6C60, symBinAddr: 0x1000119F0, symSize: 0x14 }
  - { offsetInCU: 0x26E9D, offset: 0x44A07, size: 0x8, addend: 0x0, symName: __ZNSt3__112basic_stringIcNS_11char_traitsIcEENS_9allocatorIcEEEC2B8ue170006ERKS4_, symObjAddr: 0x6C74, symBinAddr: 0x100011A04, symSize: 0x48 }
  - { offsetInCU: 0x26ED5, offset: 0x44A3F, size: 0x8, addend: 0x0, symName: __ZNSt3__117__compressed_pairINS_12basic_stringIcNS_11char_traitsIcEENS_9allocatorIcEEE5__repES5_EC1B8ue170006INS_18__default_init_tagERKS5_EEOT_OT0_, symObjAddr: 0x6CBC, symBinAddr: 0x100011A4C, symSize: 0x3C }
  - { offsetInCU: 0x26F2C, offset: 0x44A96, size: 0x8, addend: 0x0, symName: __ZNSt3__117__compressed_pairINS_12basic_stringIcNS_11char_traitsIcEENS_9allocatorIcEEE5__repES5_EC2B8ue170006INS_18__default_init_tagERKS5_EEOT_OT0_, symObjAddr: 0x6CF8, symBinAddr: 0x100011A88, symSize: 0x40 }
  - { offsetInCU: 0x26F83, offset: 0x44AED, size: 0x8, addend: 0x0, symName: __ZNSt3__122__compressed_pair_elemINS_9allocatorIcEELi1ELb1EEC2B8ue170006IRKS2_vEEOT_, symObjAddr: 0x6D38, symBinAddr: 0x100011AC8, symSize: 0x18 }
  - { offsetInCU: 0x26FE2, offset: 0x44B4C, size: 0x8, addend: 0x0, symName: __ZNKSt3__113basic_istreamIcNS_11char_traitsIcEEE6sentrycvbB8ue170006Ev, symObjAddr: 0x6D50, symBinAddr: 0x100011AE0, symSize: 0x1C }
  - { offsetInCU: 0x27007, offset: 0x44B71, size: 0x8, addend: 0x0, symName: __ZNSt3__112basic_stringIcNS_11char_traitsIcEENS_9allocatorIcEEE5clearB8ue170006Ev, symObjAddr: 0x6D6C, symBinAddr: 0x100011AFC, symSize: 0x78 }
  - { offsetInCU: 0x2702D, offset: 0x44B97, size: 0x8, addend: 0x0, symName: __ZNSt3__115basic_streambufIcNS_11char_traitsIcEEE6sbumpcB8ue170006Ev, symObjAddr: 0x6E08, symBinAddr: 0x100011B74, symSize: 0x78 }
  - { offsetInCU: 0x27052, offset: 0x44BBC, size: 0x8, addend: 0x0, symName: __ZNSt3__111char_traitsIcE12to_char_typeB8ue170006Ei, symObjAddr: 0x6EA8, symBinAddr: 0x100011BEC, symSize: 0x18 }
  - { offsetInCU: 0x27075, offset: 0x44BDF, size: 0x8, addend: 0x0, symName: __ZNSt3__111char_traitsIcE2eqEcc, symObjAddr: 0x6EC0, symBinAddr: 0x100011C04, symSize: 0x28 }
  - { offsetInCU: 0x270A6, offset: 0x44C10, size: 0x8, addend: 0x0, symName: __ZNKSt3__112basic_stringIcNS_11char_traitsIcEENS_9allocatorIcEEE8max_sizeB8ue170006Ev, symObjAddr: 0x6F3C, symBinAddr: 0x100011C2C, symSize: 0xAC }
  - { offsetInCU: 0x270F8, offset: 0x44C62, size: 0x8, addend: 0x0, symName: __ZNSt3__18ios_base18__setstate_nothrowB8ue170006Ej, symObjAddr: 0x6FE8, symBinAddr: 0x100011CD8, symSize: 0x64 }
  - { offsetInCU: 0x2712C, offset: 0x44C96, size: 0x8, addend: 0x0, symName: __ZNKSt3__19basic_iosIcNS_11char_traitsIcEEE10exceptionsB8ue170006Ev, symObjAddr: 0x704C, symBinAddr: 0x100011D3C, symSize: 0x24 }
  - { offsetInCU: 0x27151, offset: 0x44CBB, size: 0x8, addend: 0x0, symName: __ZNSt3__111char_traitsIcE6assignB8ue170006ERcRKc, symObjAddr: 0x70A8, symBinAddr: 0x100011D60, symSize: 0x24 }
  - { offsetInCU: 0x27182, offset: 0x44CEC, size: 0x8, addend: 0x0, symName: __ZNSt3__112basic_stringIcNS_11char_traitsIcEENS_9allocatorIcEEE18__get_long_pointerB8ue170006Ev, symObjAddr: 0x70CC, symBinAddr: 0x100011D84, symSize: 0x28 }
  - { offsetInCU: 0x271A7, offset: 0x44D11, size: 0x8, addend: 0x0, symName: __ZNSt3__112basic_stringIcNS_11char_traitsIcEENS_9allocatorIcEEE15__set_long_sizeB8ue170006Em, symObjAddr: 0x70F4, symBinAddr: 0x100011DAC, symSize: 0x38 }
  - { offsetInCU: 0x271DB, offset: 0x44D45, size: 0x8, addend: 0x0, symName: __ZNSt3__112basic_stringIcNS_11char_traitsIcEENS_9allocatorIcEEE19__get_short_pointerB8ue170006Ev, symObjAddr: 0x712C, symBinAddr: 0x100011DE4, symSize: 0x28 }
  - { offsetInCU: 0x27200, offset: 0x44D6A, size: 0x8, addend: 0x0, symName: __ZNSt3__112basic_stringIcNS_11char_traitsIcEENS_9allocatorIcEEE16__set_short_sizeB8ue170006Em, symObjAddr: 0x7154, symBinAddr: 0x100011E0C, symSize: 0x78 }
  - { offsetInCU: 0x27234, offset: 0x44D9E, size: 0x8, addend: 0x0, symName: __ZNSt3__114pointer_traitsIPcE10pointer_toB8ue170006ERc, symObjAddr: 0x7204, symBinAddr: 0x100011E84, symSize: 0x14 }
  - { offsetInCU: 0x27257, offset: 0x44DC1, size: 0x8, addend: 0x0, symName: __ZNSt3__111char_traitsIcE11to_int_typeB8ue170006Ec, symObjAddr: 0x7230, symBinAddr: 0x100011E98, symSize: 0x14 }
  - { offsetInCU: 0x27285, offset: 0x44DEF, size: 0x8, addend: 0x0, symName: __ZNSt3__116allocator_traitsINS_9allocatorIcEEE8max_sizeB8ue170006IS2_vEEmRKS2_, symObjAddr: 0x72A0, symBinAddr: 0x100011EAC, symSize: 0x24 }
  - { offsetInCU: 0x272B3, offset: 0x44E1D, size: 0x8, addend: 0x0, symName: __ZNSt3__114numeric_limitsImE3maxB8ue170006Ev, symObjAddr: 0x72C4, symBinAddr: 0x100011ED0, symSize: 0x14 }
  - { offsetInCU: 0x272C7, offset: 0x44E31, size: 0x8, addend: 0x0, symName: __ZNKSt3__19allocatorIcE8max_sizeB8ue170006Ev, symObjAddr: 0x72D8, symBinAddr: 0x100011EE4, symSize: 0x14 }
  - { offsetInCU: 0x272EC, offset: 0x44E56, size: 0x8, addend: 0x0, symName: __ZNSt3__123__libcpp_numeric_limitsImLb1EE3maxB8ue170006Ev, symObjAddr: 0x72EC, symBinAddr: 0x100011EF8, symSize: 0x8 }
  - { offsetInCU: 0x27300, offset: 0x44E6A, size: 0x8, addend: 0x0, symName: __ZNKSt3__18ios_base10exceptionsB8ue170006Ev, symObjAddr: 0x72F4, symBinAddr: 0x100011F00, symSize: 0x18 }
  - { offsetInCU: 0x27327, offset: 0x44E91, size: 0x8, addend: 0x0, symName: __ZNSt3__112__hash_tableINS_17__hash_value_typeINS_12basic_stringIcNS_11char_traitsIcEENS_9allocatorIcEEEENS_13unordered_mapIS7_dNS_4hashIS7_EENS_8equal_toIS7_EENS5_INS_4pairIKS7_dEEEEEEEENS_22__unordered_map_hasherIS7_SI_SA_SC_Lb1EEENS_21__unordered_map_equalIS7_SI_SC_SA_Lb1EEENS5_ISI_EEE5beginEv, symObjAddr: 0x74B8, symBinAddr: 0x100011F18, symSize: 0x38 }
  - { offsetInCU: 0x2734D, offset: 0x44EB7, size: 0x8, addend: 0x0, symName: __ZNSt3__119__hash_map_iteratorINS_15__hash_iteratorIPNS_11__hash_nodeINS_17__hash_value_typeINS_12basic_stringIcNS_11char_traitsIcEENS_9allocatorIcEEEENS_13unordered_mapIS9_dNS_4hashIS9_EENS_8equal_toIS9_EENS7_INS_4pairIKS9_dEEEEEEEEPvEEEEEC1B8ue170006ESO_, symObjAddr: 0x74F0, symBinAddr: 0x100011F50, symSize: 0x34 }
  - { offsetInCU: 0x27385, offset: 0x44EEF, size: 0x8, addend: 0x0, symName: __ZNSt3__115__hash_iteratorIPNS_11__hash_nodeINS_17__hash_value_typeINS_12basic_stringIcNS_11char_traitsIcEENS_9allocatorIcEEEENS_13unordered_mapIS8_dNS_4hashIS8_EENS_8equal_toIS8_EENS6_INS_4pairIKS8_dEEEEEEEEPvEEEC1B8ue170006EPNS_16__hash_node_baseISM_EE, symObjAddr: 0x7524, symBinAddr: 0x100011F84, symSize: 0x34 }
  - { offsetInCU: 0x273BD, offset: 0x44F27, size: 0x8, addend: 0x0, symName: __ZNSt3__115__hash_iteratorIPNS_11__hash_nodeINS_17__hash_value_typeINS_12basic_stringIcNS_11char_traitsIcEENS_9allocatorIcEEEENS_13unordered_mapIS8_dNS_4hashIS8_EENS_8equal_toIS8_EENS6_INS_4pairIKS8_dEEEEEEEEPvEEEC2B8ue170006EPNS_16__hash_node_baseISM_EE, symObjAddr: 0x7558, symBinAddr: 0x100011FB8, symSize: 0x20 }
  - { offsetInCU: 0x273F5, offset: 0x44F5F, size: 0x8, addend: 0x0, symName: __ZNSt3__119__hash_map_iteratorINS_15__hash_iteratorIPNS_11__hash_nodeINS_17__hash_value_typeINS_12basic_stringIcNS_11char_traitsIcEENS_9allocatorIcEEEENS_13unordered_mapIS9_dNS_4hashIS9_EENS_8equal_toIS9_EENS7_INS_4pairIKS9_dEEEEEEEEPvEEEEEC2B8ue170006ESO_, symObjAddr: 0x7578, symBinAddr: 0x100011FD8, symSize: 0x20 }
  - { offsetInCU: 0x2742D, offset: 0x44F97, size: 0x8, addend: 0x0, symName: __ZNSt3__112__hash_tableINS_17__hash_value_typeINS_12basic_stringIcNS_11char_traitsIcEENS_9allocatorIcEEEENS_13unordered_mapIS7_dNS_4hashIS7_EENS_8equal_toIS7_EENS5_INS_4pairIKS7_dEEEEEEEENS_22__unordered_map_hasherIS7_SI_SA_SC_Lb1EEENS_21__unordered_map_equalIS7_SI_SC_SA_Lb1EEENS5_ISI_EEE3endEv, symObjAddr: 0x7598, symBinAddr: 0x100011FF8, symSize: 0x2C }
  - { offsetInCU: 0x27453, offset: 0x44FBD, size: 0x8, addend: 0x0, symName: __ZNSt3__115__hash_iteratorIPNS_11__hash_nodeINS_17__hash_value_typeINS_12basic_stringIcNS_11char_traitsIcEENS_9allocatorIcEEEENS_13unordered_mapIS8_dNS_4hashIS8_EENS_8equal_toIS8_EENS6_INS_4pairIKS8_dEEEEEEEEPvEEEppB8ue170006Ev, symObjAddr: 0x7628, symBinAddr: 0x100012088, symSize: 0x20 }
  - { offsetInCU: 0x27478, offset: 0x44FE2, size: 0x8, addend: 0x0, symName: __ZNKSt3__115__hash_iteratorIPNS_11__hash_nodeINS_17__hash_value_typeINS_12basic_stringIcNS_11char_traitsIcEENS_9allocatorIcEEEENS_13unordered_mapIS8_dNS_4hashIS8_EENS_8equal_toIS8_EENS6_INS_4pairIKS8_dEEEEEEEEPvEEEptB8ue170006Ev, symObjAddr: 0x7648, symBinAddr: 0x1000120A8, symSize: 0x30 }
  - { offsetInCU: 0x2749D, offset: 0x45007, size: 0x8, addend: 0x0, symName: __ZNSt3__114pointer_traitsIPNS_17__hash_value_typeINS_12basic_stringIcNS_11char_traitsIcEENS_9allocatorIcEEEENS_13unordered_mapIS7_dNS_4hashIS7_EENS_8equal_toIS7_EENS5_INS_4pairIKS7_dEEEEEEEEE10pointer_toB8ue170006ERSI_, symObjAddr: 0x7678, symBinAddr: 0x1000120D8, symSize: 0x14 }
  - { offsetInCU: 0x274C0, offset: 0x4502A, size: 0x8, addend: 0x0, symName: __ZNKSt3__112__hash_tableINS_17__hash_value_typeINS_12basic_stringIcNS_11char_traitsIcEENS_9allocatorIcEEEEdEENS_22__unordered_map_hasherIS7_S8_NS_4hashIS7_EENS_8equal_toIS7_EELb1EEENS_21__unordered_map_equalIS7_S8_SD_SB_Lb1EEENS5_IS8_EEE4sizeB8ue170006Ev, symObjAddr: 0x768C, symBinAddr: 0x1000120EC, symSize: 0x2C }
  - { offsetInCU: 0x274E5, offset: 0x4504F, size: 0x8, addend: 0x0, symName: __ZNKSt3__117__compressed_pairImNS_22__unordered_map_hasherINS_12basic_stringIcNS_11char_traitsIcEENS_9allocatorIcEEEENS_17__hash_value_typeIS7_dEENS_4hashIS7_EENS_8equal_toIS7_EELb1EEEE5firstB8ue170006Ev, symObjAddr: 0x76B8, symBinAddr: 0x100012118, symSize: 0x24 }
  - { offsetInCU: 0x2750A, offset: 0x45074, size: 0x8, addend: 0x0, symName: __ZNSt3__16vectorINS_12basic_stringIcNS_11char_traitsIcEENS_9allocatorIcEEEENS4_IS6_EEE9__end_capB8ue170006Ev, symObjAddr: 0x76DC, symBinAddr: 0x10001213C, symSize: 0x28 }
  - { offsetInCU: 0x2752F, offset: 0x45099, size: 0x8, addend: 0x0, symName: __ZNSt3__16vectorINS_12basic_stringIcNS_11char_traitsIcEENS_9allocatorIcEEEENS4_IS6_EEE22__construct_one_at_endB8ue170006IJRKS6_EEEvDpOT_, symObjAddr: 0x7704, symBinAddr: 0x100012164, symSize: 0x90 }
  - { offsetInCU: 0x2757D, offset: 0x450E7, size: 0x8, addend: 0x0, symName: __ZNSt3__16vectorINS_12basic_stringIcNS_11char_traitsIcEENS_9allocatorIcEEEENS4_IS6_EEE21__push_back_slow_pathIRKS6_EEvOT_, symObjAddr: 0x7794, symBinAddr: 0x1000121F4, symSize: 0xD8 }
  - { offsetInCU: 0x275D9, offset: 0x45143, size: 0x8, addend: 0x0, symName: __ZNSt3__117__compressed_pairIPNS_12basic_stringIcNS_11char_traitsIcEENS_9allocatorIcEEEENS4_IS6_EEE5firstB8ue170006Ev, symObjAddr: 0x786C, symBinAddr: 0x1000122CC, symSize: 0x24 }
  - { offsetInCU: 0x275FE, offset: 0x45168, size: 0x8, addend: 0x0, symName: __ZNSt3__122__compressed_pair_elemIPNS_12basic_stringIcNS_11char_traitsIcEENS_9allocatorIcEEEELi0ELb0EE5__getB8ue170006Ev, symObjAddr: 0x7890, symBinAddr: 0x1000122F0, symSize: 0x14 }
  - { offsetInCU: 0x2763C, offset: 0x451A6, size: 0x8, addend: 0x0, symName: __ZNSt3__16vectorINS_12basic_stringIcNS_11char_traitsIcEENS_9allocatorIcEEEENS4_IS6_EEE21_ConstructTransactionC1B8ue170006ERS8_m, symObjAddr: 0x78A4, symBinAddr: 0x100012304, symSize: 0x3C }
  - { offsetInCU: 0x27683, offset: 0x451ED, size: 0x8, addend: 0x0, symName: __ZNSt3__116allocator_traitsINS_9allocatorINS_12basic_stringIcNS_11char_traitsIcEENS1_IcEEEEEEE9constructB8ue170006IS6_JRKS6_EvEEvRS7_PT_DpOT0_, symObjAddr: 0x78E0, symBinAddr: 0x100012340, symSize: 0x34 }
  - { offsetInCU: 0x276DA, offset: 0x45244, size: 0x8, addend: 0x0, symName: __ZNSt3__16vectorINS_12basic_stringIcNS_11char_traitsIcEENS_9allocatorIcEEEENS4_IS6_EEE21_ConstructTransactionD1B8ue170006Ev, symObjAddr: 0x7914, symBinAddr: 0x100012374, symSize: 0x2C }
  - { offsetInCU: 0x27703, offset: 0x4526D, size: 0x8, addend: 0x0, symName: __ZNSt3__16vectorINS_12basic_stringIcNS_11char_traitsIcEENS_9allocatorIcEEEENS4_IS6_EEE21_ConstructTransactionC2B8ue170006ERS8_m, symObjAddr: 0x7940, symBinAddr: 0x1000123A0, symSize: 0x4C }
  - { offsetInCU: 0x2774A, offset: 0x452B4, size: 0x8, addend: 0x0, symName: __ZNSt3__19allocatorINS_12basic_stringIcNS_11char_traitsIcEENS0_IcEEEEE9constructB8ue170006IS5_JRKS5_EEEvPT_DpOT0_, symObjAddr: 0x798C, symBinAddr: 0x1000123EC, symSize: 0x30 }
  - { offsetInCU: 0x2779F, offset: 0x45309, size: 0x8, addend: 0x0, symName: __ZNSt3__16vectorINS_12basic_stringIcNS_11char_traitsIcEENS_9allocatorIcEEEENS4_IS6_EEE21_ConstructTransactionD2B8ue170006Ev, symObjAddr: 0x79BC, symBinAddr: 0x10001241C, symSize: 0x20 }
  - { offsetInCU: 0x277C8, offset: 0x45332, size: 0x8, addend: 0x0, symName: __ZNKSt3__16vectorINS_12basic_stringIcNS_11char_traitsIcEENS_9allocatorIcEEEENS4_IS6_EEE11__recommendB8ue170006Em, symObjAddr: 0x79DC, symBinAddr: 0x10001243C, symSize: 0xB4 }
  - { offsetInCU: 0x2781B, offset: 0x45385, size: 0x8, addend: 0x0, symName: __ZNSt3__114__split_bufferINS_12basic_stringIcNS_11char_traitsIcEENS_9allocatorIcEEEERNS4_IS6_EEEC1EmmS8_, symObjAddr: 0x7A90, symBinAddr: 0x1000124F0, symSize: 0x44 }
  - { offsetInCU: 0x27870, offset: 0x453DA, size: 0x8, addend: 0x0, symName: __ZNSt3__114__split_bufferINS_12basic_stringIcNS_11char_traitsIcEENS_9allocatorIcEEEERNS4_IS6_EEED1Ev, symObjAddr: 0x7BE4, symBinAddr: 0x100012644, symSize: 0x2C }
  - { offsetInCU: 0x2789B, offset: 0x45405, size: 0x8, addend: 0x0, symName: __ZNKSt3__16vectorINS_12basic_stringIcNS_11char_traitsIcEENS_9allocatorIcEEEENS4_IS6_EEE8max_sizeEv, symObjAddr: 0x7C10, symBinAddr: 0x100012670, symSize: 0x60 }
  - { offsetInCU: 0x278C1, offset: 0x4542B, size: 0x8, addend: 0x0, symName: __ZNKSt3__16vectorINS_12basic_stringIcNS_11char_traitsIcEENS_9allocatorIcEEEENS4_IS6_EEE20__throw_length_errorB8ue170006Ev, symObjAddr: 0x7C70, symBinAddr: 0x1000126D0, symSize: 0x1C }
  - { offsetInCU: 0x278F0, offset: 0x4545A, size: 0x8, addend: 0x0, symName: __ZNSt3__116allocator_traitsINS_9allocatorINS_12basic_stringIcNS_11char_traitsIcEENS1_IcEEEEEEE8max_sizeB8ue170006IS7_vEEmRKS7_, symObjAddr: 0x7CE4, symBinAddr: 0x1000126EC, symSize: 0x24 }
  - { offsetInCU: 0x2791E, offset: 0x45488, size: 0x8, addend: 0x0, symName: __ZNKSt3__16vectorINS_12basic_stringIcNS_11char_traitsIcEENS_9allocatorIcEEEENS4_IS6_EEE7__allocB8ue170006Ev, symObjAddr: 0x7D08, symBinAddr: 0x100012710, symSize: 0x28 }
  - { offsetInCU: 0x2794D, offset: 0x454B7, size: 0x8, addend: 0x0, symName: __ZNKSt3__19allocatorINS_12basic_stringIcNS_11char_traitsIcEENS0_IcEEEEE8max_sizeB8ue170006Ev, symObjAddr: 0x7DCC, symBinAddr: 0x100012738, symSize: 0x18 }
  - { offsetInCU: 0x27972, offset: 0x454DC, size: 0x8, addend: 0x0, symName: __ZNKSt3__117__compressed_pairIPNS_12basic_stringIcNS_11char_traitsIcEENS_9allocatorIcEEEENS4_IS6_EEE6secondB8ue170006Ev, symObjAddr: 0x7DE4, symBinAddr: 0x100012750, symSize: 0x24 }
  - { offsetInCU: 0x27997, offset: 0x45501, size: 0x8, addend: 0x0, symName: __ZNKSt3__122__compressed_pair_elemINS_9allocatorINS_12basic_stringIcNS_11char_traitsIcEENS1_IcEEEEEELi1ELb1EE5__getB8ue170006Ev, symObjAddr: 0x7E08, symBinAddr: 0x100012774, symSize: 0x14 }
  - { offsetInCU: 0x279BC, offset: 0x45526, size: 0x8, addend: 0x0, symName: __ZNSt3__114__split_bufferINS_12basic_stringIcNS_11char_traitsIcEENS_9allocatorIcEEEERNS4_IS6_EEEC2EmmS8_, symObjAddr: 0x7F5C, symBinAddr: 0x100012788, symSize: 0xE0 }
  - { offsetInCU: 0x27A2F, offset: 0x45599, size: 0x8, addend: 0x0, symName: __ZNSt3__117__compressed_pairIPNS_12basic_stringIcNS_11char_traitsIcEENS_9allocatorIcEEEERNS4_IS6_EEEC1B8ue170006IDnS9_EEOT_OT0_, symObjAddr: 0x803C, symBinAddr: 0x100012868, symSize: 0x3C }
  - { offsetInCU: 0x27A86, offset: 0x455F0, size: 0x8, addend: 0x0, symName: __ZNSt3__114__split_bufferINS_12basic_stringIcNS_11char_traitsIcEENS_9allocatorIcEEEERNS4_IS6_EEE7__allocB8ue170006Ev, symObjAddr: 0x80B8, symBinAddr: 0x1000128E4, symSize: 0x28 }
  - { offsetInCU: 0x27AAB, offset: 0x45615, size: 0x8, addend: 0x0, symName: __ZNSt3__114__split_bufferINS_12basic_stringIcNS_11char_traitsIcEENS_9allocatorIcEEEERNS4_IS6_EEE9__end_capB8ue170006Ev, symObjAddr: 0x80E0, symBinAddr: 0x10001290C, symSize: 0x28 }
  - { offsetInCU: 0x27AD0, offset: 0x4563A, size: 0x8, addend: 0x0, symName: __ZNSt3__117__compressed_pairIPNS_12basic_stringIcNS_11char_traitsIcEENS_9allocatorIcEEEERNS4_IS6_EEEC2B8ue170006IDnS9_EEOT_OT0_, symObjAddr: 0x8108, symBinAddr: 0x100012934, symSize: 0x48 }
  - { offsetInCU: 0x27B27, offset: 0x45691, size: 0x8, addend: 0x0, symName: __ZNSt3__122__compressed_pair_elemIRNS_9allocatorINS_12basic_stringIcNS_11char_traitsIcEENS1_IcEEEEEELi1ELb0EEC2B8ue170006IS8_vEEOT_, symObjAddr: 0x8150, symBinAddr: 0x10001297C, symSize: 0x20 }
  - { offsetInCU: 0x27B68, offset: 0x456D2, size: 0x8, addend: 0x0, symName: __ZNSt3__19allocatorINS_12basic_stringIcNS_11char_traitsIcEENS0_IcEEEEE8allocateB8ue170006Em, symObjAddr: 0x8170, symBinAddr: 0x10001299C, symSize: 0x5C }
  - { offsetInCU: 0x27B9B, offset: 0x45705, size: 0x8, addend: 0x0, symName: __ZNSt3__117__compressed_pairIPNS_12basic_stringIcNS_11char_traitsIcEENS_9allocatorIcEEEERNS4_IS6_EEE6secondB8ue170006Ev, symObjAddr: 0x824C, symBinAddr: 0x1000129F8, symSize: 0x28 }
  - { offsetInCU: 0x27BC0, offset: 0x4572A, size: 0x8, addend: 0x0, symName: __ZNSt3__122__compressed_pair_elemIRNS_9allocatorINS_12basic_stringIcNS_11char_traitsIcEENS1_IcEEEEEELi1ELb0EE5__getB8ue170006Ev, symObjAddr: 0x8274, symBinAddr: 0x100012A20, symSize: 0x18 }
  - { offsetInCU: 0x27BE5, offset: 0x4574F, size: 0x8, addend: 0x0, symName: __ZNSt3__117__compressed_pairIPNS_12basic_stringIcNS_11char_traitsIcEENS_9allocatorIcEEEERNS4_IS6_EEE5firstB8ue170006Ev, symObjAddr: 0x828C, symBinAddr: 0x100012A38, symSize: 0x24 }
  - { offsetInCU: 0x27C0A, offset: 0x45774, size: 0x8, addend: 0x0, symName: __ZNSt3__116reverse_iteratorIPNS_12basic_stringIcNS_11char_traitsIcEENS_9allocatorIcEEEEEC1B8ue170006ES7_, symObjAddr: 0x83DC, symBinAddr: 0x100012B88, symSize: 0x34 }
  - { offsetInCU: 0x27C41, offset: 0x457AB, size: 0x8, addend: 0x0, symName: __ZNKSt3__116reverse_iteratorIPNS_12basic_stringIcNS_11char_traitsIcEENS_9allocatorIcEEEEE4baseB8ue170006Ev, symObjAddr: 0x8410, symBinAddr: 0x100012BBC, symSize: 0x18 }
  - { offsetInCU: 0x27C66, offset: 0x457D0, size: 0x8, addend: 0x0, symName: __ZNKSt3__16vectorINS_12basic_stringIcNS_11char_traitsIcEENS_9allocatorIcEEEENS4_IS6_EEE14__annotate_newB8ue170006Em, symObjAddr: 0x8464, symBinAddr: 0x100012C10, symSize: 0xC8 }
  - { offsetInCU: 0x27C9A, offset: 0x45804, size: 0x8, addend: 0x0, symName: __ZNSt3__129_AllocatorDestroyRangeReverseINS_9allocatorINS_12basic_stringIcNS_11char_traitsIcEENS1_IcEEEEEENS_16reverse_iteratorIPS6_EEEC1B8ue170006ERS7_RSA_SD_, symObjAddr: 0x8578, symBinAddr: 0x100012D24, symSize: 0x44 }
  - { offsetInCU: 0x27CF5, offset: 0x4585F, size: 0x8, addend: 0x0, symName: __ZNSt3__116allocator_traitsINS_9allocatorINS_12basic_stringIcNS_11char_traitsIcEENS1_IcEEEEEEE9constructB8ue170006IS6_JS6_EvEEvRS7_PT_DpOT0_, symObjAddr: 0x8604, symBinAddr: 0x100012DB0, symSize: 0x34 }
  - { offsetInCU: 0x27D4C, offset: 0x458B6, size: 0x8, addend: 0x0, symName: __ZNKSt3__116reverse_iteratorIPNS_12basic_stringIcNS_11char_traitsIcEENS_9allocatorIcEEEEEdeB8ue170006Ev, symObjAddr: 0x865C, symBinAddr: 0x100012E08, symSize: 0x28 }
  - { offsetInCU: 0x27D7F, offset: 0x458E9, size: 0x8, addend: 0x0, symName: __ZNSt3__116reverse_iteratorIPNS_12basic_stringIcNS_11char_traitsIcEENS_9allocatorIcEEEEEppB8ue170006Ev, symObjAddr: 0x8684, symBinAddr: 0x100012E30, symSize: 0x20 }
  - { offsetInCU: 0x27DA4, offset: 0x4590E, size: 0x8, addend: 0x0, symName: __ZNSt3__128__exception_guard_exceptionsINS_29_AllocatorDestroyRangeReverseINS_9allocatorINS_12basic_stringIcNS_11char_traitsIcEENS2_IcEEEEEENS_16reverse_iteratorIPS7_EEEEE10__completeB8ue170006Ev, symObjAddr: 0x86A4, symBinAddr: 0x100012E50, symSize: 0x1C }
  - { offsetInCU: 0x27DC9, offset: 0x45933, size: 0x8, addend: 0x0, symName: __ZNSt3__128__exception_guard_exceptionsINS_29_AllocatorDestroyRangeReverseINS_9allocatorINS_12basic_stringIcNS_11char_traitsIcEENS2_IcEEEEEENS_16reverse_iteratorIPS7_EEEEED1B8ue170006Ev, symObjAddr: 0x86C0, symBinAddr: 0x100012E6C, symSize: 0x2C }
  - { offsetInCU: 0x27DF2, offset: 0x4595C, size: 0x8, addend: 0x0, symName: __ZNSt3__128__exception_guard_exceptionsINS_29_AllocatorDestroyRangeReverseINS_9allocatorINS_12basic_stringIcNS_11char_traitsIcEENS2_IcEEEEEENS_16reverse_iteratorIPS7_EEEEEC1B8ue170006ESC_, symObjAddr: 0x86EC, symBinAddr: 0x100012E98, symSize: 0x34 }
  - { offsetInCU: 0x27E2A, offset: 0x45994, size: 0x8, addend: 0x0, symName: __ZNSt3__128__exception_guard_exceptionsINS_29_AllocatorDestroyRangeReverseINS_9allocatorINS_12basic_stringIcNS_11char_traitsIcEENS2_IcEEEEEENS_16reverse_iteratorIPS7_EEEEEC2B8ue170006ESC_, symObjAddr: 0x8720, symBinAddr: 0x100012ECC, symSize: 0x30 }
  - { offsetInCU: 0x27E62, offset: 0x459CC, size: 0x8, addend: 0x0, symName: __ZNSt3__129_AllocatorDestroyRangeReverseINS_9allocatorINS_12basic_stringIcNS_11char_traitsIcEENS1_IcEEEEEENS_16reverse_iteratorIPS6_EEEC2B8ue170006ERS7_RSA_SD_, symObjAddr: 0x8750, symBinAddr: 0x100012EFC, symSize: 0x38 }
  - { offsetInCU: 0x27EB8, offset: 0x45A22, size: 0x8, addend: 0x0, symName: __ZNSt3__19allocatorINS_12basic_stringIcNS_11char_traitsIcEENS0_IcEEEEE9constructB8ue170006IS5_JS5_EEEvPT_DpOT0_, symObjAddr: 0x8788, symBinAddr: 0x100012F34, symSize: 0x30 }
  - { offsetInCU: 0x27F0D, offset: 0x45A77, size: 0x8, addend: 0x0, symName: __ZNSt3__112basic_stringIcNS_11char_traitsIcEENS_9allocatorIcEEEC1B8ue170006EOS5_, symObjAddr: 0x87B8, symBinAddr: 0x100012F64, symSize: 0x34 }
  - { offsetInCU: 0x27F45, offset: 0x45AAF, size: 0x8, addend: 0x0, symName: __ZNSt3__112basic_stringIcNS_11char_traitsIcEENS_9allocatorIcEEEC2B8ue170006EOS5_, symObjAddr: 0x87EC, symBinAddr: 0x100012F98, symSize: 0x48 }
  - { offsetInCU: 0x27F82, offset: 0x45AEC, size: 0x8, addend: 0x0, symName: __ZNSt3__119__to_address_helperINS_16reverse_iteratorIPNS_12basic_stringIcNS_11char_traitsIcEENS_9allocatorIcEEEEEEvE6__callB8ue170006ERKS9_, symObjAddr: 0x8834, symBinAddr: 0x100012FE0, symSize: 0x38 }
  - { offsetInCU: 0x27FA5, offset: 0x45B0F, size: 0x8, addend: 0x0, symName: __ZNKSt3__116reverse_iteratorIPNS_12basic_stringIcNS_11char_traitsIcEENS_9allocatorIcEEEEEptB8ue170006Ev, symObjAddr: 0x886C, symBinAddr: 0x100013018, symSize: 0x24 }
  - { offsetInCU: 0x27FCA, offset: 0x45B34, size: 0x8, addend: 0x0, symName: __ZNSt3__128__exception_guard_exceptionsINS_29_AllocatorDestroyRangeReverseINS_9allocatorINS_12basic_stringIcNS_11char_traitsIcEENS2_IcEEEEEENS_16reverse_iteratorIPS7_EEEEED2B8ue170006Ev, symObjAddr: 0x8890, symBinAddr: 0x10001303C, symSize: 0x50 }
  - { offsetInCU: 0x27FF3, offset: 0x45B5D, size: 0x8, addend: 0x0, symName: __ZNKSt3__129_AllocatorDestroyRangeReverseINS_9allocatorINS_12basic_stringIcNS_11char_traitsIcEENS1_IcEEEEEENS_16reverse_iteratorIPS6_EEEclB8ue170006Ev, symObjAddr: 0x88E0, symBinAddr: 0x10001308C, symSize: 0xB4 }
  - { offsetInCU: 0x28019, offset: 0x45B83, size: 0x8, addend: 0x0, symName: __ZNSt3__116reverse_iteratorINS0_IPNS_12basic_stringIcNS_11char_traitsIcEENS_9allocatorIcEEEEEEEC1B8ue170006ES8_, symObjAddr: 0x8A04, symBinAddr: 0x1000131B0, symSize: 0x3C }
  - { offsetInCU: 0x28050, offset: 0x45BBA, size: 0x8, addend: 0x0, symName: __ZNSt3__116reverse_iteratorINS0_IPNS_12basic_stringIcNS_11char_traitsIcEENS_9allocatorIcEEEEEEEppB8ue170006Ev, symObjAddr: 0x8AC4, symBinAddr: 0x100013270, symSize: 0x30 }
  - { offsetInCU: 0x28075, offset: 0x45BDF, size: 0x8, addend: 0x0, symName: __ZNKSt3__116reverse_iteratorINS0_IPNS_12basic_stringIcNS_11char_traitsIcEENS_9allocatorIcEEEEEEE4baseB8ue170006Ev, symObjAddr: 0x8AF4, symBinAddr: 0x1000132A0, symSize: 0x24 }
  - { offsetInCU: 0x2809F, offset: 0x45C09, size: 0x8, addend: 0x0, symName: __ZNSt3__119__to_address_helperINS_16reverse_iteratorINS1_IPNS_12basic_stringIcNS_11char_traitsIcEENS_9allocatorIcEEEEEEEEvE6__callB8ue170006ERKSA_, symObjAddr: 0x8B18, symBinAddr: 0x1000132C4, symSize: 0x38 }
  - { offsetInCU: 0x280C2, offset: 0x45C2C, size: 0x8, addend: 0x0, symName: __ZNKSt3__116reverse_iteratorINS0_IPNS_12basic_stringIcNS_11char_traitsIcEENS_9allocatorIcEEEEEEEptB8ue170006Ev, symObjAddr: 0x8B50, symBinAddr: 0x1000132FC, symSize: 0x24 }
  - { offsetInCU: 0x280E7, offset: 0x45C51, size: 0x8, addend: 0x0, symName: __ZNKSt3__116reverse_iteratorINS0_IPNS_12basic_stringIcNS_11char_traitsIcEENS_9allocatorIcEEEEEEEdeB8ue170006Ev, symObjAddr: 0x8B74, symBinAddr: 0x100013320, symSize: 0x34 }
  - { offsetInCU: 0x2811A, offset: 0x45C84, size: 0x8, addend: 0x0, symName: __ZNSt3__116reverse_iteratorIPNS_12basic_stringIcNS_11char_traitsIcEENS_9allocatorIcEEEEEmmB8ue170006Ev, symObjAddr: 0x8BA8, symBinAddr: 0x100013354, symSize: 0x20 }
  - { offsetInCU: 0x2813F, offset: 0x45CA9, size: 0x8, addend: 0x0, symName: __ZNSt3__116reverse_iteratorINS0_IPNS_12basic_stringIcNS_11char_traitsIcEENS_9allocatorIcEEEEEEEC2B8ue170006ES8_, symObjAddr: 0x8BC8, symBinAddr: 0x100013374, symSize: 0x2C }
  - { offsetInCU: 0x28176, offset: 0x45CE0, size: 0x8, addend: 0x0, symName: __ZNSt3__116reverse_iteratorIPNS_12basic_stringIcNS_11char_traitsIcEENS_9allocatorIcEEEEEC2B8ue170006ES7_, symObjAddr: 0x8BF4, symBinAddr: 0x1000133A0, symSize: 0x28 }
  - { offsetInCU: 0x281AD, offset: 0x45D17, size: 0x8, addend: 0x0, symName: __ZNSt3__114__split_bufferINS_12basic_stringIcNS_11char_traitsIcEENS_9allocatorIcEEEERNS4_IS6_EEED2Ev, symObjAddr: 0x8C1C, symBinAddr: 0x1000133C8, symSize: 0x8C }
  - { offsetInCU: 0x281D8, offset: 0x45D42, size: 0x8, addend: 0x0, symName: __ZNSt3__114__split_bufferINS_12basic_stringIcNS_11char_traitsIcEENS_9allocatorIcEEEERNS4_IS6_EEE5clearB8ue170006Ev, symObjAddr: 0x8CA8, symBinAddr: 0x100013454, symSize: 0x28 }
  - { offsetInCU: 0x281FD, offset: 0x45D67, size: 0x8, addend: 0x0, symName: __ZNKSt3__114__split_bufferINS_12basic_stringIcNS_11char_traitsIcEENS_9allocatorIcEEEERNS4_IS6_EEE8capacityB8ue170006Ev, symObjAddr: 0x8CD0, symBinAddr: 0x10001347C, symSize: 0x40 }
  - { offsetInCU: 0x28222, offset: 0x45D8C, size: 0x8, addend: 0x0, symName: __ZNSt3__114__split_bufferINS_12basic_stringIcNS_11char_traitsIcEENS_9allocatorIcEEEERNS4_IS6_EEE17__destruct_at_endB8ue170006EPS6_, symObjAddr: 0x8D10, symBinAddr: 0x1000134BC, symSize: 0x2C }
  - { offsetInCU: 0x28255, offset: 0x45DBF, size: 0x8, addend: 0x0, symName: __ZNSt3__114__split_bufferINS_12basic_stringIcNS_11char_traitsIcEENS_9allocatorIcEEEERNS4_IS6_EEE17__destruct_at_endB8ue170006EPS6_NS_17integral_constantIbLb0EEE, symObjAddr: 0x8D3C, symBinAddr: 0x1000134E8, symSize: 0x80 }
  - { offsetInCU: 0x28294, offset: 0x45DFE, size: 0x8, addend: 0x0, symName: __ZNKSt3__114__split_bufferINS_12basic_stringIcNS_11char_traitsIcEENS_9allocatorIcEEEERNS4_IS6_EEE9__end_capB8ue170006Ev, symObjAddr: 0x8DBC, symBinAddr: 0x100013568, symSize: 0x28 }
  - { offsetInCU: 0x282B9, offset: 0x45E23, size: 0x8, addend: 0x0, symName: __ZNKSt3__117__compressed_pairIPNS_12basic_stringIcNS_11char_traitsIcEENS_9allocatorIcEEEERNS4_IS6_EEE5firstB8ue170006Ev, symObjAddr: 0x8DE4, symBinAddr: 0x100013590, symSize: 0x24 }
  - { offsetInCU: 0x282DE, offset: 0x45E48, size: 0x8, addend: 0x0, symName: __ZNKSt3__112__hash_tableINS_17__hash_value_typeINS_12basic_stringIcNS_11char_traitsIcEENS_9allocatorIcEEEENS_13unordered_mapIS7_dNS_4hashIS7_EENS_8equal_toIS7_EENS5_INS_4pairIKS7_dEEEEEEEENS_22__unordered_map_hasherIS7_SI_SA_SC_Lb1EEENS_21__unordered_map_equalIS7_SI_SC_SA_Lb1EEENS5_ISI_EEE4sizeB8ue170006Ev, symObjAddr: 0x8E08, symBinAddr: 0x1000135B4, symSize: 0x2C }
  - { offsetInCU: 0x28303, offset: 0x45E6D, size: 0x8, addend: 0x0, symName: __ZNKSt3__117__compressed_pairImNS_22__unordered_map_hasherINS_12basic_stringIcNS_11char_traitsIcEENS_9allocatorIcEEEENS_17__hash_value_typeIS7_NS_13unordered_mapIS7_dNS_4hashIS7_EENS_8equal_toIS7_EENS5_INS_4pairIKS7_dEEEEEEEESB_SD_Lb1EEEE5firstB8ue170006Ev, symObjAddr: 0x8E34, symBinAddr: 0x1000135E0, symSize: 0x24 }
  - { offsetInCU: 0x2833C, offset: 0x45EA6, size: 0x8, addend: 0x0, symName: __ZNSt3__112__hash_tableINS_17__hash_value_typeINS_12basic_stringIcNS_11char_traitsIcEENS_9allocatorIcEEEENS_13unordered_mapIS7_dNS_4hashIS7_EENS_8equal_toIS7_EENS5_INS_4pairIKS7_dEEEEEEEENS_22__unordered_map_hasherIS7_SI_SA_SC_Lb1EEENS_21__unordered_map_equalIS7_SI_SC_SA_Lb1EEENS5_ISI_EEE25__emplace_unique_key_argsIS7_JRKNS_21piecewise_construct_tENS_5tupleIJRSE_EEENST_IJEEEEEENSD_INS_15__hash_iteratorIPNS_11__hash_nodeISI_PvEEEEbEERKT_DpOT0_, symObjAddr: 0x8E58, symBinAddr: 0x100013604, symSize: 0x4E8 }
  - { offsetInCU: 0x28444, offset: 0x45FAE, size: 0x8, addend: 0x0, symName: __ZNSt3__112__hash_tableINS_17__hash_value_typeINS_12basic_stringIcNS_11char_traitsIcEENS_9allocatorIcEEEENS_13unordered_mapIS7_dNS_4hashIS7_EENS_8equal_toIS7_EENS5_INS_4pairIKS7_dEEEEEEEENS_22__unordered_map_hasherIS7_SI_SA_SC_Lb1EEENS_21__unordered_map_equalIS7_SI_SC_SA_Lb1EEENS5_ISI_EEE13hash_functionB8ue170006Ev, symObjAddr: 0x9370, symBinAddr: 0x100013B1C, symSize: 0x28 }
  - { offsetInCU: 0x28469, offset: 0x45FD3, size: 0x8, addend: 0x0, symName: __ZNKSt3__122__unordered_map_hasherINS_12basic_stringIcNS_11char_traitsIcEENS_9allocatorIcEEEENS_17__hash_value_typeIS6_NS_13unordered_mapIS6_dNS_4hashIS6_EENS_8equal_toIS6_EENS4_INS_4pairIKS6_dEEEEEEEESA_SC_Lb1EEclB8ue170006ERSE_, symObjAddr: 0x9398, symBinAddr: 0x100013B44, symSize: 0x2C }
  - { offsetInCU: 0x2849D, offset: 0x46007, size: 0x8, addend: 0x0, symName: __ZNKSt3__112__hash_tableINS_17__hash_value_typeINS_12basic_stringIcNS_11char_traitsIcEENS_9allocatorIcEEEENS_13unordered_mapIS7_dNS_4hashIS7_EENS_8equal_toIS7_EENS5_INS_4pairIKS7_dEEEEEEEENS_22__unordered_map_hasherIS7_SI_SA_SC_Lb1EEENS_21__unordered_map_equalIS7_SI_SC_SA_Lb1EEENS5_ISI_EEE12bucket_countB8ue170006Ev, symObjAddr: 0x93C4, symBinAddr: 0x100013B70, symSize: 0x28 }
  - { offsetInCU: 0x284C2, offset: 0x4602C, size: 0x8, addend: 0x0, symName: __ZNKSt3__110unique_ptrIA_PNS_16__hash_node_baseIPNS_11__hash_nodeINS_17__hash_value_typeINS_12basic_stringIcNS_11char_traitsIcEENS_9allocatorIcEEEENS_13unordered_mapIS9_dNS_4hashIS9_EENS_8equal_toIS9_EENS7_INS_4pairIKS9_dEEEEEEEEPvEEEENS_25__bucket_list_deallocatorINS7_ISP_EEEEEixB8ue170006Em, symObjAddr: 0x9484, symBinAddr: 0x100013B98, symSize: 0x34 }
  - { offsetInCU: 0x284F6, offset: 0x46060, size: 0x8, addend: 0x0, symName: __ZNKSt3__116__hash_node_baseIPNS_11__hash_nodeINS_17__hash_value_typeINS_12basic_stringIcNS_11char_traitsIcEENS_9allocatorIcEEEENS_13unordered_mapIS8_dNS_4hashIS8_EENS_8equal_toIS8_EENS6_INS_4pairIKS8_dEEEEEEEEPvEEE6__hashB8ue170006Ev, symObjAddr: 0x94B8, symBinAddr: 0x100013BCC, symSize: 0x18 }
  - { offsetInCU: 0x2851B, offset: 0x46085, size: 0x8, addend: 0x0, symName: __ZNSt3__112__hash_tableINS_17__hash_value_typeINS_12basic_stringIcNS_11char_traitsIcEENS_9allocatorIcEEEENS_13unordered_mapIS7_dNS_4hashIS7_EENS_8equal_toIS7_EENS5_INS_4pairIKS7_dEEEEEEEENS_22__unordered_map_hasherIS7_SI_SA_SC_Lb1EEENS_21__unordered_map_equalIS7_SI_SC_SA_Lb1EEENS5_ISI_EEE6key_eqB8ue170006Ev, symObjAddr: 0x94D0, symBinAddr: 0x100013BE4, symSize: 0x28 }
  - { offsetInCU: 0x28540, offset: 0x460AA, size: 0x8, addend: 0x0, symName: __ZNKSt3__121__unordered_map_equalINS_12basic_stringIcNS_11char_traitsIcEENS_9allocatorIcEEEENS_17__hash_value_typeIS6_NS_13unordered_mapIS6_dNS_4hashIS6_EENS_8equal_toIS6_EENS4_INS_4pairIKS6_dEEEEEEEESC_SA_Lb1EEclB8ue170006ERKSI_RSE_, symObjAddr: 0x94F8, symBinAddr: 0x100013C0C, symSize: 0x48 }
  - { offsetInCU: 0x28583, offset: 0x460ED, size: 0x8, addend: 0x0, symName: __ZNSt3__112__hash_tableINS_17__hash_value_typeINS_12basic_stringIcNS_11char_traitsIcEENS_9allocatorIcEEEENS_13unordered_mapIS7_dNS_4hashIS7_EENS_8equal_toIS7_EENS5_INS_4pairIKS7_dEEEEEEEENS_22__unordered_map_hasherIS7_SI_SA_SC_Lb1EEENS_21__unordered_map_equalIS7_SI_SC_SA_Lb1EEENS5_ISI_EEE21__construct_node_hashIRKNS_21piecewise_construct_tEJNS_5tupleIJRSE_EEENST_IJEEEEEENS_10unique_ptrINS_11__hash_nodeISI_PvEENS_22__hash_node_destructorINS5_IS10_EEEEEEmOT_DpOT0_, symObjAddr: 0x9540, symBinAddr: 0x100013C54, symSize: 0x150 }
  - { offsetInCU: 0x2861D, offset: 0x46187, size: 0x8, addend: 0x0, symName: __ZNSt3__112__hash_tableINS_17__hash_value_typeINS_12basic_stringIcNS_11char_traitsIcEENS_9allocatorIcEEEENS_13unordered_mapIS7_dNS_4hashIS7_EENS_8equal_toIS7_EENS5_INS_4pairIKS7_dEEEEEEEENS_22__unordered_map_hasherIS7_SI_SA_SC_Lb1EEENS_21__unordered_map_equalIS7_SI_SC_SA_Lb1EEENS5_ISI_EEE4sizeB8ue170006Ev, symObjAddr: 0x9690, symBinAddr: 0x100013DA4, symSize: 0x28 }
  - { offsetInCU: 0x28642, offset: 0x461AC, size: 0x8, addend: 0x0, symName: __ZNSt3__112__hash_tableINS_17__hash_value_typeINS_12basic_stringIcNS_11char_traitsIcEENS_9allocatorIcEEEENS_13unordered_mapIS7_dNS_4hashIS7_EENS_8equal_toIS7_EENS5_INS_4pairIKS7_dEEEEEEEENS_22__unordered_map_hasherIS7_SI_SA_SC_Lb1EEENS_21__unordered_map_equalIS7_SI_SC_SA_Lb1EEENS5_ISI_EEE15max_load_factorB8ue170006Ev, symObjAddr: 0x96B8, symBinAddr: 0x100013DCC, symSize: 0x28 }
  - { offsetInCU: 0x28667, offset: 0x461D1, size: 0x8, addend: 0x0, symName: __ZNSt3__112__hash_tableINS_17__hash_value_typeINS_12basic_stringIcNS_11char_traitsIcEENS_9allocatorIcEEEENS_13unordered_mapIS7_dNS_4hashIS7_EENS_8equal_toIS7_EENS5_INS_4pairIKS7_dEEEEEEEENS_22__unordered_map_hasherIS7_SI_SA_SC_Lb1EEENS_21__unordered_map_equalIS7_SI_SC_SA_Lb1EEENS5_ISI_EEE15__rehash_uniqueB8ue170006Em, symObjAddr: 0x96E0, symBinAddr: 0x100013DF4, symSize: 0x2C }
  - { offsetInCU: 0x2869B, offset: 0x46205, size: 0x8, addend: 0x0, symName: __ZNSt3__116__hash_node_baseIPNS_11__hash_nodeINS_17__hash_value_typeINS_12basic_stringIcNS_11char_traitsIcEENS_9allocatorIcEEEENS_13unordered_mapIS8_dNS_4hashIS8_EENS_8equal_toIS8_EENS6_INS_4pairIKS8_dEEEEEEEEPvEEE5__ptrB8ue170006Ev, symObjAddr: 0x9774, symBinAddr: 0x100013E20, symSize: 0x24 }
  - { offsetInCU: 0x286C0, offset: 0x4622A, size: 0x8, addend: 0x0, symName: __ZNKSt3__110unique_ptrINS_11__hash_nodeINS_17__hash_value_typeINS_12basic_stringIcNS_11char_traitsIcEENS_9allocatorIcEEEENS_13unordered_mapIS8_dNS_4hashIS8_EENS_8equal_toIS8_EENS6_INS_4pairIKS8_dEEEEEEEEPvEENS_22__hash_node_destructorINS6_ISL_EEEEEptB8ue170006Ev, symObjAddr: 0x9798, symBinAddr: 0x100013E44, symSize: 0x28 }
  - { offsetInCU: 0x286E5, offset: 0x4624F, size: 0x8, addend: 0x0, symName: __ZNKSt3__110unique_ptrINS_11__hash_nodeINS_17__hash_value_typeINS_12basic_stringIcNS_11char_traitsIcEENS_9allocatorIcEEEENS_13unordered_mapIS8_dNS_4hashIS8_EENS_8equal_toIS8_EENS6_INS_4pairIKS8_dEEEEEEEEPvEENS_22__hash_node_destructorINS6_ISL_EEEEE3getB8ue170006Ev, symObjAddr: 0x97C0, symBinAddr: 0x100013E6C, symSize: 0x28 }
  - { offsetInCU: 0x2870A, offset: 0x46274, size: 0x8, addend: 0x0, symName: __ZNSt3__110unique_ptrINS_11__hash_nodeINS_17__hash_value_typeINS_12basic_stringIcNS_11char_traitsIcEENS_9allocatorIcEEEENS_13unordered_mapIS8_dNS_4hashIS8_EENS_8equal_toIS8_EENS6_INS_4pairIKS8_dEEEEEEEEPvEENS_22__hash_node_destructorINS6_ISL_EEEEE7releaseB8ue170006Ev, symObjAddr: 0x97E8, symBinAddr: 0x100013E94, symSize: 0x44 }
  - { offsetInCU: 0x2873E, offset: 0x462A8, size: 0x8, addend: 0x0, symName: __ZNSt3__110unique_ptrINS_11__hash_nodeINS_17__hash_value_typeINS_12basic_stringIcNS_11char_traitsIcEENS_9allocatorIcEEEENS_13unordered_mapIS8_dNS_4hashIS8_EENS_8equal_toIS8_EENS6_INS_4pairIKS8_dEEEEEEEEPvEENS_22__hash_node_destructorINS6_ISL_EEEEED1B8ue170006Ev, symObjAddr: 0x982C, symBinAddr: 0x100013ED8, symSize: 0x2C }
  - { offsetInCU: 0x2876C, offset: 0x462D6, size: 0x8, addend: 0x0, symName: __ZNSt3__14pairINS_15__hash_iteratorIPNS_11__hash_nodeINS_17__hash_value_typeINS_12basic_stringIcNS_11char_traitsIcEENS_9allocatorIcEEEENS_13unordered_mapIS9_dNS_4hashIS9_EENS_8equal_toIS9_EENS7_INS0_IKS9_dEEEEEEEEPvEEEEbEC1B8ue170006ISN_RbLSK_0EEEOT_OT0_, symObjAddr: 0x9858, symBinAddr: 0x100013F04, symSize: 0x3C }
  - { offsetInCU: 0x287C9, offset: 0x46333, size: 0x8, addend: 0x0, symName: __ZNSt3__117__compressed_pairImNS_22__unordered_map_hasherINS_12basic_stringIcNS_11char_traitsIcEENS_9allocatorIcEEEENS_17__hash_value_typeIS7_NS_13unordered_mapIS7_dNS_4hashIS7_EENS_8equal_toIS7_EENS5_INS_4pairIKS7_dEEEEEEEESB_SD_Lb1EEEE6secondB8ue170006Ev, symObjAddr: 0x9894, symBinAddr: 0x100013F40, symSize: 0x24 }
  - { offsetInCU: 0x287EE, offset: 0x46358, size: 0x8, addend: 0x0, symName: __ZNSt3__122__compressed_pair_elemINS_22__unordered_map_hasherINS_12basic_stringIcNS_11char_traitsIcEENS_9allocatorIcEEEENS_17__hash_value_typeIS7_NS_13unordered_mapIS7_dNS_4hashIS7_EENS_8equal_toIS7_EENS5_INS_4pairIKS7_dEEEEEEEESB_SD_Lb1EEELi1ELb1EE5__getB8ue170006Ev, symObjAddr: 0x98B8, symBinAddr: 0x100013F64, symSize: 0x14 }
  - { offsetInCU: 0x28813, offset: 0x4637D, size: 0x8, addend: 0x0, symName: __ZNKSt3__110unique_ptrIA_PNS_16__hash_node_baseIPNS_11__hash_nodeINS_17__hash_value_typeINS_12basic_stringIcNS_11char_traitsIcEENS_9allocatorIcEEEENS_13unordered_mapIS9_dNS_4hashIS9_EENS_8equal_toIS9_EENS7_INS_4pairIKS9_dEEEEEEEEPvEEEENS_25__bucket_list_deallocatorINS7_ISP_EEEEE11get_deleterB8ue170006Ev, symObjAddr: 0xA6D8, symBinAddr: 0x100013F78, symSize: 0x24 }
  - { offsetInCU: 0x28838, offset: 0x463A2, size: 0x8, addend: 0x0, symName: __ZNKSt3__125__bucket_list_deallocatorINS_9allocatorIPNS_16__hash_node_baseIPNS_11__hash_nodeINS_17__hash_value_typeINS_12basic_stringIcNS_11char_traitsIcEENS1_IcEEEENS_13unordered_mapIS9_dNS_4hashIS9_EENS_8equal_toIS9_EENS1_INS_4pairIKS9_dEEEEEEEEPvEEEEEEE4sizeB8ue170006Ev, symObjAddr: 0xA6FC, symBinAddr: 0x100013F9C, symSize: 0x28 }
  - { offsetInCU: 0x2885D, offset: 0x463C7, size: 0x8, addend: 0x0, symName: __ZNKSt3__117__compressed_pairIPPNS_16__hash_node_baseIPNS_11__hash_nodeINS_17__hash_value_typeINS_12basic_stringIcNS_11char_traitsIcEENS_9allocatorIcEEEENS_13unordered_mapIS9_dNS_4hashIS9_EENS_8equal_toIS9_EENS7_INS_4pairIKS9_dEEEEEEEEPvEEEENS_25__bucket_list_deallocatorINS7_ISP_EEEEE6secondB8ue170006Ev, symObjAddr: 0xA724, symBinAddr: 0x100013FC4, symSize: 0x28 }
  - { offsetInCU: 0x28882, offset: 0x463EC, size: 0x8, addend: 0x0, symName: __ZNKSt3__122__compressed_pair_elemINS_25__bucket_list_deallocatorINS_9allocatorIPNS_16__hash_node_baseIPNS_11__hash_nodeINS_17__hash_value_typeINS_12basic_stringIcNS_11char_traitsIcEENS2_IcEEEENS_13unordered_mapISA_dNS_4hashISA_EENS_8equal_toISA_EENS2_INS_4pairIKSA_dEEEEEEEEPvEEEEEEEELi1ELb0EE5__getB8ue170006Ev, symObjAddr: 0xA74C, symBinAddr: 0x100013FEC, symSize: 0x14 }
  - { offsetInCU: 0x288A7, offset: 0x46411, size: 0x8, addend: 0x0, symName: __ZNKSt3__117__compressed_pairImNS_9allocatorIPNS_16__hash_node_baseIPNS_11__hash_nodeINS_17__hash_value_typeINS_12basic_stringIcNS_11char_traitsIcEENS1_IcEEEENS_13unordered_mapIS9_dNS_4hashIS9_EENS_8equal_toIS9_EENS1_INS_4pairIKS9_dEEEEEEEEPvEEEEEEE5firstB8ue170006Ev, symObjAddr: 0xA760, symBinAddr: 0x100014000, symSize: 0x24 }
  - { offsetInCU: 0x288CC, offset: 0x46436, size: 0x8, addend: 0x0, symName: __ZNKSt3__117__compressed_pairIPPNS_16__hash_node_baseIPNS_11__hash_nodeINS_17__hash_value_typeINS_12basic_stringIcNS_11char_traitsIcEENS_9allocatorIcEEEENS_13unordered_mapIS9_dNS_4hashIS9_EENS_8equal_toIS9_EENS7_INS_4pairIKS9_dEEEEEEEEPvEEEENS_25__bucket_list_deallocatorINS7_ISP_EEEEE5firstB8ue170006Ev, symObjAddr: 0xA784, symBinAddr: 0x100014024, symSize: 0x24 }
  - { offsetInCU: 0x288F1, offset: 0x4645B, size: 0x8, addend: 0x0, symName: __ZNKSt3__122__compressed_pair_elemIPPNS_16__hash_node_baseIPNS_11__hash_nodeINS_17__hash_value_typeINS_12basic_stringIcNS_11char_traitsIcEENS_9allocatorIcEEEENS_13unordered_mapIS9_dNS_4hashIS9_EENS_8equal_toIS9_EENS7_INS_4pairIKS9_dEEEEEEEEPvEEEELi0ELb0EE5__getB8ue170006Ev, symObjAddr: 0xA7A8, symBinAddr: 0x100014048, symSize: 0x14 }
  - { offsetInCU: 0x28916, offset: 0x46480, size: 0x8, addend: 0x0, symName: __ZNSt3__117__compressed_pairIfNS_21__unordered_map_equalINS_12basic_stringIcNS_11char_traitsIcEENS_9allocatorIcEEEENS_17__hash_value_typeIS7_NS_13unordered_mapIS7_dNS_4hashIS7_EENS_8equal_toIS7_EENS5_INS_4pairIKS7_dEEEEEEEESD_SB_Lb1EEEE6secondB8ue170006Ev, symObjAddr: 0xA7BC, symBinAddr: 0x10001405C, symSize: 0x24 }
  - { offsetInCU: 0x2893B, offset: 0x464A5, size: 0x8, addend: 0x0, symName: __ZNSt3__122__compressed_pair_elemINS_21__unordered_map_equalINS_12basic_stringIcNS_11char_traitsIcEENS_9allocatorIcEEEENS_17__hash_value_typeIS7_NS_13unordered_mapIS7_dNS_4hashIS7_EENS_8equal_toIS7_EENS5_INS_4pairIKS7_dEEEEEEEESD_SB_Lb1EEELi1ELb1EE5__getB8ue170006Ev, symObjAddr: 0xA7E0, symBinAddr: 0x100014080, symSize: 0x14 }
  - { offsetInCU: 0x28960, offset: 0x464CA, size: 0x8, addend: 0x0, symName: __ZNKSt3__117__hash_value_typeINS_12basic_stringIcNS_11char_traitsIcEENS_9allocatorIcEEEENS_13unordered_mapIS6_dNS_4hashIS6_EENS_8equal_toIS6_EENS4_INS_4pairIKS6_dEEEEEEE11__get_valueB8ue170006Ev, symObjAddr: 0xA828, symBinAddr: 0x100014094, symSize: 0x14 }
  - { offsetInCU: 0x28985, offset: 0x464EF, size: 0x8, addend: 0x0, symName: __ZNSt3__116allocator_traitsINS_9allocatorINS_11__hash_nodeINS_17__hash_value_typeINS_12basic_stringIcNS_11char_traitsIcEENS1_IcEEEENS_13unordered_mapIS8_dNS_4hashIS8_EENS_8equal_toIS8_EENS1_INS_4pairIKS8_dEEEEEEEEPvEEEEE8allocateB8ue170006ERSM_m, symObjAddr: 0xA83C, symBinAddr: 0x1000140A8, symSize: 0x2C }
  - { offsetInCU: 0x289B8, offset: 0x46522, size: 0x8, addend: 0x0, symName: __ZNSt3__122__hash_node_destructorINS_9allocatorINS_11__hash_nodeINS_17__hash_value_typeINS_12basic_stringIcNS_11char_traitsIcEENS1_IcEEEENS_13unordered_mapIS8_dNS_4hashIS8_EENS_8equal_toIS8_EENS1_INS_4pairIKS8_dEEEEEEEEPvEEEEEC1B8ue170006ERSM_b, symObjAddr: 0xA868, symBinAddr: 0x1000140D4, symSize: 0x48 }
  - { offsetInCU: 0x28A04, offset: 0x4656E, size: 0x8, addend: 0x0, symName: __ZNSt3__110unique_ptrINS_11__hash_nodeINS_17__hash_value_typeINS_12basic_stringIcNS_11char_traitsIcEENS_9allocatorIcEEEENS_13unordered_mapIS8_dNS_4hashIS8_EENS_8equal_toIS8_EENS6_INS_4pairIKS8_dEEEEEEEEPvEENS_22__hash_node_destructorINS6_ISL_EEEEEC1B8ue170006ILb1EvEEPSL_NS_16__dependent_typeINS_27__unique_ptr_deleter_sfinaeISO_EEXT_EE20__good_rval_ref_typeE, symObjAddr: 0xA8B0, symBinAddr: 0x10001411C, symSize: 0x3C }
  - { offsetInCU: 0x28A54, offset: 0x465BE, size: 0x8, addend: 0x0, symName: __ZNSt3__116allocator_traitsINS_9allocatorINS_11__hash_nodeINS_17__hash_value_typeINS_12basic_stringIcNS_11char_traitsIcEENS1_IcEEEENS_13unordered_mapIS8_dNS_4hashIS8_EENS_8equal_toIS8_EENS1_INS_4pairIKS8_dEEEEEEEEPvEEEEE9constructB8ue170006INSE_ISF_SI_EEJRKNS_21piecewise_construct_tENS_5tupleIJRSF_EEENST_IJEEEEvEEvRSM_PT_DpOT0_, symObjAddr: 0xA8EC, symBinAddr: 0x100014158, symSize: 0x44 }
  - { offsetInCU: 0x28AD3, offset: 0x4663D, size: 0x8, addend: 0x0, symName: __ZNSt3__110unique_ptrINS_11__hash_nodeINS_17__hash_value_typeINS_12basic_stringIcNS_11char_traitsIcEENS_9allocatorIcEEEENS_13unordered_mapIS8_dNS_4hashIS8_EENS_8equal_toIS8_EENS6_INS_4pairIKS8_dEEEEEEEEPvEENS_22__hash_node_destructorINS6_ISL_EEEEE11get_deleterB8ue170006Ev, symObjAddr: 0xA930, symBinAddr: 0x10001419C, symSize: 0x24 }
  - { offsetInCU: 0x28AF8, offset: 0x46662, size: 0x8, addend: 0x0, symName: __ZNSt3__19allocatorINS_11__hash_nodeINS_17__hash_value_typeINS_12basic_stringIcNS_11char_traitsIcEENS0_IcEEEENS_13unordered_mapIS7_dNS_4hashIS7_EENS_8equal_toIS7_EENS0_INS_4pairIKS7_dEEEEEEEEPvEEE8allocateB8ue170006Em, symObjAddr: 0xA954, symBinAddr: 0x1000141C0, symSize: 0x5C }
  - { offsetInCU: 0x28B35, offset: 0x4669F, size: 0x8, addend: 0x0, symName: __ZNSt3__116allocator_traitsINS_9allocatorINS_11__hash_nodeINS_17__hash_value_typeINS_12basic_stringIcNS_11char_traitsIcEENS1_IcEEEENS_13unordered_mapIS8_dNS_4hashIS8_EENS_8equal_toIS8_EENS1_INS_4pairIKS8_dEEEEEEEEPvEEEEE8max_sizeB8ue170006ISM_vEEmRKSM_, symObjAddr: 0xA9B0, symBinAddr: 0x10001421C, symSize: 0x24 }
  - { offsetInCU: 0x28B63, offset: 0x466CD, size: 0x8, addend: 0x0, symName: __ZNKSt3__19allocatorINS_11__hash_nodeINS_17__hash_value_typeINS_12basic_stringIcNS_11char_traitsIcEENS0_IcEEEENS_13unordered_mapIS7_dNS_4hashIS7_EENS_8equal_toIS7_EENS0_INS_4pairIKS7_dEEEEEEEEPvEEE8max_sizeB8ue170006Ev, symObjAddr: 0xA9D4, symBinAddr: 0x100014240, symSize: 0x18 }
  - { offsetInCU: 0x28B88, offset: 0x466F2, size: 0x8, addend: 0x0, symName: __ZNSt3__122__hash_node_destructorINS_9allocatorINS_11__hash_nodeINS_17__hash_value_typeINS_12basic_stringIcNS_11char_traitsIcEENS1_IcEEEENS_13unordered_mapIS8_dNS_4hashIS8_EENS_8equal_toIS8_EENS1_INS_4pairIKS8_dEEEEEEEEPvEEEEEC2B8ue170006ERSM_b, symObjAddr: 0xA9EC, symBinAddr: 0x100014258, symSize: 0x38 }
  - { offsetInCU: 0x28BCF, offset: 0x46739, size: 0x8, addend: 0x0, symName: __ZNSt3__110unique_ptrINS_11__hash_nodeINS_17__hash_value_typeINS_12basic_stringIcNS_11char_traitsIcEENS_9allocatorIcEEEENS_13unordered_mapIS8_dNS_4hashIS8_EENS_8equal_toIS8_EENS6_INS_4pairIKS8_dEEEEEEEEPvEENS_22__hash_node_destructorINS6_ISL_EEEEEC2B8ue170006ILb1EvEEPSL_NS_16__dependent_typeINS_27__unique_ptr_deleter_sfinaeISO_EEXT_EE20__good_rval_ref_typeE, symObjAddr: 0xAA24, symBinAddr: 0x100014290, symSize: 0x48 }
  - { offsetInCU: 0x28C1F, offset: 0x46789, size: 0x8, addend: 0x0, symName: __ZNSt3__117__compressed_pairIPNS_11__hash_nodeINS_17__hash_value_typeINS_12basic_stringIcNS_11char_traitsIcEENS_9allocatorIcEEEENS_13unordered_mapIS8_dNS_4hashIS8_EENS_8equal_toIS8_EENS6_INS_4pairIKS8_dEEEEEEEEPvEENS_22__hash_node_destructorINS6_ISL_EEEEEC1B8ue170006IRSM_SP_EEOT_OT0_, symObjAddr: 0xAA6C, symBinAddr: 0x1000142D8, symSize: 0x3C }
  - { offsetInCU: 0x28C76, offset: 0x467E0, size: 0x8, addend: 0x0, symName: __ZNSt3__117__compressed_pairIPNS_11__hash_nodeINS_17__hash_value_typeINS_12basic_stringIcNS_11char_traitsIcEENS_9allocatorIcEEEENS_13unordered_mapIS8_dNS_4hashIS8_EENS_8equal_toIS8_EENS6_INS_4pairIKS8_dEEEEEEEEPvEENS_22__hash_node_destructorINS6_ISL_EEEEEC2B8ue170006IRSM_SP_EEOT_OT0_, symObjAddr: 0xAAA8, symBinAddr: 0x100014314, symSize: 0x48 }
  - { offsetInCU: 0x28CCD, offset: 0x46837, size: 0x8, addend: 0x0, symName: __ZNSt3__122__compressed_pair_elemIPNS_11__hash_nodeINS_17__hash_value_typeINS_12basic_stringIcNS_11char_traitsIcEENS_9allocatorIcEEEENS_13unordered_mapIS8_dNS_4hashIS8_EENS_8equal_toIS8_EENS6_INS_4pairIKS8_dEEEEEEEEPvEELi0ELb0EEC2B8ue170006IRSM_vEEOT_, symObjAddr: 0xAAF0, symBinAddr: 0x10001435C, symSize: 0x24 }
  - { offsetInCU: 0x28D0E, offset: 0x46878, size: 0x8, addend: 0x0, symName: __ZNSt3__122__compressed_pair_elemINS_22__hash_node_destructorINS_9allocatorINS_11__hash_nodeINS_17__hash_value_typeINS_12basic_stringIcNS_11char_traitsIcEENS2_IcEEEENS_13unordered_mapIS9_dNS_4hashIS9_EENS_8equal_toIS9_EENS2_INS_4pairIKS9_dEEEEEEEEPvEEEEEELi1ELb0EEC2B8ue170006ISO_vEEOT_, symObjAddr: 0xAB14, symBinAddr: 0x100014380, symSize: 0x24 }
  - { offsetInCU: 0x28D4F, offset: 0x468B9, size: 0x8, addend: 0x0, symName: __ZNSt3__19allocatorINS_11__hash_nodeINS_17__hash_value_typeINS_12basic_stringIcNS_11char_traitsIcEENS0_IcEEEENS_13unordered_mapIS7_dNS_4hashIS7_EENS_8equal_toIS7_EENS0_INS_4pairIKS7_dEEEEEEEEPvEEE9constructB8ue170006INSD_ISE_SH_EEJRKNS_21piecewise_construct_tENS_5tupleIJRSE_EEENSR_IJEEEEEEvPT_DpOT0_, symObjAddr: 0xAB38, symBinAddr: 0x1000143A4, symSize: 0x44 }
  - { offsetInCU: 0x28DCA, offset: 0x46934, size: 0x8, addend: 0x0, symName: __ZNSt3__14pairIKNS_12basic_stringIcNS_11char_traitsIcEENS_9allocatorIcEEEENS_13unordered_mapIS6_dNS_4hashIS6_EENS_8equal_toIS6_EENS4_INS0_IS7_dEEEEEEEC1B8ue170006IJRS7_EJEEENS_21piecewise_construct_tENS_5tupleIJDpT_EEENSK_IJDpT0_EEE, symObjAddr: 0xAB7C, symBinAddr: 0x1000143E8, symSize: 0x3C }
  - { offsetInCU: 0x28E30, offset: 0x4699A, size: 0x8, addend: 0x0, symName: __ZNSt3__14pairIKNS_12basic_stringIcNS_11char_traitsIcEENS_9allocatorIcEEEENS_13unordered_mapIS6_dNS_4hashIS6_EENS_8equal_toIS6_EENS4_INS0_IS7_dEEEEEEEC1B8ue170006IJRS7_EJEJLm0EEJEEENS_21piecewise_construct_tERNS_5tupleIJDpT_EEERNSK_IJDpT0_EEENS_15__tuple_indicesIJXspT1_EEEENST_IJXspT2_EEEE, symObjAddr: 0xABB8, symBinAddr: 0x100014424, symSize: 0x3C }
  - { offsetInCU: 0x28EBC, offset: 0x46A26, size: 0x8, addend: 0x0, symName: __ZNSt3__14pairIKNS_12basic_stringIcNS_11char_traitsIcEENS_9allocatorIcEEEENS_13unordered_mapIS6_dNS_4hashIS6_EENS_8equal_toIS6_EENS4_INS0_IS7_dEEEEEEEC2B8ue170006IJRS7_EJEJLm0EEJEEENS_21piecewise_construct_tERNS_5tupleIJDpT_EEERNSK_IJDpT0_EEENS_15__tuple_indicesIJXspT1_EEEENST_IJXspT2_EEEE, symObjAddr: 0xABF4, symBinAddr: 0x100014460, symSize: 0x50 }
  - { offsetInCU: 0x28F48, offset: 0x46AB2, size: 0x8, addend: 0x0, symName: __ZNSt3__112__tuple_leafILm0ERKNS_12basic_stringIcNS_11char_traitsIcEENS_9allocatorIcEEEELb0EE3getB8ue170006Ev, symObjAddr: 0xAC68, symBinAddr: 0x1000144D4, symSize: 0x18 }
  - { offsetInCU: 0x28F6D, offset: 0x46AD7, size: 0x8, addend: 0x0, symName: __ZNSt3__117__compressed_pairIPNS_11__hash_nodeINS_17__hash_value_typeINS_12basic_stringIcNS_11char_traitsIcEENS_9allocatorIcEEEENS_13unordered_mapIS8_dNS_4hashIS8_EENS_8equal_toIS8_EENS6_INS_4pairIKS8_dEEEEEEEEPvEENS_22__hash_node_destructorINS6_ISL_EEEEE6secondB8ue170006Ev, symObjAddr: 0xAC80, symBinAddr: 0x1000144EC, symSize: 0x28 }
  - { offsetInCU: 0x28F92, offset: 0x46AFC, size: 0x8, addend: 0x0, symName: __ZNSt3__122__compressed_pair_elemINS_22__hash_node_destructorINS_9allocatorINS_11__hash_nodeINS_17__hash_value_typeINS_12basic_stringIcNS_11char_traitsIcEENS2_IcEEEENS_13unordered_mapIS9_dNS_4hashIS9_EENS_8equal_toIS9_EENS2_INS_4pairIKS9_dEEEEEEEEPvEEEEEELi1ELb0EE5__getB8ue170006Ev, symObjAddr: 0xACA8, symBinAddr: 0x100014514, symSize: 0x14 }
  - { offsetInCU: 0x28FB7, offset: 0x46B21, size: 0x8, addend: 0x0, symName: __ZNSt3__117__compressed_pairImNS_22__unordered_map_hasherINS_12basic_stringIcNS_11char_traitsIcEENS_9allocatorIcEEEENS_17__hash_value_typeIS7_NS_13unordered_mapIS7_dNS_4hashIS7_EENS_8equal_toIS7_EENS5_INS_4pairIKS7_dEEEEEEEESB_SD_Lb1EEEE5firstB8ue170006Ev, symObjAddr: 0xACBC, symBinAddr: 0x100014528, symSize: 0x24 }
  - { offsetInCU: 0x28FDC, offset: 0x46B46, size: 0x8, addend: 0x0, symName: __ZNSt3__117__compressed_pairIfNS_21__unordered_map_equalINS_12basic_stringIcNS_11char_traitsIcEENS_9allocatorIcEEEENS_17__hash_value_typeIS7_NS_13unordered_mapIS7_dNS_4hashIS7_EENS_8equal_toIS7_EENS5_INS_4pairIKS7_dEEEEEEEESD_SB_Lb1EEEE5firstB8ue170006Ev, symObjAddr: 0xACE0, symBinAddr: 0x10001454C, symSize: 0x24 }
  - { offsetInCU: 0x29001, offset: 0x46B6B, size: 0x8, addend: 0x0, symName: __ZNSt3__112__hash_tableINS_17__hash_value_typeINS_12basic_stringIcNS_11char_traitsIcEENS_9allocatorIcEEEENS_13unordered_mapIS7_dNS_4hashIS7_EENS_8equal_toIS7_EENS5_INS_4pairIKS7_dEEEEEEEENS_22__unordered_map_hasherIS7_SI_SA_SC_Lb1EEENS_21__unordered_map_equalIS7_SI_SC_SA_Lb1EEENS5_ISI_EEE8__rehashILb1EEEvm, symObjAddr: 0xAD18, symBinAddr: 0x100014570, symSize: 0x1A8 }
  - { offsetInCU: 0x2904F, offset: 0x46BB9, size: 0x8, addend: 0x0, symName: __ZNSt3__112__hash_tableINS_17__hash_value_typeINS_12basic_stringIcNS_11char_traitsIcEENS_9allocatorIcEEEENS_13unordered_mapIS7_dNS_4hashIS7_EENS_8equal_toIS7_EENS5_INS_4pairIKS7_dEEEEEEEENS_22__unordered_map_hasherIS7_SI_SA_SC_Lb1EEENS_21__unordered_map_equalIS7_SI_SC_SA_Lb1EEENS5_ISI_EEE11__do_rehashILb1EEEvm, symObjAddr: 0xAEC0, symBinAddr: 0x100014718, symSize: 0x288 }
  - { offsetInCU: 0x29134, offset: 0x46C9E, size: 0x8, addend: 0x0, symName: __ZNSt3__110unique_ptrIA_PNS_16__hash_node_baseIPNS_11__hash_nodeINS_17__hash_value_typeINS_12basic_stringIcNS_11char_traitsIcEENS_9allocatorIcEEEENS_13unordered_mapIS9_dNS_4hashIS9_EENS_8equal_toIS9_EENS7_INS_4pairIKS9_dEEEEEEEEPvEEEENS_25__bucket_list_deallocatorINS7_ISP_EEEEE11get_deleterB8ue170006Ev, symObjAddr: 0xB1B4, symBinAddr: 0x1000149A0, symSize: 0x24 }
  - { offsetInCU: 0x29159, offset: 0x46CC3, size: 0x8, addend: 0x0, symName: __ZNSt3__110unique_ptrIA_PNS_16__hash_node_baseIPNS_11__hash_nodeINS_17__hash_value_typeINS_12basic_stringIcNS_11char_traitsIcEENS_9allocatorIcEEEENS_13unordered_mapIS9_dNS_4hashIS9_EENS_8equal_toIS9_EENS7_INS_4pairIKS9_dEEEEEEEEPvEEEENS_25__bucket_list_deallocatorINS7_ISP_EEEEE5resetB8ue170006IPSP_EENS_9enable_ifIXsr28_CheckArrayPointerConversionIT_EE5valueEvE4typeESY_, symObjAddr: 0xB1D8, symBinAddr: 0x1000149C4, symSize: 0x78 }
  - { offsetInCU: 0x291A5, offset: 0x46D0F, size: 0x8, addend: 0x0, symName: __ZNSt3__116allocator_traitsINS_9allocatorIPNS_16__hash_node_baseIPNS_11__hash_nodeINS_17__hash_value_typeINS_12basic_stringIcNS_11char_traitsIcEENS1_IcEEEENS_13unordered_mapIS9_dNS_4hashIS9_EENS_8equal_toIS9_EENS1_INS_4pairIKS9_dEEEEEEEEPvEEEEEEE8allocateB8ue170006ERSQ_m, symObjAddr: 0xB250, symBinAddr: 0x100014A3C, symSize: 0x2C }
  - { offsetInCU: 0x291D8, offset: 0x46D42, size: 0x8, addend: 0x0, symName: __ZNSt3__19allocatorIPNS_16__hash_node_baseIPNS_11__hash_nodeINS_17__hash_value_typeINS_12basic_stringIcNS_11char_traitsIcEENS0_IcEEEENS_13unordered_mapIS8_dNS_4hashIS8_EENS_8equal_toIS8_EENS0_INS_4pairIKS8_dEEEEEEEEPvEEEEE8allocateB8ue170006Em, symObjAddr: 0xB27C, symBinAddr: 0x100014A68, symSize: 0x58 }
  - { offsetInCU: 0x29215, offset: 0x46D7F, size: 0x8, addend: 0x0, symName: __ZNSt3__116allocator_traitsINS_9allocatorIPNS_16__hash_node_baseIPNS_11__hash_nodeINS_17__hash_value_typeINS_12basic_stringIcNS_11char_traitsIcEENS1_IcEEEENS_13unordered_mapIS9_dNS_4hashIS9_EENS_8equal_toIS9_EENS1_INS_4pairIKS9_dEEEEEEEEPvEEEEEEE8max_sizeB8ue170006ISQ_vEEmRKSQ_, symObjAddr: 0xB2D4, symBinAddr: 0x100014AC0, symSize: 0x24 }
  - { offsetInCU: 0x29243, offset: 0x46DAD, size: 0x8, addend: 0x0, symName: __ZNKSt3__19allocatorIPNS_16__hash_node_baseIPNS_11__hash_nodeINS_17__hash_value_typeINS_12basic_stringIcNS_11char_traitsIcEENS0_IcEEEENS_13unordered_mapIS8_dNS_4hashIS8_EENS_8equal_toIS8_EENS0_INS_4pairIKS8_dEEEEEEEEPvEEEEE8max_sizeB8ue170006Ev, symObjAddr: 0xB2F8, symBinAddr: 0x100014AE4, symSize: 0x14 }
  - { offsetInCU: 0x29268, offset: 0x46DD2, size: 0x8, addend: 0x0, symName: __ZNKSt3__117__compressed_pairIPNS_11__hash_nodeINS_17__hash_value_typeINS_12basic_stringIcNS_11char_traitsIcEENS_9allocatorIcEEEENS_13unordered_mapIS8_dNS_4hashIS8_EENS_8equal_toIS8_EENS6_INS_4pairIKS8_dEEEEEEEEPvEENS_22__hash_node_destructorINS6_ISL_EEEEE5firstB8ue170006Ev, symObjAddr: 0xB328, symBinAddr: 0x100014AF8, symSize: 0x24 }
  - { offsetInCU: 0x2928D, offset: 0x46DF7, size: 0x8, addend: 0x0, symName: __ZNKSt3__122__compressed_pair_elemIPNS_11__hash_nodeINS_17__hash_value_typeINS_12basic_stringIcNS_11char_traitsIcEENS_9allocatorIcEEEENS_13unordered_mapIS8_dNS_4hashIS8_EENS_8equal_toIS8_EENS6_INS_4pairIKS8_dEEEEEEEEPvEELi0ELb0EE5__getB8ue170006Ev, symObjAddr: 0xB34C, symBinAddr: 0x100014B1C, symSize: 0x14 }
  - { offsetInCU: 0x292B2, offset: 0x46E1C, size: 0x8, addend: 0x0, symName: __ZNSt3__117__compressed_pairIPNS_11__hash_nodeINS_17__hash_value_typeINS_12basic_stringIcNS_11char_traitsIcEENS_9allocatorIcEEEENS_13unordered_mapIS8_dNS_4hashIS8_EENS_8equal_toIS8_EENS6_INS_4pairIKS8_dEEEEEEEEPvEENS_22__hash_node_destructorINS6_ISL_EEEEE5firstB8ue170006Ev, symObjAddr: 0xB360, symBinAddr: 0x100014B30, symSize: 0x24 }
  - { offsetInCU: 0x292D7, offset: 0x46E41, size: 0x8, addend: 0x0, symName: __ZNSt3__122__compressed_pair_elemIPNS_11__hash_nodeINS_17__hash_value_typeINS_12basic_stringIcNS_11char_traitsIcEENS_9allocatorIcEEEENS_13unordered_mapIS8_dNS_4hashIS8_EENS_8equal_toIS8_EENS6_INS_4pairIKS8_dEEEEEEEEPvEELi0ELb0EE5__getB8ue170006Ev, symObjAddr: 0xB384, symBinAddr: 0x100014B54, symSize: 0x14 }
  - { offsetInCU: 0x292FC, offset: 0x46E66, size: 0x8, addend: 0x0, symName: __ZNSt3__110unique_ptrINS_11__hash_nodeINS_17__hash_value_typeINS_12basic_stringIcNS_11char_traitsIcEENS_9allocatorIcEEEENS_13unordered_mapIS8_dNS_4hashIS8_EENS_8equal_toIS8_EENS6_INS_4pairIKS8_dEEEEEEEEPvEENS_22__hash_node_destructorINS6_ISL_EEEEED2B8ue170006Ev, symObjAddr: 0xB398, symBinAddr: 0x100014B68, symSize: 0x30 }
  - { offsetInCU: 0x29325, offset: 0x46E8F, size: 0x8, addend: 0x0, symName: __ZNSt3__110unique_ptrINS_11__hash_nodeINS_17__hash_value_typeINS_12basic_stringIcNS_11char_traitsIcEENS_9allocatorIcEEEENS_13unordered_mapIS8_dNS_4hashIS8_EENS_8equal_toIS8_EENS6_INS_4pairIKS8_dEEEEEEEEPvEENS_22__hash_node_destructorINS6_ISL_EEEEE5resetB8ue170006EPSL_, symObjAddr: 0xB3C8, symBinAddr: 0x100014B98, symSize: 0x78 }
  - { offsetInCU: 0x29368, offset: 0x46ED2, size: 0x8, addend: 0x0, symName: __ZNSt3__122__hash_node_destructorINS_9allocatorINS_11__hash_nodeINS_17__hash_value_typeINS_12basic_stringIcNS_11char_traitsIcEENS1_IcEEEENS_13unordered_mapIS8_dNS_4hashIS8_EENS_8equal_toIS8_EENS1_INS_4pairIKS8_dEEEEEEEEPvEEEEEclB8ue170006EPSL_, symObjAddr: 0xB440, symBinAddr: 0x100014C10, symSize: 0x94 }
  - { offsetInCU: 0x2939C, offset: 0x46F06, size: 0x8, addend: 0x0, symName: __ZNSt3__14pairINS_15__hash_iteratorIPNS_11__hash_nodeINS_17__hash_value_typeINS_12basic_stringIcNS_11char_traitsIcEENS_9allocatorIcEEEENS_13unordered_mapIS9_dNS_4hashIS9_EENS_8equal_toIS9_EENS7_INS0_IKS9_dEEEEEEEEPvEEEEbEC2B8ue170006ISN_RbLSK_0EEEOT_OT0_, symObjAddr: 0xB4D4, symBinAddr: 0x100014CA4, symSize: 0x38 }
  - { offsetInCU: 0x293F9, offset: 0x46F63, size: 0x8, addend: 0x0, symName: __ZNSt3__15tupleIJRKNS_12basic_stringIcNS_11char_traitsIcEENS_9allocatorIcEEEEEEC1B8ue170006INS_4_AndELi0EEES8_, symObjAddr: 0xB50C, symBinAddr: 0x100014CDC, symSize: 0x34 }
  - { offsetInCU: 0x29441, offset: 0x46FAB, size: 0x8, addend: 0x0, symName: __ZNSt3__15tupleIJRKNS_12basic_stringIcNS_11char_traitsIcEENS_9allocatorIcEEEEEEC2B8ue170006INS_4_AndELi0EEES8_, symObjAddr: 0xB540, symBinAddr: 0x100014D10, symSize: 0x34 }
  - { offsetInCU: 0x29489, offset: 0x46FF3, size: 0x8, addend: 0x0, symName: __ZNSt3__112__tuple_implINS_15__tuple_indicesIJLm0EEEEJRKNS_12basic_stringIcNS_11char_traitsIcEENS_9allocatorIcEEEEEEC1B8ue170006IJLm0EEJSA_EJEJEJSA_EEENS1_IJXspT_EEEENS_13__tuple_typesIJDpT0_EEENS1_IJXspT1_EEEENSE_IJDpT2_EEEDpOT3_, symObjAddr: 0xB574, symBinAddr: 0x100014D44, symSize: 0x34 }
  - { offsetInCU: 0x29519, offset: 0x47083, size: 0x8, addend: 0x0, symName: __ZNSt3__112__tuple_implINS_15__tuple_indicesIJLm0EEEEJRKNS_12basic_stringIcNS_11char_traitsIcEENS_9allocatorIcEEEEEEC2B8ue170006IJLm0EEJSA_EJEJEJSA_EEENS1_IJXspT_EEEENS_13__tuple_typesIJDpT0_EEENS1_IJXspT1_EEEENSE_IJDpT2_EEEDpOT3_, symObjAddr: 0xB5A8, symBinAddr: 0x100014D78, symSize: 0x34 }
  - { offsetInCU: 0x295A9, offset: 0x47113, size: 0x8, addend: 0x0, symName: __ZNSt3__112__tuple_leafILm0ERKNS_12basic_stringIcNS_11char_traitsIcEENS_9allocatorIcEEEELb0EEC2B8ue170006IS8_vEEOT_, symObjAddr: 0xB5DC, symBinAddr: 0x100014DAC, symSize: 0x20 }
  - { offsetInCU: 0x295EB, offset: 0x47155, size: 0x8, addend: 0x0, symName: __ZNSt3__112__hash_tableINS_17__hash_value_typeINS_12basic_stringIcNS_11char_traitsIcEENS_9allocatorIcEEEEdEENS_22__unordered_map_hasherIS7_S8_NS_4hashIS7_EENS_8equal_toIS7_EELb1EEENS_21__unordered_map_equalIS7_S8_SD_SB_Lb1EEENS5_IS8_EEE25__emplace_unique_key_argsIS7_JRKNS_21piecewise_construct_tENS_5tupleIJRKS7_EEENSN_IJEEEEEENS_4pairINS_15__hash_iteratorIPNS_11__hash_nodeIS8_PvEEEEbEERKT_DpOT0_, symObjAddr: 0xB5FC, symBinAddr: 0x100014DCC, symSize: 0x4CC }
  - { offsetInCU: 0x296F3, offset: 0x4725D, size: 0x8, addend: 0x0, symName: __ZNKSt3__115__hash_iteratorIPNS_11__hash_nodeINS_17__hash_value_typeINS_12basic_stringIcNS_11char_traitsIcEENS_9allocatorIcEEEEdEEPvEEEptB8ue170006Ev, symObjAddr: 0xBAC8, symBinAddr: 0x100015298, symSize: 0x30 }
  - { offsetInCU: 0x29718, offset: 0x47282, size: 0x8, addend: 0x0, symName: __ZNSt3__112__hash_tableINS_17__hash_value_typeINS_12basic_stringIcNS_11char_traitsIcEENS_9allocatorIcEEEEdEENS_22__unordered_map_hasherIS7_S8_NS_4hashIS7_EENS_8equal_toIS7_EELb1EEENS_21__unordered_map_equalIS7_S8_SD_SB_Lb1EEENS5_IS8_EEE13hash_functionB8ue170006Ev, symObjAddr: 0xBB0C, symBinAddr: 0x1000152C8, symSize: 0x28 }
  - { offsetInCU: 0x2973D, offset: 0x472A7, size: 0x8, addend: 0x0, symName: __ZNKSt3__122__unordered_map_hasherINS_12basic_stringIcNS_11char_traitsIcEENS_9allocatorIcEEEENS_17__hash_value_typeIS6_dEENS_4hashIS6_EENS_8equal_toIS6_EELb1EEclB8ue170006ERKS6_, symObjAddr: 0xBB34, symBinAddr: 0x1000152F0, symSize: 0x2C }
  - { offsetInCU: 0x29771, offset: 0x472DB, size: 0x8, addend: 0x0, symName: __ZNKSt3__112__hash_tableINS_17__hash_value_typeINS_12basic_stringIcNS_11char_traitsIcEENS_9allocatorIcEEEEdEENS_22__unordered_map_hasherIS7_S8_NS_4hashIS7_EENS_8equal_toIS7_EELb1EEENS_21__unordered_map_equalIS7_S8_SD_SB_Lb1EEENS5_IS8_EEE12bucket_countB8ue170006Ev, symObjAddr: 0xBB60, symBinAddr: 0x10001531C, symSize: 0x28 }
  - { offsetInCU: 0x29796, offset: 0x47300, size: 0x8, addend: 0x0, symName: __ZNKSt3__110unique_ptrIA_PNS_16__hash_node_baseIPNS_11__hash_nodeINS_17__hash_value_typeINS_12basic_stringIcNS_11char_traitsIcEENS_9allocatorIcEEEEdEEPvEEEENS_25__bucket_list_deallocatorINS7_ISF_EEEEEixB8ue170006Em, symObjAddr: 0xBB88, symBinAddr: 0x100015344, symSize: 0x34 }
  - { offsetInCU: 0x297CA, offset: 0x47334, size: 0x8, addend: 0x0, symName: __ZNKSt3__116__hash_node_baseIPNS_11__hash_nodeINS_17__hash_value_typeINS_12basic_stringIcNS_11char_traitsIcEENS_9allocatorIcEEEEdEEPvEEE6__hashB8ue170006Ev, symObjAddr: 0xBBBC, symBinAddr: 0x100015378, symSize: 0x18 }
  - { offsetInCU: 0x297EF, offset: 0x47359, size: 0x8, addend: 0x0, symName: __ZNSt3__112__hash_tableINS_17__hash_value_typeINS_12basic_stringIcNS_11char_traitsIcEENS_9allocatorIcEEEEdEENS_22__unordered_map_hasherIS7_S8_NS_4hashIS7_EENS_8equal_toIS7_EELb1EEENS_21__unordered_map_equalIS7_S8_SD_SB_Lb1EEENS5_IS8_EEE6key_eqB8ue170006Ev, symObjAddr: 0xBBD4, symBinAddr: 0x100015390, symSize: 0x28 }
  - { offsetInCU: 0x29814, offset: 0x4737E, size: 0x8, addend: 0x0, symName: __ZNKSt3__121__unordered_map_equalINS_12basic_stringIcNS_11char_traitsIcEENS_9allocatorIcEEEENS_17__hash_value_typeIS6_dEENS_8equal_toIS6_EENS_4hashIS6_EELb1EEclB8ue170006ERKS8_RKS6_, symObjAddr: 0xBBFC, symBinAddr: 0x1000153B8, symSize: 0x48 }
  - { offsetInCU: 0x29857, offset: 0x473C1, size: 0x8, addend: 0x0, symName: __ZNSt3__112__hash_tableINS_17__hash_value_typeINS_12basic_stringIcNS_11char_traitsIcEENS_9allocatorIcEEEEdEENS_22__unordered_map_hasherIS7_S8_NS_4hashIS7_EENS_8equal_toIS7_EELb1EEENS_21__unordered_map_equalIS7_S8_SD_SB_Lb1EEENS5_IS8_EEE21__construct_node_hashIRKNS_21piecewise_construct_tEJNS_5tupleIJRKS7_EEENSN_IJEEEEEENS_10unique_ptrINS_11__hash_nodeIS8_PvEENS_22__hash_node_destructorINS5_ISV_EEEEEEmOT_DpOT0_, symObjAddr: 0xBC68, symBinAddr: 0x100015400, symSize: 0x150 }
  - { offsetInCU: 0x298F1, offset: 0x4745B, size: 0x8, addend: 0x0, symName: __ZNSt3__112__hash_tableINS_17__hash_value_typeINS_12basic_stringIcNS_11char_traitsIcEENS_9allocatorIcEEEEdEENS_22__unordered_map_hasherIS7_S8_NS_4hashIS7_EENS_8equal_toIS7_EELb1EEENS_21__unordered_map_equalIS7_S8_SD_SB_Lb1EEENS5_IS8_EEE4sizeB8ue170006Ev, symObjAddr: 0xBDB8, symBinAddr: 0x100015550, symSize: 0x28 }
  - { offsetInCU: 0x29916, offset: 0x47480, size: 0x8, addend: 0x0, symName: __ZNSt3__112__hash_tableINS_17__hash_value_typeINS_12basic_stringIcNS_11char_traitsIcEENS_9allocatorIcEEEEdEENS_22__unordered_map_hasherIS7_S8_NS_4hashIS7_EENS_8equal_toIS7_EELb1EEENS_21__unordered_map_equalIS7_S8_SD_SB_Lb1EEENS5_IS8_EEE15max_load_factorB8ue170006Ev, symObjAddr: 0xBDE0, symBinAddr: 0x100015578, symSize: 0x28 }
  - { offsetInCU: 0x2993B, offset: 0x474A5, size: 0x8, addend: 0x0, symName: __ZNSt3__112__hash_tableINS_17__hash_value_typeINS_12basic_stringIcNS_11char_traitsIcEENS_9allocatorIcEEEEdEENS_22__unordered_map_hasherIS7_S8_NS_4hashIS7_EENS_8equal_toIS7_EELb1EEENS_21__unordered_map_equalIS7_S8_SD_SB_Lb1EEENS5_IS8_EEE15__rehash_uniqueB8ue170006Em, symObjAddr: 0xBE08, symBinAddr: 0x1000155A0, symSize: 0x2C }
  - { offsetInCU: 0x2996F, offset: 0x474D9, size: 0x8, addend: 0x0, symName: __ZNSt3__116__hash_node_baseIPNS_11__hash_nodeINS_17__hash_value_typeINS_12basic_stringIcNS_11char_traitsIcEENS_9allocatorIcEEEEdEEPvEEE5__ptrB8ue170006Ev, symObjAddr: 0xBE58, symBinAddr: 0x1000155CC, symSize: 0x24 }
  - { offsetInCU: 0x29994, offset: 0x474FE, size: 0x8, addend: 0x0, symName: __ZNKSt3__110unique_ptrINS_11__hash_nodeINS_17__hash_value_typeINS_12basic_stringIcNS_11char_traitsIcEENS_9allocatorIcEEEEdEEPvEENS_22__hash_node_destructorINS6_ISB_EEEEEptB8ue170006Ev, symObjAddr: 0xBE7C, symBinAddr: 0x1000155F0, symSize: 0x28 }
  - { offsetInCU: 0x299B9, offset: 0x47523, size: 0x8, addend: 0x0, symName: __ZNKSt3__110unique_ptrINS_11__hash_nodeINS_17__hash_value_typeINS_12basic_stringIcNS_11char_traitsIcEENS_9allocatorIcEEEEdEEPvEENS_22__hash_node_destructorINS6_ISB_EEEEE3getB8ue170006Ev, symObjAddr: 0xBEA4, symBinAddr: 0x100015618, symSize: 0x28 }
  - { offsetInCU: 0x299DE, offset: 0x47548, size: 0x8, addend: 0x0, symName: __ZNSt3__110unique_ptrINS_11__hash_nodeINS_17__hash_value_typeINS_12basic_stringIcNS_11char_traitsIcEENS_9allocatorIcEEEEdEEPvEENS_22__hash_node_destructorINS6_ISB_EEEEE7releaseB8ue170006Ev, symObjAddr: 0xBECC, symBinAddr: 0x100015640, symSize: 0x44 }
  - { offsetInCU: 0x29A12, offset: 0x4757C, size: 0x8, addend: 0x0, symName: __ZNSt3__110unique_ptrINS_11__hash_nodeINS_17__hash_value_typeINS_12basic_stringIcNS_11char_traitsIcEENS_9allocatorIcEEEEdEEPvEENS_22__hash_node_destructorINS6_ISB_EEEEED1B8ue170006Ev, symObjAddr: 0xBF10, symBinAddr: 0x100015684, symSize: 0x2C }
  - { offsetInCU: 0x29A3B, offset: 0x475A5, size: 0x8, addend: 0x0, symName: __ZNSt3__115__hash_iteratorIPNS_11__hash_nodeINS_17__hash_value_typeINS_12basic_stringIcNS_11char_traitsIcEENS_9allocatorIcEEEEdEEPvEEEC1B8ue170006EPNS_16__hash_node_baseISC_EE, symObjAddr: 0xBF3C, symBinAddr: 0x1000156B0, symSize: 0x34 }
  - { offsetInCU: 0x29A78, offset: 0x475E2, size: 0x8, addend: 0x0, symName: __ZNSt3__14pairINS_15__hash_iteratorIPNS_11__hash_nodeINS_17__hash_value_typeINS_12basic_stringIcNS_11char_traitsIcEENS_9allocatorIcEEEEdEEPvEEEEbEC1B8ue170006ISE_RbLSB_0EEEOT_OT0_, symObjAddr: 0xBF70, symBinAddr: 0x1000156E4, symSize: 0x3C }
  - { offsetInCU: 0x29AD5, offset: 0x4763F, size: 0x8, addend: 0x0, symName: __ZNSt3__117__compressed_pairImNS_22__unordered_map_hasherINS_12basic_stringIcNS_11char_traitsIcEENS_9allocatorIcEEEENS_17__hash_value_typeIS7_dEENS_4hashIS7_EENS_8equal_toIS7_EELb1EEEE6secondB8ue170006Ev, symObjAddr: 0xBFAC, symBinAddr: 0x100015720, symSize: 0x24 }
  - { offsetInCU: 0x29AFA, offset: 0x47664, size: 0x8, addend: 0x0, symName: __ZNSt3__122__compressed_pair_elemINS_22__unordered_map_hasherINS_12basic_stringIcNS_11char_traitsIcEENS_9allocatorIcEEEENS_17__hash_value_typeIS7_dEENS_4hashIS7_EENS_8equal_toIS7_EELb1EEELi1ELb1EE5__getB8ue170006Ev, symObjAddr: 0xBFD0, symBinAddr: 0x100015744, symSize: 0x14 }
  - { offsetInCU: 0x29B1F, offset: 0x47689, size: 0x8, addend: 0x0, symName: __ZNKSt3__110unique_ptrIA_PNS_16__hash_node_baseIPNS_11__hash_nodeINS_17__hash_value_typeINS_12basic_stringIcNS_11char_traitsIcEENS_9allocatorIcEEEEdEEPvEEEENS_25__bucket_list_deallocatorINS7_ISF_EEEEE11get_deleterB8ue170006Ev, symObjAddr: 0xBFE4, symBinAddr: 0x100015758, symSize: 0x24 }
  - { offsetInCU: 0x29B44, offset: 0x476AE, size: 0x8, addend: 0x0, symName: __ZNKSt3__125__bucket_list_deallocatorINS_9allocatorIPNS_16__hash_node_baseIPNS_11__hash_nodeINS_17__hash_value_typeINS_12basic_stringIcNS_11char_traitsIcEENS1_IcEEEEdEEPvEEEEEEE4sizeB8ue170006Ev, symObjAddr: 0xC008, symBinAddr: 0x10001577C, symSize: 0x28 }
  - { offsetInCU: 0x29B69, offset: 0x476D3, size: 0x8, addend: 0x0, symName: __ZNKSt3__117__compressed_pairIPPNS_16__hash_node_baseIPNS_11__hash_nodeINS_17__hash_value_typeINS_12basic_stringIcNS_11char_traitsIcEENS_9allocatorIcEEEEdEEPvEEEENS_25__bucket_list_deallocatorINS7_ISF_EEEEE6secondB8ue170006Ev, symObjAddr: 0xC030, symBinAddr: 0x1000157A4, symSize: 0x28 }
  - { offsetInCU: 0x29B8E, offset: 0x476F8, size: 0x8, addend: 0x0, symName: __ZNKSt3__122__compressed_pair_elemINS_25__bucket_list_deallocatorINS_9allocatorIPNS_16__hash_node_baseIPNS_11__hash_nodeINS_17__hash_value_typeINS_12basic_stringIcNS_11char_traitsIcEENS2_IcEEEEdEEPvEEEEEEEELi1ELb0EE5__getB8ue170006Ev, symObjAddr: 0xC058, symBinAddr: 0x1000157CC, symSize: 0x14 }
  - { offsetInCU: 0x29BB3, offset: 0x4771D, size: 0x8, addend: 0x0, symName: __ZNKSt3__117__compressed_pairImNS_9allocatorIPNS_16__hash_node_baseIPNS_11__hash_nodeINS_17__hash_value_typeINS_12basic_stringIcNS_11char_traitsIcEENS1_IcEEEEdEEPvEEEEEEE5firstB8ue170006Ev, symObjAddr: 0xC06C, symBinAddr: 0x1000157E0, symSize: 0x24 }
  - { offsetInCU: 0x29BD8, offset: 0x47742, size: 0x8, addend: 0x0, symName: __ZNKSt3__117__compressed_pairIPPNS_16__hash_node_baseIPNS_11__hash_nodeINS_17__hash_value_typeINS_12basic_stringIcNS_11char_traitsIcEENS_9allocatorIcEEEEdEEPvEEEENS_25__bucket_list_deallocatorINS7_ISF_EEEEE5firstB8ue170006Ev, symObjAddr: 0xC090, symBinAddr: 0x100015804, symSize: 0x24 }
  - { offsetInCU: 0x29BFD, offset: 0x47767, size: 0x8, addend: 0x0, symName: __ZNKSt3__122__compressed_pair_elemIPPNS_16__hash_node_baseIPNS_11__hash_nodeINS_17__hash_value_typeINS_12basic_stringIcNS_11char_traitsIcEENS_9allocatorIcEEEEdEEPvEEEELi0ELb0EE5__getB8ue170006Ev, symObjAddr: 0xC0B4, symBinAddr: 0x100015828, symSize: 0x14 }
  - { offsetInCU: 0x29C22, offset: 0x4778C, size: 0x8, addend: 0x0, symName: __ZNSt3__117__compressed_pairIfNS_21__unordered_map_equalINS_12basic_stringIcNS_11char_traitsIcEENS_9allocatorIcEEEENS_17__hash_value_typeIS7_dEENS_8equal_toIS7_EENS_4hashIS7_EELb1EEEE6secondB8ue170006Ev, symObjAddr: 0xC0C8, symBinAddr: 0x10001583C, symSize: 0x24 }
  - { offsetInCU: 0x29C47, offset: 0x477B1, size: 0x8, addend: 0x0, symName: __ZNSt3__122__compressed_pair_elemINS_21__unordered_map_equalINS_12basic_stringIcNS_11char_traitsIcEENS_9allocatorIcEEEENS_17__hash_value_typeIS7_dEENS_8equal_toIS7_EENS_4hashIS7_EELb1EEELi1ELb1EE5__getB8ue170006Ev, symObjAddr: 0xC0EC, symBinAddr: 0x100015860, symSize: 0x14 }
  - { offsetInCU: 0x29C6C, offset: 0x477D6, size: 0x8, addend: 0x0, symName: __ZNKSt3__117__hash_value_typeINS_12basic_stringIcNS_11char_traitsIcEENS_9allocatorIcEEEEdE11__get_valueB8ue170006Ev, symObjAddr: 0xC100, symBinAddr: 0x100015874, symSize: 0x14 }
  - { offsetInCU: 0x29C91, offset: 0x477FB, size: 0x8, addend: 0x0, symName: __ZNSt3__116allocator_traitsINS_9allocatorINS_11__hash_nodeINS_17__hash_value_typeINS_12basic_stringIcNS_11char_traitsIcEENS1_IcEEEEdEEPvEEEEE8allocateB8ue170006ERSC_m, symObjAddr: 0xC150, symBinAddr: 0x100015888, symSize: 0x2C }
  - { offsetInCU: 0x29CC4, offset: 0x4782E, size: 0x8, addend: 0x0, symName: __ZNSt3__122__hash_node_destructorINS_9allocatorINS_11__hash_nodeINS_17__hash_value_typeINS_12basic_stringIcNS_11char_traitsIcEENS1_IcEEEEdEEPvEEEEEC1B8ue170006ERSC_b, symObjAddr: 0xC17C, symBinAddr: 0x1000158B4, symSize: 0x48 }
  - { offsetInCU: 0x29D10, offset: 0x4787A, size: 0x8, addend: 0x0, symName: __ZNSt3__110unique_ptrINS_11__hash_nodeINS_17__hash_value_typeINS_12basic_stringIcNS_11char_traitsIcEENS_9allocatorIcEEEEdEEPvEENS_22__hash_node_destructorINS6_ISB_EEEEEC1B8ue170006ILb1EvEEPSB_NS_16__dependent_typeINS_27__unique_ptr_deleter_sfinaeISE_EEXT_EE20__good_rval_ref_typeE, symObjAddr: 0xC1C4, symBinAddr: 0x1000158FC, symSize: 0x3C }
  - { offsetInCU: 0x29D60, offset: 0x478CA, size: 0x8, addend: 0x0, symName: __ZNSt3__116allocator_traitsINS_9allocatorINS_11__hash_nodeINS_17__hash_value_typeINS_12basic_stringIcNS_11char_traitsIcEENS1_IcEEEEdEEPvEEEEE9constructB8ue170006INS_4pairIKS8_dEEJRKNS_21piecewise_construct_tENS_5tupleIJRSG_EEENSL_IJEEEEvEEvRSC_PT_DpOT0_, symObjAddr: 0xC200, symBinAddr: 0x100015938, symSize: 0x44 }
  - { offsetInCU: 0x29DDF, offset: 0x47949, size: 0x8, addend: 0x0, symName: __ZNSt3__110unique_ptrINS_11__hash_nodeINS_17__hash_value_typeINS_12basic_stringIcNS_11char_traitsIcEENS_9allocatorIcEEEEdEEPvEENS_22__hash_node_destructorINS6_ISB_EEEEE11get_deleterB8ue170006Ev, symObjAddr: 0xC268, symBinAddr: 0x10001597C, symSize: 0x24 }
  - { offsetInCU: 0x29E04, offset: 0x4796E, size: 0x8, addend: 0x0, symName: __ZNSt3__19allocatorINS_11__hash_nodeINS_17__hash_value_typeINS_12basic_stringIcNS_11char_traitsIcEENS0_IcEEEEdEEPvEEE8allocateB8ue170006Em, symObjAddr: 0xC2C4, symBinAddr: 0x1000159A0, symSize: 0x5C }
  - { offsetInCU: 0x29E41, offset: 0x479AB, size: 0x8, addend: 0x0, symName: __ZNSt3__116allocator_traitsINS_9allocatorINS_11__hash_nodeINS_17__hash_value_typeINS_12basic_stringIcNS_11char_traitsIcEENS1_IcEEEEdEEPvEEEEE8max_sizeB8ue170006ISC_vEEmRKSC_, symObjAddr: 0xC320, symBinAddr: 0x1000159FC, symSize: 0x24 }
  - { offsetInCU: 0x29E6F, offset: 0x479D9, size: 0x8, addend: 0x0, symName: __ZNKSt3__19allocatorINS_11__hash_nodeINS_17__hash_value_typeINS_12basic_stringIcNS_11char_traitsIcEENS0_IcEEEEdEEPvEEE8max_sizeB8ue170006Ev, symObjAddr: 0xC344, symBinAddr: 0x100015A20, symSize: 0x18 }
  - { offsetInCU: 0x29E94, offset: 0x479FE, size: 0x8, addend: 0x0, symName: __ZNSt3__122__hash_node_destructorINS_9allocatorINS_11__hash_nodeINS_17__hash_value_typeINS_12basic_stringIcNS_11char_traitsIcEENS1_IcEEEEdEEPvEEEEEC2B8ue170006ERSC_b, symObjAddr: 0xC35C, symBinAddr: 0x100015A38, symSize: 0x38 }
  - { offsetInCU: 0x29EDB, offset: 0x47A45, size: 0x8, addend: 0x0, symName: __ZNSt3__110unique_ptrINS_11__hash_nodeINS_17__hash_value_typeINS_12basic_stringIcNS_11char_traitsIcEENS_9allocatorIcEEEEdEEPvEENS_22__hash_node_destructorINS6_ISB_EEEEEC2B8ue170006ILb1EvEEPSB_NS_16__dependent_typeINS_27__unique_ptr_deleter_sfinaeISE_EEXT_EE20__good_rval_ref_typeE, symObjAddr: 0xC394, symBinAddr: 0x100015A70, symSize: 0x48 }
  - { offsetInCU: 0x29F2B, offset: 0x47A95, size: 0x8, addend: 0x0, symName: __ZNSt3__117__compressed_pairIPNS_11__hash_nodeINS_17__hash_value_typeINS_12basic_stringIcNS_11char_traitsIcEENS_9allocatorIcEEEEdEEPvEENS_22__hash_node_destructorINS6_ISB_EEEEEC1B8ue170006IRSC_SF_EEOT_OT0_, symObjAddr: 0xC3DC, symBinAddr: 0x100015AB8, symSize: 0x3C }
  - { offsetInCU: 0x29F82, offset: 0x47AEC, size: 0x8, addend: 0x0, symName: __ZNSt3__117__compressed_pairIPNS_11__hash_nodeINS_17__hash_value_typeINS_12basic_stringIcNS_11char_traitsIcEENS_9allocatorIcEEEEdEEPvEENS_22__hash_node_destructorINS6_ISB_EEEEEC2B8ue170006IRSC_SF_EEOT_OT0_, symObjAddr: 0xC418, symBinAddr: 0x100015AF4, symSize: 0x48 }
  - { offsetInCU: 0x29FD9, offset: 0x47B43, size: 0x8, addend: 0x0, symName: __ZNSt3__122__compressed_pair_elemIPNS_11__hash_nodeINS_17__hash_value_typeINS_12basic_stringIcNS_11char_traitsIcEENS_9allocatorIcEEEEdEEPvEELi0ELb0EEC2B8ue170006IRSC_vEEOT_, symObjAddr: 0xC460, symBinAddr: 0x100015B3C, symSize: 0x24 }
  - { offsetInCU: 0x2A01A, offset: 0x47B84, size: 0x8, addend: 0x0, symName: __ZNSt3__122__compressed_pair_elemINS_22__hash_node_destructorINS_9allocatorINS_11__hash_nodeINS_17__hash_value_typeINS_12basic_stringIcNS_11char_traitsIcEENS2_IcEEEEdEEPvEEEEEELi1ELb0EEC2B8ue170006ISE_vEEOT_, symObjAddr: 0xC484, symBinAddr: 0x100015B60, symSize: 0x24 }
  - { offsetInCU: 0x2A05B, offset: 0x47BC5, size: 0x8, addend: 0x0, symName: __ZNSt3__19allocatorINS_11__hash_nodeINS_17__hash_value_typeINS_12basic_stringIcNS_11char_traitsIcEENS0_IcEEEEdEEPvEEE9constructB8ue170006INS_4pairIKS7_dEEJRKNS_21piecewise_construct_tENS_5tupleIJRSE_EEENSJ_IJEEEEEEvPT_DpOT0_, symObjAddr: 0xC4A8, symBinAddr: 0x100015B84, symSize: 0x44 }
  - { offsetInCU: 0x2A0D6, offset: 0x47C40, size: 0x8, addend: 0x0, symName: __ZNSt3__14pairIKNS_12basic_stringIcNS_11char_traitsIcEENS_9allocatorIcEEEEdEC1B8ue170006IJRS7_EJEEENS_21piecewise_construct_tENS_5tupleIJDpT_EEENSC_IJDpT0_EEE, symObjAddr: 0xC4EC, symBinAddr: 0x100015BC8, symSize: 0x3C }
  - { offsetInCU: 0x2A13C, offset: 0x47CA6, size: 0x8, addend: 0x0, symName: __ZNSt3__14pairIKNS_12basic_stringIcNS_11char_traitsIcEENS_9allocatorIcEEEEdEC1B8ue170006IJRS7_EJEJLm0EEJEEENS_21piecewise_construct_tERNS_5tupleIJDpT_EEERNSC_IJDpT0_EEENS_15__tuple_indicesIJXspT1_EEEENSL_IJXspT2_EEEE, symObjAddr: 0xC528, symBinAddr: 0x100015C04, symSize: 0x3C }
  - { offsetInCU: 0x2A1C8, offset: 0x47D32, size: 0x8, addend: 0x0, symName: __ZNSt3__14pairIKNS_12basic_stringIcNS_11char_traitsIcEENS_9allocatorIcEEEEdEC2B8ue170006IJRS7_EJEJLm0EEJEEENS_21piecewise_construct_tERNS_5tupleIJDpT_EEERNSC_IJDpT0_EEENS_15__tuple_indicesIJXspT1_EEEENSL_IJXspT2_EEEE, symObjAddr: 0xC564, symBinAddr: 0x100015C40, symSize: 0x4C }
  - { offsetInCU: 0x2A254, offset: 0x47DBE, size: 0x8, addend: 0x0, symName: __ZNSt3__117__compressed_pairIPNS_11__hash_nodeINS_17__hash_value_typeINS_12basic_stringIcNS_11char_traitsIcEENS_9allocatorIcEEEEdEEPvEENS_22__hash_node_destructorINS6_ISB_EEEEE6secondB8ue170006Ev, symObjAddr: 0xC5B0, symBinAddr: 0x100015C8C, symSize: 0x28 }
  - { offsetInCU: 0x2A279, offset: 0x47DE3, size: 0x8, addend: 0x0, symName: __ZNSt3__122__compressed_pair_elemINS_22__hash_node_destructorINS_9allocatorINS_11__hash_nodeINS_17__hash_value_typeINS_12basic_stringIcNS_11char_traitsIcEENS2_IcEEEEdEEPvEEEEEELi1ELb0EE5__getB8ue170006Ev, symObjAddr: 0xC5D8, symBinAddr: 0x100015CB4, symSize: 0x14 }
  - { offsetInCU: 0x2A29E, offset: 0x47E08, size: 0x8, addend: 0x0, symName: __ZNSt3__117__compressed_pairImNS_22__unordered_map_hasherINS_12basic_stringIcNS_11char_traitsIcEENS_9allocatorIcEEEENS_17__hash_value_typeIS7_dEENS_4hashIS7_EENS_8equal_toIS7_EELb1EEEE5firstB8ue170006Ev, symObjAddr: 0xC5EC, symBinAddr: 0x100015CC8, symSize: 0x24 }
  - { offsetInCU: 0x2A2C3, offset: 0x47E2D, size: 0x8, addend: 0x0, symName: __ZNSt3__117__compressed_pairIfNS_21__unordered_map_equalINS_12basic_stringIcNS_11char_traitsIcEENS_9allocatorIcEEEENS_17__hash_value_typeIS7_dEENS_8equal_toIS7_EENS_4hashIS7_EELb1EEEE5firstB8ue170006Ev, symObjAddr: 0xC610, symBinAddr: 0x100015CEC, symSize: 0x24 }
  - { offsetInCU: 0x2A2E8, offset: 0x47E52, size: 0x8, addend: 0x0, symName: __ZNSt3__112__hash_tableINS_17__hash_value_typeINS_12basic_stringIcNS_11char_traitsIcEENS_9allocatorIcEEEEdEENS_22__unordered_map_hasherIS7_S8_NS_4hashIS7_EENS_8equal_toIS7_EELb1EEENS_21__unordered_map_equalIS7_S8_SD_SB_Lb1EEENS5_IS8_EEE8__rehashILb1EEEvm, symObjAddr: 0xC634, symBinAddr: 0x100015D10, symSize: 0x1A8 }
  - { offsetInCU: 0x2A336, offset: 0x47EA0, size: 0x8, addend: 0x0, symName: __ZNSt3__112__hash_tableINS_17__hash_value_typeINS_12basic_stringIcNS_11char_traitsIcEENS_9allocatorIcEEEEdEENS_22__unordered_map_hasherIS7_S8_NS_4hashIS7_EENS_8equal_toIS7_EELb1EEENS_21__unordered_map_equalIS7_S8_SD_SB_Lb1EEENS5_IS8_EEE11__do_rehashILb1EEEvm, symObjAddr: 0xC7DC, symBinAddr: 0x100015EB8, symSize: 0x288 }
  - { offsetInCU: 0x2A41B, offset: 0x47F85, size: 0x8, addend: 0x0, symName: __ZNSt3__110unique_ptrIA_PNS_16__hash_node_baseIPNS_11__hash_nodeINS_17__hash_value_typeINS_12basic_stringIcNS_11char_traitsIcEENS_9allocatorIcEEEEdEEPvEEEENS_25__bucket_list_deallocatorINS7_ISF_EEEEE11get_deleterB8ue170006Ev, symObjAddr: 0xCA64, symBinAddr: 0x100016140, symSize: 0x24 }
  - { offsetInCU: 0x2A440, offset: 0x47FAA, size: 0x8, addend: 0x0, symName: __ZNSt3__110unique_ptrIA_PNS_16__hash_node_baseIPNS_11__hash_nodeINS_17__hash_value_typeINS_12basic_stringIcNS_11char_traitsIcEENS_9allocatorIcEEEEdEEPvEEEENS_25__bucket_list_deallocatorINS7_ISF_EEEEE5resetB8ue170006IPSF_EENS_9enable_ifIXsr28_CheckArrayPointerConversionIT_EE5valueEvE4typeESO_, symObjAddr: 0xCAAC, symBinAddr: 0x100016164, symSize: 0x78 }
  - { offsetInCU: 0x2A48C, offset: 0x47FF6, size: 0x8, addend: 0x0, symName: __ZNSt3__116allocator_traitsINS_9allocatorIPNS_16__hash_node_baseIPNS_11__hash_nodeINS_17__hash_value_typeINS_12basic_stringIcNS_11char_traitsIcEENS1_IcEEEEdEEPvEEEEEEE8allocateB8ue170006ERSG_m, symObjAddr: 0xCB24, symBinAddr: 0x1000161DC, symSize: 0x2C }
  - { offsetInCU: 0x2A4BF, offset: 0x48029, size: 0x8, addend: 0x0, symName: __ZNSt3__19allocatorIPNS_16__hash_node_baseIPNS_11__hash_nodeINS_17__hash_value_typeINS_12basic_stringIcNS_11char_traitsIcEENS0_IcEEEEdEEPvEEEEE8allocateB8ue170006Em, symObjAddr: 0xCCEC, symBinAddr: 0x100016208, symSize: 0x58 }
  - { offsetInCU: 0x2A4FC, offset: 0x48066, size: 0x8, addend: 0x0, symName: __ZNSt3__116allocator_traitsINS_9allocatorIPNS_16__hash_node_baseIPNS_11__hash_nodeINS_17__hash_value_typeINS_12basic_stringIcNS_11char_traitsIcEENS1_IcEEEEdEEPvEEEEEEE8max_sizeB8ue170006ISG_vEEmRKSG_, symObjAddr: 0xCD44, symBinAddr: 0x100016260, symSize: 0x24 }
  - { offsetInCU: 0x2A52A, offset: 0x48094, size: 0x8, addend: 0x0, symName: __ZNKSt3__19allocatorIPNS_16__hash_node_baseIPNS_11__hash_nodeINS_17__hash_value_typeINS_12basic_stringIcNS_11char_traitsIcEENS0_IcEEEEdEEPvEEEEE8max_sizeB8ue170006Ev, symObjAddr: 0xCD68, symBinAddr: 0x100016284, symSize: 0x14 }
  - { offsetInCU: 0x2A54F, offset: 0x480B9, size: 0x8, addend: 0x0, symName: __ZNKSt3__117__compressed_pairIPNS_11__hash_nodeINS_17__hash_value_typeINS_12basic_stringIcNS_11char_traitsIcEENS_9allocatorIcEEEEdEEPvEENS_22__hash_node_destructorINS6_ISB_EEEEE5firstB8ue170006Ev, symObjAddr: 0xCDB4, symBinAddr: 0x100016298, symSize: 0x24 }
  - { offsetInCU: 0x2A574, offset: 0x480DE, size: 0x8, addend: 0x0, symName: __ZNKSt3__122__compressed_pair_elemIPNS_11__hash_nodeINS_17__hash_value_typeINS_12basic_stringIcNS_11char_traitsIcEENS_9allocatorIcEEEEdEEPvEELi0ELb0EE5__getB8ue170006Ev, symObjAddr: 0xCDD8, symBinAddr: 0x1000162BC, symSize: 0x14 }
  - { offsetInCU: 0x2A599, offset: 0x48103, size: 0x8, addend: 0x0, symName: __ZNSt3__117__compressed_pairIPNS_11__hash_nodeINS_17__hash_value_typeINS_12basic_stringIcNS_11char_traitsIcEENS_9allocatorIcEEEEdEEPvEENS_22__hash_node_destructorINS6_ISB_EEEEE5firstB8ue170006Ev, symObjAddr: 0xCDEC, symBinAddr: 0x1000162D0, symSize: 0x24 }
  - { offsetInCU: 0x2A5BE, offset: 0x48128, size: 0x8, addend: 0x0, symName: __ZNSt3__122__compressed_pair_elemIPNS_11__hash_nodeINS_17__hash_value_typeINS_12basic_stringIcNS_11char_traitsIcEENS_9allocatorIcEEEEdEEPvEELi0ELb0EE5__getB8ue170006Ev, symObjAddr: 0xCE10, symBinAddr: 0x1000162F4, symSize: 0x14 }
  - { offsetInCU: 0x2A5E3, offset: 0x4814D, size: 0x8, addend: 0x0, symName: __ZNSt3__110unique_ptrINS_11__hash_nodeINS_17__hash_value_typeINS_12basic_stringIcNS_11char_traitsIcEENS_9allocatorIcEEEEdEEPvEENS_22__hash_node_destructorINS6_ISB_EEEEED2B8ue170006Ev, symObjAddr: 0xCE24, symBinAddr: 0x100016308, symSize: 0x30 }
  - { offsetInCU: 0x2A60C, offset: 0x48176, size: 0x8, addend: 0x0, symName: __ZNSt3__110unique_ptrINS_11__hash_nodeINS_17__hash_value_typeINS_12basic_stringIcNS_11char_traitsIcEENS_9allocatorIcEEEEdEEPvEENS_22__hash_node_destructorINS6_ISB_EEEEE5resetB8ue170006EPSB_, symObjAddr: 0xCE54, symBinAddr: 0x100016338, symSize: 0x78 }
  - { offsetInCU: 0x2A64F, offset: 0x481B9, size: 0x8, addend: 0x0, symName: __ZNSt3__122__hash_node_destructorINS_9allocatorINS_11__hash_nodeINS_17__hash_value_typeINS_12basic_stringIcNS_11char_traitsIcEENS1_IcEEEEdEEPvEEEEEclB8ue170006EPSB_, symObjAddr: 0xCECC, symBinAddr: 0x1000163B0, symSize: 0x98 }
  - { offsetInCU: 0x2A683, offset: 0x481ED, size: 0x8, addend: 0x0, symName: __ZNSt3__115__hash_iteratorIPNS_11__hash_nodeINS_17__hash_value_typeINS_12basic_stringIcNS_11char_traitsIcEENS_9allocatorIcEEEEdEEPvEEEC2B8ue170006EPNS_16__hash_node_baseISC_EE, symObjAddr: 0xD05C, symBinAddr: 0x100016448, symSize: 0x20 }
  - { offsetInCU: 0x2A6BB, offset: 0x48225, size: 0x8, addend: 0x0, symName: __ZNSt3__14pairINS_15__hash_iteratorIPNS_11__hash_nodeINS_17__hash_value_typeINS_12basic_stringIcNS_11char_traitsIcEENS_9allocatorIcEEEEdEEPvEEEEbEC2B8ue170006ISE_RbLSB_0EEEOT_OT0_, symObjAddr: 0xD07C, symBinAddr: 0x100016468, symSize: 0x38 }
  - { offsetInCU: 0x2A718, offset: 0x48282, size: 0x8, addend: 0x0, symName: __ZNSt3__114pointer_traitsIPNS_17__hash_value_typeINS_12basic_stringIcNS_11char_traitsIcEENS_9allocatorIcEEEEdEEE10pointer_toB8ue170006ERS8_, symObjAddr: 0xD0B4, symBinAddr: 0x1000164A0, symSize: 0x14 }
  - { offsetInCU: 0x2A73B, offset: 0x482A5, size: 0x8, addend: 0x0, symName: __ZNSt3__16vectorINS_12basic_stringIcNS_11char_traitsIcEENS_9allocatorIcEEEENS4_IS6_EEEC2ERKS8_, symObjAddr: 0xD0C8, symBinAddr: 0x1000164B4, symSize: 0x94 }
  - { offsetInCU: 0x2A775, offset: 0x482DF, size: 0x8, addend: 0x0, symName: __ZNSt3__116allocator_traitsINS_9allocatorINS_12basic_stringIcNS_11char_traitsIcEENS1_IcEEEEEEE37select_on_container_copy_constructionB8ue170006IS7_vvEES7_RKS7_, symObjAddr: 0xD15C, symBinAddr: 0x100016548, symSize: 0x10 }
  - { offsetInCU: 0x2A7A9, offset: 0x48313, size: 0x8, addend: 0x0, symName: __ZNSt3__117__compressed_pairIPNS_12basic_stringIcNS_11char_traitsIcEENS_9allocatorIcEEEENS4_IS6_EEEC1B8ue170006IDnS8_EEOT_OT0_, symObjAddr: 0xD16C, symBinAddr: 0x100016558, symSize: 0x3C }
  - { offsetInCU: 0x2A800, offset: 0x4836A, size: 0x8, addend: 0x0, symName: __ZNSt3__16vectorINS_12basic_stringIcNS_11char_traitsIcEENS_9allocatorIcEEEENS4_IS6_EEE16__init_with_sizeB8ue170006IPS6_SA_EEvT_T0_m, symObjAddr: 0xD1A8, symBinAddr: 0x100016594, symSize: 0xB8 }
  - { offsetInCU: 0x2A873, offset: 0x483DD, size: 0x8, addend: 0x0, symName: __ZNSt3__117__compressed_pairIPNS_12basic_stringIcNS_11char_traitsIcEENS_9allocatorIcEEEENS4_IS6_EEEC2B8ue170006IDnS8_EEOT_OT0_, symObjAddr: 0xD260, symBinAddr: 0x10001664C, symSize: 0x44 }
  - { offsetInCU: 0x2A8CA, offset: 0x48434, size: 0x8, addend: 0x0, symName: __ZNSt3__122__compressed_pair_elemINS_9allocatorINS_12basic_stringIcNS_11char_traitsIcEENS1_IcEEEEEELi1ELb1EEC2B8ue170006IS7_vEEOT_, symObjAddr: 0xD2A4, symBinAddr: 0x100016690, symSize: 0x18 }
  - { offsetInCU: 0x2A90B, offset: 0x48475, size: 0x8, addend: 0x0, symName: __ZNSt3__16vectorINS_12basic_stringIcNS_11char_traitsIcEENS_9allocatorIcEEEENS4_IS6_EEE11__vallocateB8ue170006Em, symObjAddr: 0xD2FC, symBinAddr: 0x1000166E8, symSize: 0xB4 }
  - { offsetInCU: 0x2A94E, offset: 0x484B8, size: 0x8, addend: 0x0, symName: __ZNSt3__16vectorINS_12basic_stringIcNS_11char_traitsIcEENS_9allocatorIcEEEENS4_IS6_EEE18__construct_at_endIPS6_SA_EEvT_T0_m, symObjAddr: 0xD3B0, symBinAddr: 0x10001679C, symSize: 0x8C }
  - { offsetInCU: 0x2A9C2, offset: 0x4852C, size: 0x8, addend: 0x0, symName: __ZNSt3__128__exception_guard_exceptionsINS_6vectorINS_12basic_stringIcNS_11char_traitsIcEENS_9allocatorIcEEEENS5_IS7_EEE16__destroy_vectorEE10__completeB8ue170006Ev, symObjAddr: 0xD43C, symBinAddr: 0x100016828, symSize: 0x1C }
  - { offsetInCU: 0x2A9E7, offset: 0x48551, size: 0x8, addend: 0x0, symName: __ZNSt3__128__exception_guard_exceptionsINS_6vectorINS_12basic_stringIcNS_11char_traitsIcEENS_9allocatorIcEEEENS5_IS7_EEE16__destroy_vectorEED1B8ue170006Ev, symObjAddr: 0xD458, symBinAddr: 0x100016844, symSize: 0x2C }
  - { offsetInCU: 0x2AA10, offset: 0x4857A, size: 0x8, addend: 0x0, symName: __ZNSt3__128__exception_guard_exceptionsINS_6vectorINS_12basic_stringIcNS_11char_traitsIcEENS_9allocatorIcEEEENS5_IS7_EEE16__destroy_vectorEEC1B8ue170006ESA_, symObjAddr: 0xD484, symBinAddr: 0x100016870, symSize: 0x34 }
  - { offsetInCU: 0x2AA47, offset: 0x485B1, size: 0x8, addend: 0x0, symName: __ZNSt3__128__exception_guard_exceptionsINS_6vectorINS_12basic_stringIcNS_11char_traitsIcEENS_9allocatorIcEEEENS5_IS7_EEE16__destroy_vectorEEC2B8ue170006ESA_, symObjAddr: 0xD4B8, symBinAddr: 0x1000168A4, symSize: 0x24 }
  - { offsetInCU: 0x2AA97, offset: 0x48601, size: 0x8, addend: 0x0, symName: __ZNSt3__14pairIPNS_12basic_stringIcNS_11char_traitsIcEENS_9allocatorIcEEEES7_EC1B8ue170006IS7_S7_LPv0EEEOT_OT0_, symObjAddr: 0xD748, symBinAddr: 0x100016B34, symSize: 0x3C }
  - { offsetInCU: 0x2AAF4, offset: 0x4865E, size: 0x8, addend: 0x0, symName: __ZNSt3__14pairIPNS_12basic_stringIcNS_11char_traitsIcEENS_9allocatorIcEEEES7_EC2B8ue170006IS7_S7_LPv0EEEOT_OT0_, symObjAddr: 0xD784, symBinAddr: 0x100016B70, symSize: 0x34 }
  - { offsetInCU: 0x2AB51, offset: 0x486BB, size: 0x8, addend: 0x0, symName: __ZNSt3__129_AllocatorDestroyRangeReverseINS_9allocatorINS_12basic_stringIcNS_11char_traitsIcEENS1_IcEEEEEEPS6_EC1B8ue170006ERS7_RS8_SB_, symObjAddr: 0xD804, symBinAddr: 0x100016BF0, symSize: 0x44 }
  - { offsetInCU: 0x2ABA7, offset: 0x48711, size: 0x8, addend: 0x0, symName: __ZNSt3__116allocator_traitsINS_9allocatorINS_12basic_stringIcNS_11char_traitsIcEENS1_IcEEEEEEE9constructB8ue170006IS6_JRS6_EvEEvRS7_PT_DpOT0_, symObjAddr: 0xD848, symBinAddr: 0x100016C34, symSize: 0x34 }
  - { offsetInCU: 0x2ABFE, offset: 0x48768, size: 0x8, addend: 0x0, symName: __ZNSt3__128__exception_guard_exceptionsINS_29_AllocatorDestroyRangeReverseINS_9allocatorINS_12basic_stringIcNS_11char_traitsIcEENS2_IcEEEEEEPS7_EEE10__completeB8ue170006Ev, symObjAddr: 0xD87C, symBinAddr: 0x100016C68, symSize: 0x1C }
  - { offsetInCU: 0x2AC23, offset: 0x4878D, size: 0x8, addend: 0x0, symName: __ZNSt3__128__exception_guard_exceptionsINS_29_AllocatorDestroyRangeReverseINS_9allocatorINS_12basic_stringIcNS_11char_traitsIcEENS2_IcEEEEEEPS7_EEED1B8ue170006Ev, symObjAddr: 0xD898, symBinAddr: 0x100016C84, symSize: 0x2C }
  - { offsetInCU: 0x2AC4C, offset: 0x487B6, size: 0x8, addend: 0x0, symName: __ZNSt3__128__exception_guard_exceptionsINS_29_AllocatorDestroyRangeReverseINS_9allocatorINS_12basic_stringIcNS_11char_traitsIcEENS2_IcEEEEEEPS7_EEEC1B8ue170006ESA_, symObjAddr: 0xD8C4, symBinAddr: 0x100016CB0, symSize: 0x34 }
  - { offsetInCU: 0x2AC84, offset: 0x487EE, size: 0x8, addend: 0x0, symName: __ZNSt3__128__exception_guard_exceptionsINS_29_AllocatorDestroyRangeReverseINS_9allocatorINS_12basic_stringIcNS_11char_traitsIcEENS2_IcEEEEEEPS7_EEEC2B8ue170006ESA_, symObjAddr: 0xD8F8, symBinAddr: 0x100016CE4, symSize: 0x30 }
  - { offsetInCU: 0x2ACBC, offset: 0x48826, size: 0x8, addend: 0x0, symName: __ZNSt3__129_AllocatorDestroyRangeReverseINS_9allocatorINS_12basic_stringIcNS_11char_traitsIcEENS1_IcEEEEEEPS6_EC2B8ue170006ERS7_RS8_SB_, symObjAddr: 0xD928, symBinAddr: 0x100016D14, symSize: 0x38 }
  - { offsetInCU: 0x2AD12, offset: 0x4887C, size: 0x8, addend: 0x0, symName: __ZNSt3__19allocatorINS_12basic_stringIcNS_11char_traitsIcEENS0_IcEEEEE9constructB8ue170006IS5_JRS5_EEEvPT_DpOT0_, symObjAddr: 0xD960, symBinAddr: 0x100016D4C, symSize: 0x30 }
  - { offsetInCU: 0x2AD67, offset: 0x488D1, size: 0x8, addend: 0x0, symName: __ZNSt3__128__exception_guard_exceptionsINS_29_AllocatorDestroyRangeReverseINS_9allocatorINS_12basic_stringIcNS_11char_traitsIcEENS2_IcEEEEEEPS7_EEED2B8ue170006Ev, symObjAddr: 0xD990, symBinAddr: 0x100016D7C, symSize: 0x50 }
  - { offsetInCU: 0x2AD90, offset: 0x488FA, size: 0x8, addend: 0x0, symName: __ZNKSt3__129_AllocatorDestroyRangeReverseINS_9allocatorINS_12basic_stringIcNS_11char_traitsIcEENS1_IcEEEEEEPS6_EclB8ue170006Ev, symObjAddr: 0xD9E0, symBinAddr: 0x100016DCC, symSize: 0x68 }
  - { offsetInCU: 0x2ADB5, offset: 0x4891F, size: 0x8, addend: 0x0, symName: __ZNSt3__118__unwrap_iter_implIPNS_12basic_stringIcNS_11char_traitsIcEENS_9allocatorIcEEEELb1EE8__unwrapB8ue170006ES7_, symObjAddr: 0xDAB8, symBinAddr: 0x100016EA4, symSize: 0x24 }
  - { offsetInCU: 0x2ADD8, offset: 0x48942, size: 0x8, addend: 0x0, symName: __ZNSt3__118__unwrap_iter_implIPNS_12basic_stringIcNS_11char_traitsIcEENS_9allocatorIcEEEELb1EE8__rewrapB8ue170006ES7_S7_, symObjAddr: 0xDADC, symBinAddr: 0x100016EC8, symSize: 0x58 }
  - { offsetInCU: 0x2AE09, offset: 0x48973, size: 0x8, addend: 0x0, symName: __ZNSt3__128__exception_guard_exceptionsINS_6vectorINS_12basic_stringIcNS_11char_traitsIcEENS_9allocatorIcEEEENS5_IS7_EEE16__destroy_vectorEED2B8ue170006Ev, symObjAddr: 0xDB34, symBinAddr: 0x100016F20, symSize: 0x48 }
  - { offsetInCU: 0x2AE32, offset: 0x4899C, size: 0x8, addend: 0x0, symName: __ZNSt3__112__hash_tableINS_17__hash_value_typeINS_12basic_stringIcNS_11char_traitsIcEENS_9allocatorIcEEEENS_13unordered_mapIS7_dNS_4hashIS7_EENS_8equal_toIS7_EENS5_INS_4pairIKS7_dEEEEEEEENS_22__unordered_map_hasherIS7_SI_SA_SC_Lb1EEENS_21__unordered_map_equalIS7_SI_SC_SA_Lb1EEENS5_ISI_EEE4findIS7_EENS_15__hash_iteratorIPNS_11__hash_nodeISI_PvEEEERKT_, symObjAddr: 0xDB7C, symBinAddr: 0x100016F68, symSize: 0x1B0 }
  - { offsetInCU: 0x2AEBB, offset: 0x48A25, size: 0x8, addend: 0x0, symName: __ZNSt3__114pointer_traitsIPNS_4pairIKNS_12basic_stringIcNS_11char_traitsIcEENS_9allocatorIcEEEENS_13unordered_mapIS7_dNS_4hashIS7_EENS_8equal_toIS7_EENS5_INS1_IS8_dEEEEEEEEE10pointer_toB8ue170006ERSH_, symObjAddr: 0xDD2C, symBinAddr: 0x100017118, symSize: 0x14 }
  - { offsetInCU: 0x2AEDE, offset: 0x48A48, size: 0x8, addend: 0x0, symName: __ZNSt3__112__hash_tableINS_17__hash_value_typeINS_12basic_stringIcNS_11char_traitsIcEENS_9allocatorIcEEEEdEENS_22__unordered_map_hasherIS7_S8_NS_4hashIS7_EENS_8equal_toIS7_EELb1EEENS_21__unordered_map_equalIS7_S8_SD_SB_Lb1EEENS5_IS8_EEE4findIS7_EENS_15__hash_iteratorIPNS_11__hash_nodeIS8_PvEEEERKT_, symObjAddr: 0xDD40, symBinAddr: 0x10001712C, symSize: 0x1B0 }
  - { offsetInCU: 0x2AF67, offset: 0x48AD1, size: 0x8, addend: 0x0, symName: __ZNSt3__119__hash_map_iteratorINS_15__hash_iteratorIPNS_11__hash_nodeINS_17__hash_value_typeINS_12basic_stringIcNS_11char_traitsIcEENS_9allocatorIcEEEEdEEPvEEEEEC1B8ue170006ESE_, symObjAddr: 0xDEF0, symBinAddr: 0x1000172DC, symSize: 0x34 }
  - { offsetInCU: 0x2AF9F, offset: 0x48B09, size: 0x8, addend: 0x0, symName: __ZNSt3__112__hash_tableINS_17__hash_value_typeINS_12basic_stringIcNS_11char_traitsIcEENS_9allocatorIcEEEEdEENS_22__unordered_map_hasherIS7_S8_NS_4hashIS7_EENS_8equal_toIS7_EELb1EEENS_21__unordered_map_equalIS7_S8_SD_SB_Lb1EEENS5_IS8_EEE3endEv, symObjAddr: 0xDF24, symBinAddr: 0x100017310, symSize: 0x2C }
  - { offsetInCU: 0x2AFC5, offset: 0x48B2F, size: 0x8, addend: 0x0, symName: __ZNSt3__119__hash_map_iteratorINS_15__hash_iteratorIPNS_11__hash_nodeINS_17__hash_value_typeINS_12basic_stringIcNS_11char_traitsIcEENS_9allocatorIcEEEEdEEPvEEEEEC2B8ue170006ESE_, symObjAddr: 0xDF50, symBinAddr: 0x10001733C, symSize: 0x20 }
  - { offsetInCU: 0x2AFFD, offset: 0x48B67, size: 0x8, addend: 0x0, symName: __ZNSt3__114pointer_traitsIPNS_4pairIKNS_12basic_stringIcNS_11char_traitsIcEENS_9allocatorIcEEEEdEEE10pointer_toB8ue170006ERS9_, symObjAddr: 0xDFD4, symBinAddr: 0x1000173C0, symSize: 0x14 }
  - { offsetInCU: 0x2B020, offset: 0x48B8A, size: 0x8, addend: 0x0, symName: __ZNSt3__112__hash_tableINS_17__hash_value_typeINS_12basic_stringIcNS_11char_traitsIcEENS_9allocatorIcEEEEdEENS_22__unordered_map_hasherIS7_S8_NS_4hashIS7_EENS_8equal_toIS7_EELb1EEENS_21__unordered_map_equalIS7_S8_SD_SB_Lb1EEENS5_IS8_EEE5beginEv, symObjAddr: 0xDFE8, symBinAddr: 0x1000173D4, symSize: 0x38 }
  - { offsetInCU: 0x2B046, offset: 0x48BB0, size: 0x8, addend: 0x0, symName: __ZNSt3__115__hash_iteratorIPNS_11__hash_nodeINS_17__hash_value_typeINS_12basic_stringIcNS_11char_traitsIcEENS_9allocatorIcEEEEdEEPvEEEppB8ue170006Ev, symObjAddr: 0xE020, symBinAddr: 0x10001740C, symSize: 0x20 }
  - { offsetInCU: 0x2B06B, offset: 0x48BD5, size: 0x8, addend: 0x0, symName: __ZNSt3__16vectorINS_12basic_stringIcNS_11char_traitsIcEENS_9allocatorIcEEEENS4_IS6_EEEC2B8ue170006EOS8_, symObjAddr: 0xE040, symBinAddr: 0x10001742C, symSize: 0xC4 }
  - { offsetInCU: 0x2B0A5, offset: 0x48C0F, size: 0x8, addend: 0x0, symName: __ZNSt3__113unordered_setINS_12basic_stringIcNS_11char_traitsIcEENS_9allocatorIcEEEENS_4hashIS6_EENS_8equal_toIS6_EENS4_IS6_EEEC2B8ue170006Ev, symObjAddr: 0xE104, symBinAddr: 0x1000174F0, symSize: 0x2C }
  - { offsetInCU: 0x2B0CE, offset: 0x48C38, size: 0x8, addend: 0x0, symName: __ZNSt3__113unordered_mapINS_12basic_stringIcNS_11char_traitsIcEENS_9allocatorIcEEEES6_NS_4hashIS6_EENS_8equal_toIS6_EENS4_INS_4pairIKS6_S6_EEEEEC2B8ue170006Ev, symObjAddr: 0xEC28, symBinAddr: 0x10001751C, symSize: 0x2C }
  - { offsetInCU: 0x2B0F7, offset: 0x48C61, size: 0x8, addend: 0x0, symName: __ZNSt3__112__hash_tableINS_17__hash_value_typeINS_12basic_stringIcNS_11char_traitsIcEENS_9allocatorIcEEEES7_EENS_22__unordered_map_hasherIS7_S8_NS_4hashIS7_EENS_8equal_toIS7_EELb1EEENS_21__unordered_map_equalIS7_S8_SD_SB_Lb1EEENS5_IS8_EEEC1Ev, symObjAddr: 0xEC54, symBinAddr: 0x100017548, symSize: 0x2C }
  - { offsetInCU: 0x2B122, offset: 0x48C8C, size: 0x8, addend: 0x0, symName: __ZNSt3__112__hash_tableINS_17__hash_value_typeINS_12basic_stringIcNS_11char_traitsIcEENS_9allocatorIcEEEES7_EENS_22__unordered_map_hasherIS7_S8_NS_4hashIS7_EENS_8equal_toIS7_EELb1EEENS_21__unordered_map_equalIS7_S8_SD_SB_Lb1EEENS5_IS8_EEEC2Ev, symObjAddr: 0xEC80, symBinAddr: 0x100017574, symSize: 0x7C }
  - { offsetInCU: 0x2B14D, offset: 0x48CB7, size: 0x8, addend: 0x0, symName: __ZNSt3__110unique_ptrIA_PNS_16__hash_node_baseIPNS_11__hash_nodeINS_17__hash_value_typeINS_12basic_stringIcNS_11char_traitsIcEENS_9allocatorIcEEEES9_EEPvEEEENS_25__bucket_list_deallocatorINS7_ISF_EEEEEC1B8ue170006ILb1EvEEv, symObjAddr: 0xECFC, symBinAddr: 0x1000175F0, symSize: 0x2C }
  - { offsetInCU: 0x2B181, offset: 0x48CEB, size: 0x8, addend: 0x0, symName: __ZNSt3__117__compressed_pairINS_16__hash_node_baseIPNS_11__hash_nodeINS_17__hash_value_typeINS_12basic_stringIcNS_11char_traitsIcEENS_9allocatorIcEEEES9_EEPvEEEENS7_ISC_EEEC1B8ue170006ILb1EvEEv, symObjAddr: 0xED28, symBinAddr: 0x10001761C, symSize: 0x2C }
  - { offsetInCU: 0x2B1B5, offset: 0x48D1F, size: 0x8, addend: 0x0, symName: __ZNSt3__117__compressed_pairImNS_22__unordered_map_hasherINS_12basic_stringIcNS_11char_traitsIcEENS_9allocatorIcEEEENS_17__hash_value_typeIS7_S7_EENS_4hashIS7_EENS_8equal_toIS7_EELb1EEEEC1B8ue170006IiNS_18__default_init_tagEEEOT_OT0_, symObjAddr: 0xED54, symBinAddr: 0x100017648, symSize: 0x3C }
  - { offsetInCU: 0x2B20C, offset: 0x48D76, size: 0x8, addend: 0x0, symName: __ZNSt3__117__compressed_pairIfNS_21__unordered_map_equalINS_12basic_stringIcNS_11char_traitsIcEENS_9allocatorIcEEEENS_17__hash_value_typeIS7_S7_EENS_8equal_toIS7_EENS_4hashIS7_EELb1EEEEC1B8ue170006IfNS_18__default_init_tagEEEOT_OT0_, symObjAddr: 0xED90, symBinAddr: 0x100017684, symSize: 0x3C }
  - { offsetInCU: 0x2B263, offset: 0x48DCD, size: 0x8, addend: 0x0, symName: __ZNSt3__110unique_ptrIA_PNS_16__hash_node_baseIPNS_11__hash_nodeINS_17__hash_value_typeINS_12basic_stringIcNS_11char_traitsIcEENS_9allocatorIcEEEES9_EEPvEEEENS_25__bucket_list_deallocatorINS7_ISF_EEEEEC2B8ue170006ILb1EvEEv, symObjAddr: 0xEDCC, symBinAddr: 0x1000176C0, symSize: 0x3C }
  - { offsetInCU: 0x2B297, offset: 0x48E01, size: 0x8, addend: 0x0, symName: __ZNSt3__117__compressed_pairIPPNS_16__hash_node_baseIPNS_11__hash_nodeINS_17__hash_value_typeINS_12basic_stringIcNS_11char_traitsIcEENS_9allocatorIcEEEES9_EEPvEEEENS_25__bucket_list_deallocatorINS7_ISF_EEEEEC1B8ue170006INS_16__value_init_tagESM_EEOT_OT0_, symObjAddr: 0xEE08, symBinAddr: 0x1000176FC, symSize: 0x3C }
  - { offsetInCU: 0x2B2EE, offset: 0x48E58, size: 0x8, addend: 0x0, symName: __ZNSt3__117__compressed_pairIPPNS_16__hash_node_baseIPNS_11__hash_nodeINS_17__hash_value_typeINS_12basic_stringIcNS_11char_traitsIcEENS_9allocatorIcEEEES9_EEPvEEEENS_25__bucket_list_deallocatorINS7_ISF_EEEEEC2B8ue170006INS_16__value_init_tagESM_EEOT_OT0_, symObjAddr: 0xEE44, symBinAddr: 0x100017738, symSize: 0x40 }
  - { offsetInCU: 0x2B345, offset: 0x48EAF, size: 0x8, addend: 0x0, symName: __ZNSt3__122__compressed_pair_elemIPPNS_16__hash_node_baseIPNS_11__hash_nodeINS_17__hash_value_typeINS_12basic_stringIcNS_11char_traitsIcEENS_9allocatorIcEEEES9_EEPvEEEELi0ELb0EEC2B8ue170006ENS_16__value_init_tagE, symObjAddr: 0xEE84, symBinAddr: 0x100017778, symSize: 0x18 }
  - { offsetInCU: 0x2B379, offset: 0x48EE3, size: 0x8, addend: 0x0, symName: __ZNSt3__122__compressed_pair_elemINS_25__bucket_list_deallocatorINS_9allocatorIPNS_16__hash_node_baseIPNS_11__hash_nodeINS_17__hash_value_typeINS_12basic_stringIcNS_11char_traitsIcEENS2_IcEEEESA_EEPvEEEEEEEELi1ELb0EEC2B8ue170006ENS_16__value_init_tagE, symObjAddr: 0xEE9C, symBinAddr: 0x100017790, symSize: 0x2C }
  - { offsetInCU: 0x2B3AD, offset: 0x48F17, size: 0x8, addend: 0x0, symName: __ZNSt3__125__bucket_list_deallocatorINS_9allocatorIPNS_16__hash_node_baseIPNS_11__hash_nodeINS_17__hash_value_typeINS_12basic_stringIcNS_11char_traitsIcEENS1_IcEEEES9_EEPvEEEEEEEC1B8ue170006Ev, symObjAddr: 0xEEC8, symBinAddr: 0x1000177BC, symSize: 0x2C }
  - { offsetInCU: 0x2B3D6, offset: 0x48F40, size: 0x8, addend: 0x0, symName: __ZNSt3__125__bucket_list_deallocatorINS_9allocatorIPNS_16__hash_node_baseIPNS_11__hash_nodeINS_17__hash_value_typeINS_12basic_stringIcNS_11char_traitsIcEENS1_IcEEEES9_EEPvEEEEEEEC2B8ue170006Ev, symObjAddr: 0xEEF4, symBinAddr: 0x1000177E8, symSize: 0x40 }
  - { offsetInCU: 0x2B3FF, offset: 0x48F69, size: 0x8, addend: 0x0, symName: __ZNSt3__117__compressed_pairImNS_9allocatorIPNS_16__hash_node_baseIPNS_11__hash_nodeINS_17__hash_value_typeINS_12basic_stringIcNS_11char_traitsIcEENS1_IcEEEES9_EEPvEEEEEEEC1B8ue170006IiNS_18__default_init_tagEEEOT_OT0_, symObjAddr: 0xEF34, symBinAddr: 0x100017828, symSize: 0x3C }
  - { offsetInCU: 0x2B456, offset: 0x48FC0, size: 0x8, addend: 0x0, symName: __ZNSt3__117__compressed_pairImNS_9allocatorIPNS_16__hash_node_baseIPNS_11__hash_nodeINS_17__hash_value_typeINS_12basic_stringIcNS_11char_traitsIcEENS1_IcEEEES9_EEPvEEEEEEEC2B8ue170006IiNS_18__default_init_tagEEEOT_OT0_, symObjAddr: 0xEF70, symBinAddr: 0x100017864, symSize: 0x40 }
  - { offsetInCU: 0x2B4AD, offset: 0x49017, size: 0x8, addend: 0x0, symName: __ZNSt3__122__compressed_pair_elemINS_9allocatorIPNS_16__hash_node_baseIPNS_11__hash_nodeINS_17__hash_value_typeINS_12basic_stringIcNS_11char_traitsIcEENS1_IcEEEES9_EEPvEEEEEELi1ELb1EEC2B8ue170006ENS_18__default_init_tagE, symObjAddr: 0xEFB0, symBinAddr: 0x1000178A4, symSize: 0x2C }
  - { offsetInCU: 0x2B4E1, offset: 0x4904B, size: 0x8, addend: 0x0, symName: __ZNSt3__19allocatorIPNS_16__hash_node_baseIPNS_11__hash_nodeINS_17__hash_value_typeINS_12basic_stringIcNS_11char_traitsIcEENS0_IcEEEES8_EEPvEEEEEC2B8ue170006Ev, symObjAddr: 0xEFDC, symBinAddr: 0x1000178D0, symSize: 0x2C }
  - { offsetInCU: 0x2B50A, offset: 0x49074, size: 0x8, addend: 0x0, symName: __ZNSt3__116__non_trivial_ifILb1ENS_9allocatorIPNS_16__hash_node_baseIPNS_11__hash_nodeINS_17__hash_value_typeINS_12basic_stringIcNS_11char_traitsIcEENS1_IcEEEES9_EEPvEEEEEEEC2B8ue170006Ev, symObjAddr: 0xF008, symBinAddr: 0x1000178FC, symSize: 0x14 }
  - { offsetInCU: 0x2B533, offset: 0x4909D, size: 0x8, addend: 0x0, symName: __ZNSt3__117__compressed_pairINS_16__hash_node_baseIPNS_11__hash_nodeINS_17__hash_value_typeINS_12basic_stringIcNS_11char_traitsIcEENS_9allocatorIcEEEES9_EEPvEEEENS7_ISC_EEEC2B8ue170006ILb1EvEEv, symObjAddr: 0xF01C, symBinAddr: 0x100017910, symSize: 0x34 }
  - { offsetInCU: 0x2B567, offset: 0x490D1, size: 0x8, addend: 0x0, symName: __ZNSt3__122__compressed_pair_elemINS_16__hash_node_baseIPNS_11__hash_nodeINS_17__hash_value_typeINS_12basic_stringIcNS_11char_traitsIcEENS_9allocatorIcEEEES9_EEPvEEEELi0ELb0EEC2B8ue170006ENS_16__value_init_tagE, symObjAddr: 0xF050, symBinAddr: 0x100017944, symSize: 0x2C }
  - { offsetInCU: 0x2B59B, offset: 0x49105, size: 0x8, addend: 0x0, symName: __ZNSt3__122__compressed_pair_elemINS_9allocatorINS_11__hash_nodeINS_17__hash_value_typeINS_12basic_stringIcNS_11char_traitsIcEENS1_IcEEEES8_EEPvEEEELi1ELb1EEC2B8ue170006ENS_16__value_init_tagE, symObjAddr: 0xF07C, symBinAddr: 0x100017970, symSize: 0x2C }
  - { offsetInCU: 0x2B5CF, offset: 0x49139, size: 0x8, addend: 0x0, symName: __ZNSt3__116__hash_node_baseIPNS_11__hash_nodeINS_17__hash_value_typeINS_12basic_stringIcNS_11char_traitsIcEENS_9allocatorIcEEEES8_EEPvEEEC1B8ue170006Ev, symObjAddr: 0xF0A8, symBinAddr: 0x10001799C, symSize: 0x2C }
  - { offsetInCU: 0x2B5F8, offset: 0x49162, size: 0x8, addend: 0x0, symName: __ZNSt3__116__hash_node_baseIPNS_11__hash_nodeINS_17__hash_value_typeINS_12basic_stringIcNS_11char_traitsIcEENS_9allocatorIcEEEES8_EEPvEEEC2B8ue170006Ev, symObjAddr: 0xF0D4, symBinAddr: 0x1000179C8, symSize: 0x18 }
  - { offsetInCU: 0x2B621, offset: 0x4918B, size: 0x8, addend: 0x0, symName: __ZNSt3__19allocatorINS_11__hash_nodeINS_17__hash_value_typeINS_12basic_stringIcNS_11char_traitsIcEENS0_IcEEEES7_EEPvEEEC2B8ue170006Ev, symObjAddr: 0xF0EC, symBinAddr: 0x1000179E0, symSize: 0x2C }
  - { offsetInCU: 0x2B64A, offset: 0x491B4, size: 0x8, addend: 0x0, symName: __ZNSt3__116__non_trivial_ifILb1ENS_9allocatorINS_11__hash_nodeINS_17__hash_value_typeINS_12basic_stringIcNS_11char_traitsIcEENS1_IcEEEES8_EEPvEEEEEC2B8ue170006Ev, symObjAddr: 0xF118, symBinAddr: 0x100017A0C, symSize: 0x14 }
  - { offsetInCU: 0x2B673, offset: 0x491DD, size: 0x8, addend: 0x0, symName: __ZNSt3__117__compressed_pairImNS_22__unordered_map_hasherINS_12basic_stringIcNS_11char_traitsIcEENS_9allocatorIcEEEENS_17__hash_value_typeIS7_S7_EENS_4hashIS7_EENS_8equal_toIS7_EELb1EEEEC2B8ue170006IiNS_18__default_init_tagEEEOT_OT0_, symObjAddr: 0xF12C, symBinAddr: 0x100017A20, symSize: 0x40 }
  - { offsetInCU: 0x2B6CA, offset: 0x49234, size: 0x8, addend: 0x0, symName: __ZNSt3__122__compressed_pair_elemINS_22__unordered_map_hasherINS_12basic_stringIcNS_11char_traitsIcEENS_9allocatorIcEEEENS_17__hash_value_typeIS7_S7_EENS_4hashIS7_EENS_8equal_toIS7_EELb1EEELi1ELb1EEC2B8ue170006ENS_18__default_init_tagE, symObjAddr: 0xF16C, symBinAddr: 0x100017A60, symSize: 0x2C }
  - { offsetInCU: 0x2B6FE, offset: 0x49268, size: 0x8, addend: 0x0, symName: __ZNSt3__122__unordered_map_hasherINS_12basic_stringIcNS_11char_traitsIcEENS_9allocatorIcEEEENS_17__hash_value_typeIS6_S6_EENS_4hashIS6_EENS_8equal_toIS6_EELb1EEC2B8ue170006Ev, symObjAddr: 0xF198, symBinAddr: 0x100017A8C, symSize: 0x14 }
  - { offsetInCU: 0x2B727, offset: 0x49291, size: 0x8, addend: 0x0, symName: __ZNSt3__117__compressed_pairIfNS_21__unordered_map_equalINS_12basic_stringIcNS_11char_traitsIcEENS_9allocatorIcEEEENS_17__hash_value_typeIS7_S7_EENS_8equal_toIS7_EENS_4hashIS7_EELb1EEEEC2B8ue170006IfNS_18__default_init_tagEEEOT_OT0_, symObjAddr: 0xF1AC, symBinAddr: 0x100017AA0, symSize: 0x40 }
  - { offsetInCU: 0x2B77E, offset: 0x492E8, size: 0x8, addend: 0x0, symName: __ZNSt3__122__compressed_pair_elemINS_21__unordered_map_equalINS_12basic_stringIcNS_11char_traitsIcEENS_9allocatorIcEEEENS_17__hash_value_typeIS7_S7_EENS_8equal_toIS7_EENS_4hashIS7_EELb1EEELi1ELb1EEC2B8ue170006ENS_18__default_init_tagE, symObjAddr: 0xF1EC, symBinAddr: 0x100017AE0, symSize: 0x2C }
  - { offsetInCU: 0x2B7B2, offset: 0x4931C, size: 0x8, addend: 0x0, symName: __ZNSt3__121__unordered_map_equalINS_12basic_stringIcNS_11char_traitsIcEENS_9allocatorIcEEEENS_17__hash_value_typeIS6_S6_EENS_8equal_toIS6_EENS_4hashIS6_EELb1EEC2B8ue170006Ev, symObjAddr: 0xF218, symBinAddr: 0x100017B0C, symSize: 0x14 }
  - { offsetInCU: 0x2B7DB, offset: 0x49345, size: 0x8, addend: 0x0, symName: __ZNSt3__113unordered_mapINS_12basic_stringIcNS_11char_traitsIcEENS_9allocatorIcEEEES6_NS_4hashIS6_EENS_8equal_toIS6_EENS4_INS_4pairIKS6_S6_EEEEED2B8ue170006Ev, symObjAddr: 0xF22C, symBinAddr: 0x100017B20, symSize: 0x2C }
  - { offsetInCU: 0x2B804, offset: 0x4936E, size: 0x8, addend: 0x0, symName: __ZNSt3__112__hash_tableINS_17__hash_value_typeINS_12basic_stringIcNS_11char_traitsIcEENS_9allocatorIcEEEES7_EENS_22__unordered_map_hasherIS7_S8_NS_4hashIS7_EENS_8equal_toIS7_EELb1EEENS_21__unordered_map_equalIS7_S8_SD_SB_Lb1EEENS5_IS8_EEED1Ev, symObjAddr: 0xF258, symBinAddr: 0x100017B4C, symSize: 0x2C }
  - { offsetInCU: 0x2B82F, offset: 0x49399, size: 0x8, addend: 0x0, symName: __ZNSt3__112__hash_tableINS_17__hash_value_typeINS_12basic_stringIcNS_11char_traitsIcEENS_9allocatorIcEEEES7_EENS_22__unordered_map_hasherIS7_S8_NS_4hashIS7_EENS_8equal_toIS7_EELb1EEENS_21__unordered_map_equalIS7_S8_SD_SB_Lb1EEENS5_IS8_EEED2Ev, symObjAddr: 0xF284, symBinAddr: 0x100017B78, symSize: 0x48 }
  - { offsetInCU: 0x2B85A, offset: 0x493C4, size: 0x8, addend: 0x0, symName: __ZNSt3__112__hash_tableINS_17__hash_value_typeINS_12basic_stringIcNS_11char_traitsIcEENS_9allocatorIcEEEES7_EENS_22__unordered_map_hasherIS7_S8_NS_4hashIS7_EENS_8equal_toIS7_EELb1EEENS_21__unordered_map_equalIS7_S8_SD_SB_Lb1EEENS5_IS8_EEE17__deallocate_nodeEPNS_16__hash_node_baseIPNS_11__hash_nodeIS8_PvEEEE, symObjAddr: 0xF2CC, symBinAddr: 0x100017BC0, symSize: 0xA8 }
  - { offsetInCU: 0x2B8C2, offset: 0x4942C, size: 0x8, addend: 0x0, symName: __ZNSt3__117__compressed_pairINS_16__hash_node_baseIPNS_11__hash_nodeINS_17__hash_value_typeINS_12basic_stringIcNS_11char_traitsIcEENS_9allocatorIcEEEES9_EEPvEEEENS7_ISC_EEE5firstB8ue170006Ev, symObjAddr: 0xF374, symBinAddr: 0x100017C68, symSize: 0x24 }
  - { offsetInCU: 0x2B8E7, offset: 0x49451, size: 0x8, addend: 0x0, symName: __ZNSt3__110unique_ptrIA_PNS_16__hash_node_baseIPNS_11__hash_nodeINS_17__hash_value_typeINS_12basic_stringIcNS_11char_traitsIcEENS_9allocatorIcEEEES9_EEPvEEEENS_25__bucket_list_deallocatorINS7_ISF_EEEEED1B8ue170006Ev, symObjAddr: 0xF398, symBinAddr: 0x100017C8C, symSize: 0x2C }
  - { offsetInCU: 0x2B910, offset: 0x4947A, size: 0x8, addend: 0x0, symName: __ZNSt3__112__hash_tableINS_17__hash_value_typeINS_12basic_stringIcNS_11char_traitsIcEENS_9allocatorIcEEEES7_EENS_22__unordered_map_hasherIS7_S8_NS_4hashIS7_EENS_8equal_toIS7_EELb1EEENS_21__unordered_map_equalIS7_S8_SD_SB_Lb1EEENS5_IS8_EEE12__node_allocB8ue170006Ev, symObjAddr: 0xF3C4, symBinAddr: 0x100017CB8, symSize: 0x28 }
  - { offsetInCU: 0x2B935, offset: 0x4949F, size: 0x8, addend: 0x0, symName: __ZNSt3__116__hash_node_baseIPNS_11__hash_nodeINS_17__hash_value_typeINS_12basic_stringIcNS_11char_traitsIcEENS_9allocatorIcEEEES8_EEPvEEE8__upcastB8ue170006Ev, symObjAddr: 0xF3EC, symBinAddr: 0x100017CE0, symSize: 0x24 }
  - { offsetInCU: 0x2B95A, offset: 0x494C4, size: 0x8, addend: 0x0, symName: __ZNSt3__116allocator_traitsINS_9allocatorINS_11__hash_nodeINS_17__hash_value_typeINS_12basic_stringIcNS_11char_traitsIcEENS1_IcEEEES8_EEPvEEEEE7destroyB8ue170006INS_4pairIKS8_S8_EEvvEEvRSC_PT_, symObjAddr: 0xF410, symBinAddr: 0x100017D04, symSize: 0x28 }
  - { offsetInCU: 0x2B994, offset: 0x494FE, size: 0x8, addend: 0x0, symName: __ZNSt3__122__hash_key_value_typesINS_17__hash_value_typeINS_12basic_stringIcNS_11char_traitsIcEENS_9allocatorIcEEEES7_EEE9__get_ptrB8ue170006ERS8_, symObjAddr: 0xF438, symBinAddr: 0x100017D2C, symSize: 0x24 }
  - { offsetInCU: 0x2B9B7, offset: 0x49521, size: 0x8, addend: 0x0, symName: __ZNSt3__116allocator_traitsINS_9allocatorINS_11__hash_nodeINS_17__hash_value_typeINS_12basic_stringIcNS_11char_traitsIcEENS1_IcEEEES8_EEPvEEEEE10deallocateB8ue170006ERSC_PSB_m, symObjAddr: 0xF45C, symBinAddr: 0x100017D50, symSize: 0x34 }
  - { offsetInCU: 0x2B9F9, offset: 0x49563, size: 0x8, addend: 0x0, symName: __ZNSt3__117__compressed_pairINS_16__hash_node_baseIPNS_11__hash_nodeINS_17__hash_value_typeINS_12basic_stringIcNS_11char_traitsIcEENS_9allocatorIcEEEES9_EEPvEEEENS7_ISC_EEE6secondB8ue170006Ev, symObjAddr: 0xF490, symBinAddr: 0x100017D84, symSize: 0x24 }
  - { offsetInCU: 0x2BA1E, offset: 0x49588, size: 0x8, addend: 0x0, symName: __ZNSt3__122__compressed_pair_elemINS_9allocatorINS_11__hash_nodeINS_17__hash_value_typeINS_12basic_stringIcNS_11char_traitsIcEENS1_IcEEEES8_EEPvEEEELi1ELb1EE5__getB8ue170006Ev, symObjAddr: 0xF4B4, symBinAddr: 0x100017DA8, symSize: 0x14 }
  - { offsetInCU: 0x2BA43, offset: 0x495AD, size: 0x8, addend: 0x0, symName: __ZNSt3__114pointer_traitsIPNS_16__hash_node_baseIPNS_11__hash_nodeINS_17__hash_value_typeINS_12basic_stringIcNS_11char_traitsIcEENS_9allocatorIcEEEES9_EEPvEEEEE10pointer_toB8ue170006ERSE_, symObjAddr: 0xF4C8, symBinAddr: 0x100017DBC, symSize: 0x14 }
  - { offsetInCU: 0x2BA66, offset: 0x495D0, size: 0x8, addend: 0x0, symName: __ZNSt3__14pairIKNS_12basic_stringIcNS_11char_traitsIcEENS_9allocatorIcEEEES6_ED1Ev, symObjAddr: 0xF4DC, symBinAddr: 0x100017DD0, symSize: 0x2C }
  - { offsetInCU: 0x2BA91, offset: 0x495FB, size: 0x8, addend: 0x0, symName: __ZNSt3__14pairIKNS_12basic_stringIcNS_11char_traitsIcEENS_9allocatorIcEEEES6_ED2Ev, symObjAddr: 0xF508, symBinAddr: 0x100017DFC, symSize: 0x38 }
  - { offsetInCU: 0x2BABC, offset: 0x49626, size: 0x8, addend: 0x0, symName: __ZNSt3__117__hash_value_typeINS_12basic_stringIcNS_11char_traitsIcEENS_9allocatorIcEEEES6_E11__get_valueB8ue170006Ev, symObjAddr: 0xF540, symBinAddr: 0x100017E34, symSize: 0x14 }
  - { offsetInCU: 0x2BAE1, offset: 0x4964B, size: 0x8, addend: 0x0, symName: __ZNSt3__19allocatorINS_11__hash_nodeINS_17__hash_value_typeINS_12basic_stringIcNS_11char_traitsIcEENS0_IcEEEES7_EEPvEEE10deallocateB8ue170006EPSA_m, symObjAddr: 0xF554, symBinAddr: 0x100017E48, symSize: 0x40 }
  - { offsetInCU: 0x2BB22, offset: 0x4968C, size: 0x8, addend: 0x0, symName: __ZNSt3__122__compressed_pair_elemINS_16__hash_node_baseIPNS_11__hash_nodeINS_17__hash_value_typeINS_12basic_stringIcNS_11char_traitsIcEENS_9allocatorIcEEEES9_EEPvEEEELi0ELb0EE5__getB8ue170006Ev, symObjAddr: 0xF594, symBinAddr: 0x100017E88, symSize: 0x14 }
  - { offsetInCU: 0x2BB47, offset: 0x496B1, size: 0x8, addend: 0x0, symName: __ZNSt3__110unique_ptrIA_PNS_16__hash_node_baseIPNS_11__hash_nodeINS_17__hash_value_typeINS_12basic_stringIcNS_11char_traitsIcEENS_9allocatorIcEEEES9_EEPvEEEENS_25__bucket_list_deallocatorINS7_ISF_EEEEED2B8ue170006Ev, symObjAddr: 0xF5A8, symBinAddr: 0x100017E9C, symSize: 0x30 }
  - { offsetInCU: 0x2BB70, offset: 0x496DA, size: 0x8, addend: 0x0, symName: __ZNSt3__110unique_ptrIA_PNS_16__hash_node_baseIPNS_11__hash_nodeINS_17__hash_value_typeINS_12basic_stringIcNS_11char_traitsIcEENS_9allocatorIcEEEES9_EEPvEEEENS_25__bucket_list_deallocatorINS7_ISF_EEEEE5resetB8ue170006EDn, symObjAddr: 0xF5D8, symBinAddr: 0x100017ECC, symSize: 0x6C }
  - { offsetInCU: 0x2BBAF, offset: 0x49719, size: 0x8, addend: 0x0, symName: __ZNSt3__117__compressed_pairIPPNS_16__hash_node_baseIPNS_11__hash_nodeINS_17__hash_value_typeINS_12basic_stringIcNS_11char_traitsIcEENS_9allocatorIcEEEES9_EEPvEEEENS_25__bucket_list_deallocatorINS7_ISF_EEEEE5firstB8ue170006Ev, symObjAddr: 0xF644, symBinAddr: 0x100017F38, symSize: 0x24 }
  - { offsetInCU: 0x2BBD4, offset: 0x4973E, size: 0x8, addend: 0x0, symName: __ZNSt3__117__compressed_pairIPPNS_16__hash_node_baseIPNS_11__hash_nodeINS_17__hash_value_typeINS_12basic_stringIcNS_11char_traitsIcEENS_9allocatorIcEEEES9_EEPvEEEENS_25__bucket_list_deallocatorINS7_ISF_EEEEE6secondB8ue170006Ev, symObjAddr: 0xF668, symBinAddr: 0x100017F5C, symSize: 0x28 }
  - { offsetInCU: 0x2BBF9, offset: 0x49763, size: 0x8, addend: 0x0, symName: __ZNSt3__125__bucket_list_deallocatorINS_9allocatorIPNS_16__hash_node_baseIPNS_11__hash_nodeINS_17__hash_value_typeINS_12basic_stringIcNS_11char_traitsIcEENS1_IcEEEES9_EEPvEEEEEEEclB8ue170006EPSF_, symObjAddr: 0xF690, symBinAddr: 0x100017F84, symSize: 0x58 }
  - { offsetInCU: 0x2BC2D, offset: 0x49797, size: 0x8, addend: 0x0, symName: __ZNSt3__122__compressed_pair_elemIPPNS_16__hash_node_baseIPNS_11__hash_nodeINS_17__hash_value_typeINS_12basic_stringIcNS_11char_traitsIcEENS_9allocatorIcEEEES9_EEPvEEEELi0ELb0EE5__getB8ue170006Ev, symObjAddr: 0xF6E8, symBinAddr: 0x100017FDC, symSize: 0x14 }
  - { offsetInCU: 0x2BC52, offset: 0x497BC, size: 0x8, addend: 0x0, symName: __ZNSt3__122__compressed_pair_elemINS_25__bucket_list_deallocatorINS_9allocatorIPNS_16__hash_node_baseIPNS_11__hash_nodeINS_17__hash_value_typeINS_12basic_stringIcNS_11char_traitsIcEENS2_IcEEEESA_EEPvEEEEEEEELi1ELb0EE5__getB8ue170006Ev, symObjAddr: 0xF6FC, symBinAddr: 0x100017FF0, symSize: 0x14 }
  - { offsetInCU: 0x2BC77, offset: 0x497E1, size: 0x8, addend: 0x0, symName: __ZNSt3__116allocator_traitsINS_9allocatorIPNS_16__hash_node_baseIPNS_11__hash_nodeINS_17__hash_value_typeINS_12basic_stringIcNS_11char_traitsIcEENS1_IcEEEES9_EEPvEEEEEEE10deallocateB8ue170006ERSG_PSF_m, symObjAddr: 0xF710, symBinAddr: 0x100018004, symSize: 0x34 }
  - { offsetInCU: 0x2BCB9, offset: 0x49823, size: 0x8, addend: 0x0, symName: __ZNSt3__125__bucket_list_deallocatorINS_9allocatorIPNS_16__hash_node_baseIPNS_11__hash_nodeINS_17__hash_value_typeINS_12basic_stringIcNS_11char_traitsIcEENS1_IcEEEES9_EEPvEEEEEEE7__allocB8ue170006Ev, symObjAddr: 0xF744, symBinAddr: 0x100018038, symSize: 0x24 }
  - { offsetInCU: 0x2BCDE, offset: 0x49848, size: 0x8, addend: 0x0, symName: __ZNSt3__125__bucket_list_deallocatorINS_9allocatorIPNS_16__hash_node_baseIPNS_11__hash_nodeINS_17__hash_value_typeINS_12basic_stringIcNS_11char_traitsIcEENS1_IcEEEES9_EEPvEEEEEEE4sizeB8ue170006Ev, symObjAddr: 0xF768, symBinAddr: 0x10001805C, symSize: 0x24 }
  - { offsetInCU: 0x2BD03, offset: 0x4986D, size: 0x8, addend: 0x0, symName: __ZNSt3__19allocatorIPNS_16__hash_node_baseIPNS_11__hash_nodeINS_17__hash_value_typeINS_12basic_stringIcNS_11char_traitsIcEENS0_IcEEEES8_EEPvEEEEE10deallocateB8ue170006EPSE_m, symObjAddr: 0xF78C, symBinAddr: 0x100018080, symSize: 0x40 }
  - { offsetInCU: 0x2BD44, offset: 0x498AE, size: 0x8, addend: 0x0, symName: __ZNSt3__117__compressed_pairImNS_9allocatorIPNS_16__hash_node_baseIPNS_11__hash_nodeINS_17__hash_value_typeINS_12basic_stringIcNS_11char_traitsIcEENS1_IcEEEES9_EEPvEEEEEEE6secondB8ue170006Ev, symObjAddr: 0xF7CC, symBinAddr: 0x1000180C0, symSize: 0x24 }
  - { offsetInCU: 0x2BD69, offset: 0x498D3, size: 0x8, addend: 0x0, symName: __ZNSt3__122__compressed_pair_elemINS_9allocatorIPNS_16__hash_node_baseIPNS_11__hash_nodeINS_17__hash_value_typeINS_12basic_stringIcNS_11char_traitsIcEENS1_IcEEEES9_EEPvEEEEEELi1ELb1EE5__getB8ue170006Ev, symObjAddr: 0xF7F0, symBinAddr: 0x1000180E4, symSize: 0x14 }
  - { offsetInCU: 0x2BD8E, offset: 0x498F8, size: 0x8, addend: 0x0, symName: __ZNSt3__117__compressed_pairImNS_9allocatorIPNS_16__hash_node_baseIPNS_11__hash_nodeINS_17__hash_value_typeINS_12basic_stringIcNS_11char_traitsIcEENS1_IcEEEES9_EEPvEEEEEEE5firstB8ue170006Ev, symObjAddr: 0xF804, symBinAddr: 0x1000180F8, symSize: 0x24 }
  - { offsetInCU: 0x2BDB3, offset: 0x4991D, size: 0x8, addend: 0x0, symName: __ZNSt3__15queueINS_12basic_stringIcNS_11char_traitsIcEENS_9allocatorIcEEEENS_5dequeIS6_NS4_IS6_EEEEEC2B8ue170006Ev, symObjAddr: 0xF828, symBinAddr: 0x10001811C, symSize: 0x2C }
  - { offsetInCU: 0x2BDDC, offset: 0x49946, size: 0x8, addend: 0x0, symName: __ZNSt3__15dequeINS_12basic_stringIcNS_11char_traitsIcEENS_9allocatorIcEEEENS4_IS6_EEEC1B8ue170006Ev, symObjAddr: 0xF854, symBinAddr: 0x100018148, symSize: 0x2C }
  - { offsetInCU: 0x2BE05, offset: 0x4996F, size: 0x8, addend: 0x0, symName: __ZNSt3__15dequeINS_12basic_stringIcNS_11char_traitsIcEENS_9allocatorIcEEEENS4_IS6_EEEC2B8ue170006Ev, symObjAddr: 0xF880, symBinAddr: 0x100018174, symSize: 0x5C }
  - { offsetInCU: 0x2BE2E, offset: 0x49998, size: 0x8, addend: 0x0, symName: __ZNSt3__114__split_bufferIPNS_12basic_stringIcNS_11char_traitsIcEENS_9allocatorIcEEEENS4_IS7_EEEC1B8ue170006Ev, symObjAddr: 0xF8DC, symBinAddr: 0x1000181D0, symSize: 0x2C }
  - { offsetInCU: 0x2BE57, offset: 0x499C1, size: 0x8, addend: 0x0, symName: __ZNSt3__117__compressed_pairImNS_9allocatorINS_12basic_stringIcNS_11char_traitsIcEENS1_IcEEEEEEEC1B8ue170006IiNS_18__default_init_tagEEEOT_OT0_, symObjAddr: 0xF908, symBinAddr: 0x1000181FC, symSize: 0x3C }
  - { offsetInCU: 0x2BEAE, offset: 0x49A18, size: 0x8, addend: 0x0, symName: __ZNSt3__114__split_bufferIPNS_12basic_stringIcNS_11char_traitsIcEENS_9allocatorIcEEEENS4_IS7_EEEC2B8ue170006Ev, symObjAddr: 0xF944, symBinAddr: 0x100018238, symSize: 0x50 }
  - { offsetInCU: 0x2BED7, offset: 0x49A41, size: 0x8, addend: 0x0, symName: __ZNSt3__117__compressed_pairIPPNS_12basic_stringIcNS_11char_traitsIcEENS_9allocatorIcEEEENS4_IS7_EEEC1B8ue170006IDnNS_18__default_init_tagEEEOT_OT0_, symObjAddr: 0xF994, symBinAddr: 0x100018288, symSize: 0x3C }
  - { offsetInCU: 0x2BF2E, offset: 0x49A98, size: 0x8, addend: 0x0, symName: __ZNSt3__117__compressed_pairIPPNS_12basic_stringIcNS_11char_traitsIcEENS_9allocatorIcEEEENS4_IS7_EEEC2B8ue170006IDnNS_18__default_init_tagEEEOT_OT0_, symObjAddr: 0xF9D0, symBinAddr: 0x1000182C4, symSize: 0x40 }
  - { offsetInCU: 0x2BF85, offset: 0x49AEF, size: 0x8, addend: 0x0, symName: __ZNSt3__122__compressed_pair_elemIPPNS_12basic_stringIcNS_11char_traitsIcEENS_9allocatorIcEEEELi0ELb0EEC2B8ue170006IDnvEEOT_, symObjAddr: 0xFA10, symBinAddr: 0x100018304, symSize: 0x1C }
  - { offsetInCU: 0x2BFC6, offset: 0x49B30, size: 0x8, addend: 0x0, symName: __ZNSt3__122__compressed_pair_elemINS_9allocatorIPNS_12basic_stringIcNS_11char_traitsIcEENS1_IcEEEEEELi1ELb1EEC2B8ue170006ENS_18__default_init_tagE, symObjAddr: 0xFA2C, symBinAddr: 0x100018320, symSize: 0x2C }
  - { offsetInCU: 0x2BFFA, offset: 0x49B64, size: 0x8, addend: 0x0, symName: __ZNSt3__19allocatorIPNS_12basic_stringIcNS_11char_traitsIcEENS0_IcEEEEEC2B8ue170006Ev, symObjAddr: 0xFA58, symBinAddr: 0x10001834C, symSize: 0x2C }
  - { offsetInCU: 0x2C023, offset: 0x49B8D, size: 0x8, addend: 0x0, symName: __ZNSt3__116__non_trivial_ifILb1ENS_9allocatorIPNS_12basic_stringIcNS_11char_traitsIcEENS1_IcEEEEEEEC2B8ue170006Ev, symObjAddr: 0xFA84, symBinAddr: 0x100018378, symSize: 0x14 }
  - { offsetInCU: 0x2C04C, offset: 0x49BB6, size: 0x8, addend: 0x0, symName: __ZNSt3__117__compressed_pairImNS_9allocatorINS_12basic_stringIcNS_11char_traitsIcEENS1_IcEEEEEEEC2B8ue170006IiNS_18__default_init_tagEEEOT_OT0_, symObjAddr: 0xFA98, symBinAddr: 0x10001838C, symSize: 0x40 }
  - { offsetInCU: 0x2C0A3, offset: 0x49C0D, size: 0x8, addend: 0x0, symName: __ZNSt3__15dequeINS_12basic_stringIcNS_11char_traitsIcEENS_9allocatorIcEEEENS4_IS6_EEE9push_backERKS6_, symObjAddr: 0xFAD8, symBinAddr: 0x1000183CC, symSize: 0xAC }
  - { offsetInCU: 0x2C0E7, offset: 0x49C51, size: 0x8, addend: 0x0, symName: __ZNKSt3__15dequeINS_12basic_stringIcNS_11char_traitsIcEENS_9allocatorIcEEEENS4_IS6_EEE12__back_spareB8ue170006Ev, symObjAddr: 0xFB84, symBinAddr: 0x100018478, symSize: 0x54 }
  - { offsetInCU: 0x2C10C, offset: 0x49C76, size: 0x8, addend: 0x0, symName: __ZNSt3__15dequeINS_12basic_stringIcNS_11char_traitsIcEENS_9allocatorIcEEEENS4_IS6_EEE19__add_back_capacityEv, symObjAddr: 0xFBD8, symBinAddr: 0x1000184CC, symSize: 0x34C }
  - { offsetInCU: 0x2C1C2, offset: 0x49D2C, size: 0x8, addend: 0x0, symName: __ZNKSt3__15dequeINS_12basic_stringIcNS_11char_traitsIcEENS_9allocatorIcEEEENS4_IS6_EEE24__annotate_increase_backB8ue170006Em, symObjAddr: 0xFF24, symBinAddr: 0x100018818, symSize: 0x7C }
  - { offsetInCU: 0x2C1F6, offset: 0x49D60, size: 0x8, addend: 0x0, symName: __ZNKSt3__15dequeINS_12basic_stringIcNS_11char_traitsIcEENS_9allocatorIcEEEENS4_IS6_EEE10__capacityB8ue170006Ev, symObjAddr: 0xFFA0, symBinAddr: 0x100018894, symSize: 0x64 }
  - { offsetInCU: 0x2C21B, offset: 0x49D85, size: 0x8, addend: 0x0, symName: __ZNKSt3__15dequeINS_12basic_stringIcNS_11char_traitsIcEENS_9allocatorIcEEEENS4_IS6_EEE13__front_spareB8ue170006Ev, symObjAddr: 0x10004, symBinAddr: 0x1000188F8, symSize: 0x18 }
  - { offsetInCU: 0x2C240, offset: 0x49DAA, size: 0x8, addend: 0x0, symName: __ZNSt3__114__split_bufferIPNS_12basic_stringIcNS_11char_traitsIcEENS_9allocatorIcEEEENS4_IS7_EEE9push_backB8ue170006ERKS7_, symObjAddr: 0x1001C, symBinAddr: 0x100018910, symSize: 0x260 }
  - { offsetInCU: 0x2C2B7, offset: 0x49E21, size: 0x8, addend: 0x0, symName: __ZNKSt3__114__split_bufferIPNS_12basic_stringIcNS_11char_traitsIcEENS_9allocatorIcEEEENS4_IS7_EEE12__back_spareB8ue170006Ev, symObjAddr: 0x1027C, symBinAddr: 0x100018B70, symSize: 0x40 }
  - { offsetInCU: 0x2C2DC, offset: 0x49E46, size: 0x8, addend: 0x0, symName: __ZNSt3__114__split_bufferIPNS_12basic_stringIcNS_11char_traitsIcEENS_9allocatorIcEEEENS4_IS7_EEE9push_backEOS7_, symObjAddr: 0x102BC, symBinAddr: 0x100018BB0, symSize: 0x260 }
  - { offsetInCU: 0x2C353, offset: 0x49EBD, size: 0x8, addend: 0x0, symName: __ZNSt3__116allocator_traitsINS_9allocatorINS_12basic_stringIcNS_11char_traitsIcEENS1_IcEEEEEEE8allocateB8ue170006ERS7_m, symObjAddr: 0x1051C, symBinAddr: 0x100018E10, symSize: 0x2C }
  - { offsetInCU: 0x2C386, offset: 0x49EF0, size: 0x8, addend: 0x0, symName: __ZNSt3__114__split_bufferIPNS_12basic_stringIcNS_11char_traitsIcEENS_9allocatorIcEEEENS4_IS7_EEE10push_frontEOS7_, symObjAddr: 0x10548, symBinAddr: 0x100018E3C, symSize: 0x25C }
  - { offsetInCU: 0x2C3FD, offset: 0x49F67, size: 0x8, addend: 0x0, symName: __ZNSt3__114__split_bufferIPNS_12basic_stringIcNS_11char_traitsIcEENS_9allocatorIcEEEERNS4_IS7_EEEC1EmmS9_, symObjAddr: 0x107A4, symBinAddr: 0x100019098, symSize: 0x44 }
  - { offsetInCU: 0x2C457, offset: 0x49FC1, size: 0x8, addend: 0x0, symName: __ZNSt3__122__allocator_destructorINS_9allocatorINS_12basic_stringIcNS_11char_traitsIcEENS1_IcEEEEEEEC1B8ue170006ERS7_m, symObjAddr: 0x107E8, symBinAddr: 0x1000190DC, symSize: 0x3C }
  - { offsetInCU: 0x2C505, offset: 0x4A06F, size: 0x8, addend: 0x0, symName: __ZNSt3__110unique_ptrIPNS_12basic_stringIcNS_11char_traitsIcEENS_9allocatorIcEEEENS_22__allocator_destructorINS4_IS6_EEEEEC1B8ue170006ILb1EvEES7_NS_16__dependent_typeINS_27__unique_ptr_deleter_sfinaeISA_EEXT_EE20__good_rval_ref_typeE, symObjAddr: 0x10824, symBinAddr: 0x100019118, symSize: 0x3C }
  - { offsetInCU: 0x2C555, offset: 0x4A0BF, size: 0x8, addend: 0x0, symName: __ZNSt3__114__split_bufferIPNS_12basic_stringIcNS_11char_traitsIcEENS_9allocatorIcEEEERNS4_IS7_EEE9push_backEOS7_, symObjAddr: 0x10860, symBinAddr: 0x100019154, symSize: 0x260 }
  - { offsetInCU: 0x2C5CC, offset: 0x4A136, size: 0x8, addend: 0x0, symName: __ZNKSt3__110unique_ptrIPNS_12basic_stringIcNS_11char_traitsIcEENS_9allocatorIcEEEENS_22__allocator_destructorINS4_IS6_EEEEE3getB8ue170006Ev, symObjAddr: 0x10AC0, symBinAddr: 0x1000193B4, symSize: 0x28 }
  - { offsetInCU: 0x2C5F1, offset: 0x4A15B, size: 0x8, addend: 0x0, symName: __ZNSt3__110unique_ptrIPNS_12basic_stringIcNS_11char_traitsIcEENS_9allocatorIcEEEENS_22__allocator_destructorINS4_IS6_EEEEE7releaseB8ue170006Ev, symObjAddr: 0x10AE8, symBinAddr: 0x1000193DC, symSize: 0x44 }
  - { offsetInCU: 0x2C625, offset: 0x4A18F, size: 0x8, addend: 0x0, symName: __ZNSt3__114__split_bufferIPNS_12basic_stringIcNS_11char_traitsIcEENS_9allocatorIcEEEERNS4_IS7_EEE10push_frontERKS7_, symObjAddr: 0x10B2C, symBinAddr: 0x100019420, symSize: 0x25C }
  - { offsetInCU: 0x2C69C, offset: 0x4A206, size: 0x8, addend: 0x0, symName: __ZNSt3__114__split_bufferIPNS_12basic_stringIcNS_11char_traitsIcEENS_9allocatorIcEEEENS4_IS7_EEE9__end_capB8ue170006Ev, symObjAddr: 0x10DC4, symBinAddr: 0x1000196B8, symSize: 0x28 }
  - { offsetInCU: 0x2C6C1, offset: 0x4A22B, size: 0x8, addend: 0x0, symName: __ZNSt3__114__split_bufferIPNS_12basic_stringIcNS_11char_traitsIcEENS_9allocatorIcEEEERNS4_IS7_EEE9__end_capB8ue170006Ev, symObjAddr: 0x10DEC, symBinAddr: 0x1000196E0, symSize: 0x28 }
  - { offsetInCU: 0x2C6E6, offset: 0x4A250, size: 0x8, addend: 0x0, symName: __ZNSt3__110unique_ptrIPNS_12basic_stringIcNS_11char_traitsIcEENS_9allocatorIcEEEENS_22__allocator_destructorINS4_IS6_EEEEED1B8ue170006Ev, symObjAddr: 0x10E14, symBinAddr: 0x100019708, symSize: 0x2C }
  - { offsetInCU: 0x2C70F, offset: 0x4A279, size: 0x8, addend: 0x0, symName: __ZNSt3__114__split_bufferIPNS_12basic_stringIcNS_11char_traitsIcEENS_9allocatorIcEEEERNS4_IS7_EEED1Ev, symObjAddr: 0x10E40, symBinAddr: 0x100019734, symSize: 0x2C }
  - { offsetInCU: 0x2C73A, offset: 0x4A2A4, size: 0x8, addend: 0x0, symName: __ZNSt3__114__split_bufferIPNS_12basic_stringIcNS_11char_traitsIcEENS_9allocatorIcEEEERNS4_IS7_EEE18__construct_at_endINS_13move_iteratorIPS7_EEEENS_9enable_ifIXsr31__has_forward_iterator_categoryIT_EE5valueEvE4typeESG_SG_, symObjAddr: 0x10EAC, symBinAddr: 0x1000197A0, symSize: 0x60 }
  - { offsetInCU: 0x2C785, offset: 0x4A2EF, size: 0x8, addend: 0x0, symName: __ZNSt3__113move_iteratorIPPNS_12basic_stringIcNS_11char_traitsIcEENS_9allocatorIcEEEEEC1B8ue170006ES8_, symObjAddr: 0x10F0C, symBinAddr: 0x100019800, symSize: 0x34 }
  - { offsetInCU: 0x2C7C1, offset: 0x4A32B, size: 0x8, addend: 0x0, symName: __ZNSt3__116allocator_traitsINS_9allocatorIPNS_12basic_stringIcNS_11char_traitsIcEENS1_IcEEEEEEE9constructB8ue170006IS7_JRKS7_EvEEvRS8_PT_DpOT0_, symObjAddr: 0x10F40, symBinAddr: 0x100019834, symSize: 0x34 }
  - { offsetInCU: 0x2C83B, offset: 0x4A3A5, size: 0x8, addend: 0x0, symName: __ZNKSt3__114__move_trivialclB8ue170006IPNS_12basic_stringIcNS_11char_traitsIcEENS_9allocatorIcEEEES8_Li0EEENS_4pairIPT_PT0_EESB_SB_SD_, symObjAddr: 0x11110, symBinAddr: 0x100019A04, symSize: 0x48 }
  - { offsetInCU: 0x2C8A7, offset: 0x4A411, size: 0x8, addend: 0x0, symName: __ZNSt3__14pairIPPNS_12basic_stringIcNS_11char_traitsIcEENS_9allocatorIcEEEES8_EC1B8ue170006IRS8_S8_LPv0EEEOT_OT0_, symObjAddr: 0x11338, symBinAddr: 0x100019C2C, symSize: 0x3C }
  - { offsetInCU: 0x2C904, offset: 0x4A46E, size: 0x8, addend: 0x0, symName: __ZNSt3__14pairIPPNS_12basic_stringIcNS_11char_traitsIcEENS_9allocatorIcEEEES8_EC2B8ue170006IRS8_S8_LPv0EEEOT_OT0_, symObjAddr: 0x11374, symBinAddr: 0x100019C68, symSize: 0x34 }
  - { offsetInCU: 0x2C961, offset: 0x4A4CB, size: 0x8, addend: 0x0, symName: __ZNSt3__118__unwrap_iter_implIPPNS_12basic_stringIcNS_11char_traitsIcEENS_9allocatorIcEEEELb1EE8__unwrapB8ue170006ES8_, symObjAddr: 0x113A8, symBinAddr: 0x100019C9C, symSize: 0x24 }
  - { offsetInCU: 0x2C984, offset: 0x4A4EE, size: 0x8, addend: 0x0, symName: __ZNSt3__14pairIPPNS_12basic_stringIcNS_11char_traitsIcEENS_9allocatorIcEEEES8_EC1B8ue170006IS8_S8_LPv0EEEOT_OT0_, symObjAddr: 0x113CC, symBinAddr: 0x100019CC0, symSize: 0x3C }
  - { offsetInCU: 0x2C9E1, offset: 0x4A54B, size: 0x8, addend: 0x0, symName: __ZNSt3__14pairIPPNS_12basic_stringIcNS_11char_traitsIcEENS_9allocatorIcEEEES8_EC2B8ue170006IS8_S8_LPv0EEEOT_OT0_, symObjAddr: 0x11408, symBinAddr: 0x100019CFC, symSize: 0x34 }
  - { offsetInCU: 0x2CA3E, offset: 0x4A5A8, size: 0x8, addend: 0x0, symName: __ZNSt3__118__unwrap_iter_implIPPNS_12basic_stringIcNS_11char_traitsIcEENS_9allocatorIcEEEELb1EE8__rewrapB8ue170006ES8_S8_, symObjAddr: 0x1143C, symBinAddr: 0x100019D30, symSize: 0x50 }
  - { offsetInCU: 0x2CA6F, offset: 0x4A5D9, size: 0x8, addend: 0x0, symName: __ZNSt3__114__split_bufferIPNS_12basic_stringIcNS_11char_traitsIcEENS_9allocatorIcEEEERNS4_IS7_EEE28__construct_at_end_with_sizeINS_13move_iteratorIPS7_EEEEvT_m, symObjAddr: 0x1148C, symBinAddr: 0x100019D80, symSize: 0xDC }
  - { offsetInCU: 0x2CAD3, offset: 0x4A63D, size: 0x8, addend: 0x0, symName: __ZNSt3__114__split_bufferIPNS_12basic_stringIcNS_11char_traitsIcEENS_9allocatorIcEEEERNS4_IS7_EEE21_ConstructTransactionC1B8ue170006EPPS7_m, symObjAddr: 0x115A4, symBinAddr: 0x100019E98, symSize: 0x3C }
  - { offsetInCU: 0x2CB18, offset: 0x4A682, size: 0x8, addend: 0x0, symName: __ZNSt3__116allocator_traitsINS_9allocatorIPNS_12basic_stringIcNS_11char_traitsIcEENS1_IcEEEEEEE9constructB8ue170006IS7_JS7_EvEEvRS8_PT_DpOT0_, symObjAddr: 0x115E0, symBinAddr: 0x100019ED4, symSize: 0x34 }
  - { offsetInCU: 0x2CB6F, offset: 0x4A6D9, size: 0x8, addend: 0x0, symName: __ZNSt3__114__split_bufferIPNS_12basic_stringIcNS_11char_traitsIcEENS_9allocatorIcEEEERNS4_IS7_EEE7__allocB8ue170006Ev, symObjAddr: 0x11614, symBinAddr: 0x100019F08, symSize: 0x28 }
  - { offsetInCU: 0x2CB94, offset: 0x4A6FE, size: 0x8, addend: 0x0, symName: __ZNKSt3__113move_iteratorIPPNS_12basic_stringIcNS_11char_traitsIcEENS_9allocatorIcEEEEEdeB8ue170006Ev, symObjAddr: 0x1163C, symBinAddr: 0x100019F30, symSize: 0x18 }
  - { offsetInCU: 0x2CBB9, offset: 0x4A723, size: 0x8, addend: 0x0, symName: __ZNSt3__113move_iteratorIPPNS_12basic_stringIcNS_11char_traitsIcEENS_9allocatorIcEEEEEppB8ue170006Ev, symObjAddr: 0x11654, symBinAddr: 0x100019F48, symSize: 0x20 }
  - { offsetInCU: 0x2CBDE, offset: 0x4A748, size: 0x8, addend: 0x0, symName: __ZNSt3__114__split_bufferIPNS_12basic_stringIcNS_11char_traitsIcEENS_9allocatorIcEEEERNS4_IS7_EEE21_ConstructTransactionD1B8ue170006Ev, symObjAddr: 0x11674, symBinAddr: 0x100019F68, symSize: 0x2C }
  - { offsetInCU: 0x2CC07, offset: 0x4A771, size: 0x8, addend: 0x0, symName: __ZNSt3__114__split_bufferIPNS_12basic_stringIcNS_11char_traitsIcEENS_9allocatorIcEEEERNS4_IS7_EEE21_ConstructTransactionC2B8ue170006EPPS7_m, symObjAddr: 0x116A0, symBinAddr: 0x100019F94, symSize: 0x44 }
  - { offsetInCU: 0x2CC4C, offset: 0x4A7B6, size: 0x8, addend: 0x0, symName: __ZNSt3__19allocatorIPNS_12basic_stringIcNS_11char_traitsIcEENS0_IcEEEEE9constructB8ue170006IS6_JS6_EEEvPT_DpOT0_, symObjAddr: 0x116E4, symBinAddr: 0x100019FD8, symSize: 0x28 }
  - { offsetInCU: 0x2CCA1, offset: 0x4A80B, size: 0x8, addend: 0x0, symName: __ZNSt3__117__compressed_pairIPPNS_12basic_stringIcNS_11char_traitsIcEENS_9allocatorIcEEEERNS4_IS7_EEE6secondB8ue170006Ev, symObjAddr: 0x1170C, symBinAddr: 0x10001A000, symSize: 0x28 }
  - { offsetInCU: 0x2CCC6, offset: 0x4A830, size: 0x8, addend: 0x0, symName: __ZNSt3__122__compressed_pair_elemIRNS_9allocatorIPNS_12basic_stringIcNS_11char_traitsIcEENS1_IcEEEEEELi1ELb0EE5__getB8ue170006Ev, symObjAddr: 0x11734, symBinAddr: 0x10001A028, symSize: 0x18 }
  - { offsetInCU: 0x2CCEB, offset: 0x4A855, size: 0x8, addend: 0x0, symName: __ZNSt3__114__split_bufferIPNS_12basic_stringIcNS_11char_traitsIcEENS_9allocatorIcEEEERNS4_IS7_EEE21_ConstructTransactionD2B8ue170006Ev, symObjAddr: 0x1174C, symBinAddr: 0x10001A040, symSize: 0x20 }
  - { offsetInCU: 0x2CD14, offset: 0x4A87E, size: 0x8, addend: 0x0, symName: __ZNKSt3__113move_iteratorIPPNS_12basic_stringIcNS_11char_traitsIcEENS_9allocatorIcEEEEE4baseB8ue170006Ev, symObjAddr: 0x117E4, symBinAddr: 0x10001A0D8, symSize: 0x18 }
  - { offsetInCU: 0x2CD39, offset: 0x4A8A3, size: 0x8, addend: 0x0, symName: __ZNSt3__113move_iteratorIPPNS_12basic_stringIcNS_11char_traitsIcEENS_9allocatorIcEEEEEC2B8ue170006ES8_, symObjAddr: 0x117FC, symBinAddr: 0x10001A0F0, symSize: 0x20 }
  - { offsetInCU: 0x2CD70, offset: 0x4A8DA, size: 0x8, addend: 0x0, symName: __ZNSt3__19allocatorIPNS_12basic_stringIcNS_11char_traitsIcEENS0_IcEEEEE9constructB8ue170006IS6_JRKS6_EEEvPT_DpOT0_, symObjAddr: 0x1181C, symBinAddr: 0x10001A110, symSize: 0x28 }
  - { offsetInCU: 0x2CDCF, offset: 0x4A939, size: 0x8, addend: 0x0, symName: __ZNKSt3__123__move_backward_trivialclB8ue170006IPNS_12basic_stringIcNS_11char_traitsIcEENS_9allocatorIcEEEES8_Li0EEENS_4pairIPT_PT0_EESB_SB_SD_, symObjAddr: 0x119C0, symBinAddr: 0x10001A2B4, symSize: 0x48 }
  - { offsetInCU: 0x2CE36, offset: 0x4A9A0, size: 0x8, addend: 0x0, symName: __ZNSt3__14pairIPPNS_12basic_stringIcNS_11char_traitsIcEENS_9allocatorIcEEEES8_EC1B8ue170006IRS8_SB_LPv0EEEOT_OT0_, symObjAddr: 0x11AD0, symBinAddr: 0x10001A3C4, symSize: 0x3C }
  - { offsetInCU: 0x2CE93, offset: 0x4A9FD, size: 0x8, addend: 0x0, symName: __ZNSt3__14pairIPPNS_12basic_stringIcNS_11char_traitsIcEENS_9allocatorIcEEEES8_EC2B8ue170006IRS8_SB_LPv0EEEOT_OT0_, symObjAddr: 0x11B0C, symBinAddr: 0x10001A400, symSize: 0x34 }
  - { offsetInCU: 0x2CEF0, offset: 0x4AA5A, size: 0x8, addend: 0x0, symName: __ZNSt3__114__split_bufferIPNS_12basic_stringIcNS_11char_traitsIcEENS_9allocatorIcEEEERNS4_IS7_EEEC2EmmS9_, symObjAddr: 0x11B40, symBinAddr: 0x10001A434, symSize: 0xD4 }
  - { offsetInCU: 0x2CF63, offset: 0x4AACD, size: 0x8, addend: 0x0, symName: __ZNSt3__117__compressed_pairIPPNS_12basic_stringIcNS_11char_traitsIcEENS_9allocatorIcEEEERNS4_IS7_EEEC1B8ue170006IDnSA_EEOT_OT0_, symObjAddr: 0x11C14, symBinAddr: 0x10001A508, symSize: 0x3C }
  - { offsetInCU: 0x2CFBA, offset: 0x4AB24, size: 0x8, addend: 0x0, symName: __ZNSt3__117__compressed_pairIPPNS_12basic_stringIcNS_11char_traitsIcEENS_9allocatorIcEEEERNS4_IS7_EEEC2B8ue170006IDnSA_EEOT_OT0_, symObjAddr: 0x11C90, symBinAddr: 0x10001A584, symSize: 0x48 }
  - { offsetInCU: 0x2D011, offset: 0x4AB7B, size: 0x8, addend: 0x0, symName: __ZNSt3__122__compressed_pair_elemIRNS_9allocatorIPNS_12basic_stringIcNS_11char_traitsIcEENS1_IcEEEEEELi1ELb0EEC2B8ue170006IS9_vEEOT_, symObjAddr: 0x11CD8, symBinAddr: 0x10001A5CC, symSize: 0x20 }
  - { offsetInCU: 0x2D052, offset: 0x4ABBC, size: 0x8, addend: 0x0, symName: __ZNSt3__19allocatorIPNS_12basic_stringIcNS_11char_traitsIcEENS0_IcEEEEE8allocateB8ue170006Em, symObjAddr: 0x11CF8, symBinAddr: 0x10001A5EC, symSize: 0x58 }
  - { offsetInCU: 0x2D08F, offset: 0x4ABF9, size: 0x8, addend: 0x0, symName: __ZNSt3__116allocator_traitsINS_9allocatorIPNS_12basic_stringIcNS_11char_traitsIcEENS1_IcEEEEEEE8max_sizeB8ue170006IS8_vEEmRKS8_, symObjAddr: 0x11D50, symBinAddr: 0x10001A644, symSize: 0x24 }
  - { offsetInCU: 0x2D0BD, offset: 0x4AC27, size: 0x8, addend: 0x0, symName: __ZNKSt3__19allocatorIPNS_12basic_stringIcNS_11char_traitsIcEENS0_IcEEEEE8max_sizeB8ue170006Ev, symObjAddr: 0x11D74, symBinAddr: 0x10001A668, symSize: 0x14 }
  - { offsetInCU: 0x2D0E2, offset: 0x4AC4C, size: 0x8, addend: 0x0, symName: __ZNSt3__122__allocator_destructorINS_9allocatorINS_12basic_stringIcNS_11char_traitsIcEENS1_IcEEEEEEEC2B8ue170006ERS7_m, symObjAddr: 0x11D88, symBinAddr: 0x10001A67C, symSize: 0x2C }
  - { offsetInCU: 0x2D127, offset: 0x4AC91, size: 0x8, addend: 0x0, symName: __ZNSt3__110unique_ptrIPNS_12basic_stringIcNS_11char_traitsIcEENS_9allocatorIcEEEENS_22__allocator_destructorINS4_IS6_EEEEEC2B8ue170006ILb1EvEES7_NS_16__dependent_typeINS_27__unique_ptr_deleter_sfinaeISA_EEXT_EE20__good_rval_ref_typeE, symObjAddr: 0x11DB4, symBinAddr: 0x10001A6A8, symSize: 0x48 }
  - { offsetInCU: 0x2D177, offset: 0x4ACE1, size: 0x8, addend: 0x0, symName: __ZNSt3__117__compressed_pairIPNS_12basic_stringIcNS_11char_traitsIcEENS_9allocatorIcEEEENS_22__allocator_destructorINS4_IS6_EEEEEC1B8ue170006IRS7_SA_EEOT_OT0_, symObjAddr: 0x11DFC, symBinAddr: 0x10001A6F0, symSize: 0x3C }
  - { offsetInCU: 0x2D1CE, offset: 0x4AD38, size: 0x8, addend: 0x0, symName: __ZNSt3__117__compressed_pairIPNS_12basic_stringIcNS_11char_traitsIcEENS_9allocatorIcEEEENS_22__allocator_destructorINS4_IS6_EEEEEC2B8ue170006IRS7_SA_EEOT_OT0_, symObjAddr: 0x11E38, symBinAddr: 0x10001A72C, symSize: 0x48 }
  - { offsetInCU: 0x2D225, offset: 0x4AD8F, size: 0x8, addend: 0x0, symName: __ZNSt3__122__compressed_pair_elemIPNS_12basic_stringIcNS_11char_traitsIcEENS_9allocatorIcEEEELi0ELb0EEC2B8ue170006IRS7_vEEOT_, symObjAddr: 0x11E80, symBinAddr: 0x10001A774, symSize: 0x24 }
  - { offsetInCU: 0x2D266, offset: 0x4ADD0, size: 0x8, addend: 0x0, symName: __ZNSt3__122__compressed_pair_elemINS_22__allocator_destructorINS_9allocatorINS_12basic_stringIcNS_11char_traitsIcEENS2_IcEEEEEEEELi1ELb0EEC2B8ue170006IS9_vEEOT_, symObjAddr: 0x11EA4, symBinAddr: 0x10001A798, symSize: 0x24 }
  - { offsetInCU: 0x2D2A7, offset: 0x4AE11, size: 0x8, addend: 0x0, symName: __ZNKSt3__117__compressed_pairIPNS_12basic_stringIcNS_11char_traitsIcEENS_9allocatorIcEEEENS_22__allocator_destructorINS4_IS6_EEEEE5firstB8ue170006Ev, symObjAddr: 0x11EC8, symBinAddr: 0x10001A7BC, symSize: 0x24 }
  - { offsetInCU: 0x2D2CC, offset: 0x4AE36, size: 0x8, addend: 0x0, symName: __ZNSt3__117__compressed_pairIPNS_12basic_stringIcNS_11char_traitsIcEENS_9allocatorIcEEEENS_22__allocator_destructorINS4_IS6_EEEEE5firstB8ue170006Ev, symObjAddr: 0x11EEC, symBinAddr: 0x10001A7E0, symSize: 0x24 }
  - { offsetInCU: 0x2D2F1, offset: 0x4AE5B, size: 0x8, addend: 0x0, symName: __ZNSt3__117__compressed_pairIPPNS_12basic_stringIcNS_11char_traitsIcEENS_9allocatorIcEEEENS4_IS7_EEE5firstB8ue170006Ev, symObjAddr: 0x11F10, symBinAddr: 0x10001A804, symSize: 0x24 }
  - { offsetInCU: 0x2D316, offset: 0x4AE80, size: 0x8, addend: 0x0, symName: __ZNSt3__122__compressed_pair_elemIPPNS_12basic_stringIcNS_11char_traitsIcEENS_9allocatorIcEEEELi0ELb0EE5__getB8ue170006Ev, symObjAddr: 0x11F34, symBinAddr: 0x10001A828, symSize: 0x14 }
  - { offsetInCU: 0x2D33B, offset: 0x4AEA5, size: 0x8, addend: 0x0, symName: __ZNSt3__117__compressed_pairIPPNS_12basic_stringIcNS_11char_traitsIcEENS_9allocatorIcEEEERNS4_IS7_EEE5firstB8ue170006Ev, symObjAddr: 0x11F48, symBinAddr: 0x10001A83C, symSize: 0x24 }
  - { offsetInCU: 0x2D360, offset: 0x4AECA, size: 0x8, addend: 0x0, symName: __ZNSt3__110unique_ptrIPNS_12basic_stringIcNS_11char_traitsIcEENS_9allocatorIcEEEENS_22__allocator_destructorINS4_IS6_EEEEED2B8ue170006Ev, symObjAddr: 0x11F6C, symBinAddr: 0x10001A860, symSize: 0x30 }
  - { offsetInCU: 0x2D389, offset: 0x4AEF3, size: 0x8, addend: 0x0, symName: __ZNSt3__110unique_ptrIPNS_12basic_stringIcNS_11char_traitsIcEENS_9allocatorIcEEEENS_22__allocator_destructorINS4_IS6_EEEEE5resetB8ue170006ES7_, symObjAddr: 0x11F9C, symBinAddr: 0x10001A890, symSize: 0x78 }
  - { offsetInCU: 0x2D3CC, offset: 0x4AF36, size: 0x8, addend: 0x0, symName: __ZNSt3__117__compressed_pairIPNS_12basic_stringIcNS_11char_traitsIcEENS_9allocatorIcEEEENS_22__allocator_destructorINS4_IS6_EEEEE6secondB8ue170006Ev, symObjAddr: 0x12014, symBinAddr: 0x10001A908, symSize: 0x28 }
  - { offsetInCU: 0x2D3F1, offset: 0x4AF5B, size: 0x8, addend: 0x0, symName: __ZNSt3__122__allocator_destructorINS_9allocatorINS_12basic_stringIcNS_11char_traitsIcEENS1_IcEEEEEEEclB8ue170006EPS6_, symObjAddr: 0x1203C, symBinAddr: 0x10001A930, symSize: 0x34 }
  - { offsetInCU: 0x2D424, offset: 0x4AF8E, size: 0x8, addend: 0x0, symName: __ZNSt3__122__compressed_pair_elemINS_22__allocator_destructorINS_9allocatorINS_12basic_stringIcNS_11char_traitsIcEENS2_IcEEEEEEEELi1ELb0EE5__getB8ue170006Ev, symObjAddr: 0x12070, symBinAddr: 0x10001A964, symSize: 0x14 }
  - { offsetInCU: 0x2D449, offset: 0x4AFB3, size: 0x8, addend: 0x0, symName: __ZNSt3__114__split_bufferIPNS_12basic_stringIcNS_11char_traitsIcEENS_9allocatorIcEEEERNS4_IS7_EEED2Ev, symObjAddr: 0x12084, symBinAddr: 0x10001A978, symSize: 0x8C }
  - { offsetInCU: 0x2D474, offset: 0x4AFDE, size: 0x8, addend: 0x0, symName: __ZNSt3__114__split_bufferIPNS_12basic_stringIcNS_11char_traitsIcEENS_9allocatorIcEEEERNS4_IS7_EEE5clearB8ue170006Ev, symObjAddr: 0x12110, symBinAddr: 0x10001AA04, symSize: 0x28 }
  - { offsetInCU: 0x2D499, offset: 0x4B003, size: 0x8, addend: 0x0, symName: __ZNKSt3__114__split_bufferIPNS_12basic_stringIcNS_11char_traitsIcEENS_9allocatorIcEEEERNS4_IS7_EEE8capacityB8ue170006Ev, symObjAddr: 0x12138, symBinAddr: 0x10001AA2C, symSize: 0x40 }
  - { offsetInCU: 0x2D4BE, offset: 0x4B028, size: 0x8, addend: 0x0, symName: __ZNSt3__114__split_bufferIPNS_12basic_stringIcNS_11char_traitsIcEENS_9allocatorIcEEEERNS4_IS7_EEE17__destruct_at_endB8ue170006EPS7_, symObjAddr: 0x12178, symBinAddr: 0x10001AA6C, symSize: 0x2C }
  - { offsetInCU: 0x2D4F1, offset: 0x4B05B, size: 0x8, addend: 0x0, symName: __ZNSt3__114__split_bufferIPNS_12basic_stringIcNS_11char_traitsIcEENS_9allocatorIcEEEERNS4_IS7_EEE17__destruct_at_endB8ue170006EPS7_NS_17integral_constantIbLb0EEE, symObjAddr: 0x121A4, symBinAddr: 0x10001AA98, symSize: 0x80 }
  - { offsetInCU: 0x2D530, offset: 0x4B09A, size: 0x8, addend: 0x0, symName: __ZNKSt3__114__split_bufferIPNS_12basic_stringIcNS_11char_traitsIcEENS_9allocatorIcEEEERNS4_IS7_EEE9__end_capB8ue170006Ev, symObjAddr: 0x12224, symBinAddr: 0x10001AB18, symSize: 0x28 }
  - { offsetInCU: 0x2D555, offset: 0x4B0BF, size: 0x8, addend: 0x0, symName: __ZNKSt3__117__compressed_pairIPPNS_12basic_stringIcNS_11char_traitsIcEENS_9allocatorIcEEEERNS4_IS7_EEE5firstB8ue170006Ev, symObjAddr: 0x1224C, symBinAddr: 0x10001AB40, symSize: 0x24 }
  - { offsetInCU: 0x2D57A, offset: 0x4B0E4, size: 0x8, addend: 0x0, symName: __ZNSt3__14pairINS_21__hash_const_iteratorIPNS_11__hash_nodeINS_12basic_stringIcNS_11char_traitsIcEENS_9allocatorIcEEEEPvEEEEbEC1B8ue170006INS_15__hash_iteratorISB_EEbLS9_0EEEONS0_IT_T0_EE, symObjAddr: 0x122C0, symBinAddr: 0x10001AB64, symSize: 0x34 }
  - { offsetInCU: 0x2D5D9, offset: 0x4B143, size: 0x8, addend: 0x0, symName: __ZNSt3__14pairINS_21__hash_const_iteratorIPNS_11__hash_nodeINS_12basic_stringIcNS_11char_traitsIcEENS_9allocatorIcEEEEPvEEEEbEC2B8ue170006INS_15__hash_iteratorISB_EEbLS9_0EEEONS0_IT_T0_EE, symObjAddr: 0x13804, symBinAddr: 0x10001AB98, symSize: 0x44 }
  - { offsetInCU: 0x2D629, offset: 0x4B193, size: 0x8, addend: 0x0, symName: __ZNSt3__121__hash_const_iteratorIPNS_11__hash_nodeINS_12basic_stringIcNS_11char_traitsIcEENS_9allocatorIcEEEEPvEEEC1B8ue170006ERKNS_15__hash_iteratorISA_EE, symObjAddr: 0x13848, symBinAddr: 0x10001ABDC, symSize: 0x34 }
  - { offsetInCU: 0x2D661, offset: 0x4B1CB, size: 0x8, addend: 0x0, symName: __ZNSt3__121__hash_const_iteratorIPNS_11__hash_nodeINS_12basic_stringIcNS_11char_traitsIcEENS_9allocatorIcEEEEPvEEEC2B8ue170006ERKNS_15__hash_iteratorISA_EE, symObjAddr: 0x1387C, symBinAddr: 0x10001AC10, symSize: 0x24 }
  - { offsetInCU: 0x2D699, offset: 0x4B203, size: 0x8, addend: 0x0, symName: __ZNSt3__15dequeINS_12basic_stringIcNS_11char_traitsIcEENS_9allocatorIcEEEENS4_IS6_EEE5frontEv, symObjAddr: 0x138A0, symBinAddr: 0x10001AC34, symSize: 0x58 }
  - { offsetInCU: 0x2D6BF, offset: 0x4B229, size: 0x8, addend: 0x0, symName: __ZNSt3__15dequeINS_12basic_stringIcNS_11char_traitsIcEENS_9allocatorIcEEEENS4_IS6_EEE9pop_frontEv, symObjAddr: 0x138F8, symBinAddr: 0x10001AC8C, symSize: 0xDC }
  - { offsetInCU: 0x2D712, offset: 0x4B27C, size: 0x8, addend: 0x0, symName: __ZNKSt3__15dequeINS_12basic_stringIcNS_11char_traitsIcEENS_9allocatorIcEEEENS4_IS6_EEE23__annotate_shrink_frontB8ue170006Emm, symObjAddr: 0x139D4, symBinAddr: 0x10001AD68, symSize: 0x70 }
  - { offsetInCU: 0x2D755, offset: 0x4B2BF, size: 0x8, addend: 0x0, symName: __ZNSt3__15dequeINS_12basic_stringIcNS_11char_traitsIcEENS_9allocatorIcEEEENS4_IS6_EEE26__maybe_remove_front_spareB8ue170006Eb, symObjAddr: 0x13A44, symBinAddr: 0x10001ADD8, symSize: 0xEC }
  - { offsetInCU: 0x2D789, offset: 0x4B2F3, size: 0x8, addend: 0x0, symName: __ZNKSt3__15dequeINS_12basic_stringIcNS_11char_traitsIcEENS_9allocatorIcEEEENS4_IS6_EEE20__front_spare_blocksB8ue170006Ev, symObjAddr: 0x13B30, symBinAddr: 0x10001AEC4, symSize: 0x2C }
  - { offsetInCU: 0x2D7AE, offset: 0x4B318, size: 0x8, addend: 0x0, symName: __ZNSt3__112__hash_tableINS_17__hash_value_typeINS_12basic_stringIcNS_11char_traitsIcEENS_9allocatorIcEEEES7_EENS_22__unordered_map_hasherIS7_S8_NS_4hashIS7_EENS_8equal_toIS7_EELb1EEENS_21__unordered_map_equalIS7_S8_SD_SB_Lb1EEENS5_IS8_EEE25__emplace_unique_key_argsIS7_JRKNS_21piecewise_construct_tENS_5tupleIJRKS7_EEENSN_IJEEEEEENS_4pairINS_15__hash_iteratorIPNS_11__hash_nodeIS8_PvEEEEbEERKT_DpOT0_, symObjAddr: 0x13B5C, symBinAddr: 0x10001AEF0, symSize: 0x4CC }
  - { offsetInCU: 0x2D8B6, offset: 0x4B420, size: 0x8, addend: 0x0, symName: __ZNKSt3__115__hash_iteratorIPNS_11__hash_nodeINS_17__hash_value_typeINS_12basic_stringIcNS_11char_traitsIcEENS_9allocatorIcEEEES8_EEPvEEEptB8ue170006Ev, symObjAddr: 0x14028, symBinAddr: 0x10001B3BC, symSize: 0x30 }
  - { offsetInCU: 0x2D8DB, offset: 0x4B445, size: 0x8, addend: 0x0, symName: __ZNSt3__112__hash_tableINS_17__hash_value_typeINS_12basic_stringIcNS_11char_traitsIcEENS_9allocatorIcEEEES7_EENS_22__unordered_map_hasherIS7_S8_NS_4hashIS7_EENS_8equal_toIS7_EELb1EEENS_21__unordered_map_equalIS7_S8_SD_SB_Lb1EEENS5_IS8_EEE13hash_functionB8ue170006Ev, symObjAddr: 0x14058, symBinAddr: 0x10001B3EC, symSize: 0x28 }
  - { offsetInCU: 0x2D900, offset: 0x4B46A, size: 0x8, addend: 0x0, symName: __ZNKSt3__122__unordered_map_hasherINS_12basic_stringIcNS_11char_traitsIcEENS_9allocatorIcEEEENS_17__hash_value_typeIS6_S6_EENS_4hashIS6_EENS_8equal_toIS6_EELb1EEclB8ue170006ERKS6_, symObjAddr: 0x14080, symBinAddr: 0x10001B414, symSize: 0x2C }
  - { offsetInCU: 0x2D934, offset: 0x4B49E, size: 0x8, addend: 0x0, symName: __ZNKSt3__112__hash_tableINS_17__hash_value_typeINS_12basic_stringIcNS_11char_traitsIcEENS_9allocatorIcEEEES7_EENS_22__unordered_map_hasherIS7_S8_NS_4hashIS7_EENS_8equal_toIS7_EELb1EEENS_21__unordered_map_equalIS7_S8_SD_SB_Lb1EEENS5_IS8_EEE12bucket_countB8ue170006Ev, symObjAddr: 0x140AC, symBinAddr: 0x10001B440, symSize: 0x28 }
  - { offsetInCU: 0x2D959, offset: 0x4B4C3, size: 0x8, addend: 0x0, symName: __ZNKSt3__110unique_ptrIA_PNS_16__hash_node_baseIPNS_11__hash_nodeINS_17__hash_value_typeINS_12basic_stringIcNS_11char_traitsIcEENS_9allocatorIcEEEES9_EEPvEEEENS_25__bucket_list_deallocatorINS7_ISF_EEEEEixB8ue170006Em, symObjAddr: 0x140D4, symBinAddr: 0x10001B468, symSize: 0x34 }
  - { offsetInCU: 0x2D98D, offset: 0x4B4F7, size: 0x8, addend: 0x0, symName: __ZNKSt3__116__hash_node_baseIPNS_11__hash_nodeINS_17__hash_value_typeINS_12basic_stringIcNS_11char_traitsIcEENS_9allocatorIcEEEES8_EEPvEEE6__hashB8ue170006Ev, symObjAddr: 0x14108, symBinAddr: 0x10001B49C, symSize: 0x18 }
  - { offsetInCU: 0x2D9B2, offset: 0x4B51C, size: 0x8, addend: 0x0, symName: __ZNSt3__112__hash_tableINS_17__hash_value_typeINS_12basic_stringIcNS_11char_traitsIcEENS_9allocatorIcEEEES7_EENS_22__unordered_map_hasherIS7_S8_NS_4hashIS7_EENS_8equal_toIS7_EELb1EEENS_21__unordered_map_equalIS7_S8_SD_SB_Lb1EEENS5_IS8_EEE6key_eqB8ue170006Ev, symObjAddr: 0x14120, symBinAddr: 0x10001B4B4, symSize: 0x28 }
  - { offsetInCU: 0x2D9D7, offset: 0x4B541, size: 0x8, addend: 0x0, symName: __ZNKSt3__121__unordered_map_equalINS_12basic_stringIcNS_11char_traitsIcEENS_9allocatorIcEEEENS_17__hash_value_typeIS6_S6_EENS_8equal_toIS6_EENS_4hashIS6_EELb1EEclB8ue170006ERKS8_RKS6_, symObjAddr: 0x14148, symBinAddr: 0x10001B4DC, symSize: 0x48 }
  - { offsetInCU: 0x2DA1A, offset: 0x4B584, size: 0x8, addend: 0x0, symName: __ZNSt3__112__hash_tableINS_17__hash_value_typeINS_12basic_stringIcNS_11char_traitsIcEENS_9allocatorIcEEEES7_EENS_22__unordered_map_hasherIS7_S8_NS_4hashIS7_EENS_8equal_toIS7_EELb1EEENS_21__unordered_map_equalIS7_S8_SD_SB_Lb1EEENS5_IS8_EEE21__construct_node_hashIRKNS_21piecewise_construct_tEJNS_5tupleIJRKS7_EEENSN_IJEEEEEENS_10unique_ptrINS_11__hash_nodeIS8_PvEENS_22__hash_node_destructorINS5_ISV_EEEEEEmOT_DpOT0_, symObjAddr: 0x14190, symBinAddr: 0x10001B524, symSize: 0x150 }
  - { offsetInCU: 0x2DAB4, offset: 0x4B61E, size: 0x8, addend: 0x0, symName: __ZNSt3__112__hash_tableINS_17__hash_value_typeINS_12basic_stringIcNS_11char_traitsIcEENS_9allocatorIcEEEES7_EENS_22__unordered_map_hasherIS7_S8_NS_4hashIS7_EENS_8equal_toIS7_EELb1EEENS_21__unordered_map_equalIS7_S8_SD_SB_Lb1EEENS5_IS8_EEE4sizeB8ue170006Ev, symObjAddr: 0x142E0, symBinAddr: 0x10001B674, symSize: 0x28 }
  - { offsetInCU: 0x2DAD9, offset: 0x4B643, size: 0x8, addend: 0x0, symName: __ZNSt3__112__hash_tableINS_17__hash_value_typeINS_12basic_stringIcNS_11char_traitsIcEENS_9allocatorIcEEEES7_EENS_22__unordered_map_hasherIS7_S8_NS_4hashIS7_EENS_8equal_toIS7_EELb1EEENS_21__unordered_map_equalIS7_S8_SD_SB_Lb1EEENS5_IS8_EEE15max_load_factorB8ue170006Ev, symObjAddr: 0x14308, symBinAddr: 0x10001B69C, symSize: 0x28 }
  - { offsetInCU: 0x2DAFE, offset: 0x4B668, size: 0x8, addend: 0x0, symName: __ZNSt3__112__hash_tableINS_17__hash_value_typeINS_12basic_stringIcNS_11char_traitsIcEENS_9allocatorIcEEEES7_EENS_22__unordered_map_hasherIS7_S8_NS_4hashIS7_EENS_8equal_toIS7_EELb1EEENS_21__unordered_map_equalIS7_S8_SD_SB_Lb1EEENS5_IS8_EEE15__rehash_uniqueB8ue170006Em, symObjAddr: 0x14330, symBinAddr: 0x10001B6C4, symSize: 0x2C }
  - { offsetInCU: 0x2DB32, offset: 0x4B69C, size: 0x8, addend: 0x0, symName: __ZNSt3__116__hash_node_baseIPNS_11__hash_nodeINS_17__hash_value_typeINS_12basic_stringIcNS_11char_traitsIcEENS_9allocatorIcEEEES8_EEPvEEE5__ptrB8ue170006Ev, symObjAddr: 0x1435C, symBinAddr: 0x10001B6F0, symSize: 0x24 }
  - { offsetInCU: 0x2DB57, offset: 0x4B6C1, size: 0x8, addend: 0x0, symName: __ZNKSt3__110unique_ptrINS_11__hash_nodeINS_17__hash_value_typeINS_12basic_stringIcNS_11char_traitsIcEENS_9allocatorIcEEEES8_EEPvEENS_22__hash_node_destructorINS6_ISB_EEEEEptB8ue170006Ev, symObjAddr: 0x14380, symBinAddr: 0x10001B714, symSize: 0x28 }
  - { offsetInCU: 0x2DB7C, offset: 0x4B6E6, size: 0x8, addend: 0x0, symName: __ZNKSt3__110unique_ptrINS_11__hash_nodeINS_17__hash_value_typeINS_12basic_stringIcNS_11char_traitsIcEENS_9allocatorIcEEEES8_EEPvEENS_22__hash_node_destructorINS6_ISB_EEEEE3getB8ue170006Ev, symObjAddr: 0x143A8, symBinAddr: 0x10001B73C, symSize: 0x28 }
  - { offsetInCU: 0x2DBA1, offset: 0x4B70B, size: 0x8, addend: 0x0, symName: __ZNSt3__110unique_ptrINS_11__hash_nodeINS_17__hash_value_typeINS_12basic_stringIcNS_11char_traitsIcEENS_9allocatorIcEEEES8_EEPvEENS_22__hash_node_destructorINS6_ISB_EEEEE7releaseB8ue170006Ev, symObjAddr: 0x143D0, symBinAddr: 0x10001B764, symSize: 0x44 }
  - { offsetInCU: 0x2DBD5, offset: 0x4B73F, size: 0x8, addend: 0x0, symName: __ZNSt3__110unique_ptrINS_11__hash_nodeINS_17__hash_value_typeINS_12basic_stringIcNS_11char_traitsIcEENS_9allocatorIcEEEES8_EEPvEENS_22__hash_node_destructorINS6_ISB_EEEEED1B8ue170006Ev, symObjAddr: 0x14414, symBinAddr: 0x10001B7A8, symSize: 0x2C }
  - { offsetInCU: 0x2DBFE, offset: 0x4B768, size: 0x8, addend: 0x0, symName: __ZNSt3__115__hash_iteratorIPNS_11__hash_nodeINS_17__hash_value_typeINS_12basic_stringIcNS_11char_traitsIcEENS_9allocatorIcEEEES8_EEPvEEEC1B8ue170006EPNS_16__hash_node_baseISC_EE, symObjAddr: 0x14440, symBinAddr: 0x10001B7D4, symSize: 0x34 }
  - { offsetInCU: 0x2DC3B, offset: 0x4B7A5, size: 0x8, addend: 0x0, symName: __ZNSt3__14pairINS_15__hash_iteratorIPNS_11__hash_nodeINS_17__hash_value_typeINS_12basic_stringIcNS_11char_traitsIcEENS_9allocatorIcEEEES9_EEPvEEEEbEC1B8ue170006ISE_RbLSB_0EEEOT_OT0_, symObjAddr: 0x14474, symBinAddr: 0x10001B808, symSize: 0x3C }
  - { offsetInCU: 0x2DC98, offset: 0x4B802, size: 0x8, addend: 0x0, symName: __ZNSt3__117__compressed_pairImNS_22__unordered_map_hasherINS_12basic_stringIcNS_11char_traitsIcEENS_9allocatorIcEEEENS_17__hash_value_typeIS7_S7_EENS_4hashIS7_EENS_8equal_toIS7_EELb1EEEE6secondB8ue170006Ev, symObjAddr: 0x144B0, symBinAddr: 0x10001B844, symSize: 0x24 }
  - { offsetInCU: 0x2DCBD, offset: 0x4B827, size: 0x8, addend: 0x0, symName: __ZNSt3__122__compressed_pair_elemINS_22__unordered_map_hasherINS_12basic_stringIcNS_11char_traitsIcEENS_9allocatorIcEEEENS_17__hash_value_typeIS7_S7_EENS_4hashIS7_EENS_8equal_toIS7_EELb1EEELi1ELb1EE5__getB8ue170006Ev, symObjAddr: 0x144D4, symBinAddr: 0x10001B868, symSize: 0x14 }
  - { offsetInCU: 0x2DCE2, offset: 0x4B84C, size: 0x8, addend: 0x0, symName: __ZNKSt3__110unique_ptrIA_PNS_16__hash_node_baseIPNS_11__hash_nodeINS_17__hash_value_typeINS_12basic_stringIcNS_11char_traitsIcEENS_9allocatorIcEEEES9_EEPvEEEENS_25__bucket_list_deallocatorINS7_ISF_EEEEE11get_deleterB8ue170006Ev, symObjAddr: 0x144E8, symBinAddr: 0x10001B87C, symSize: 0x24 }
  - { offsetInCU: 0x2DD07, offset: 0x4B871, size: 0x8, addend: 0x0, symName: __ZNKSt3__125__bucket_list_deallocatorINS_9allocatorIPNS_16__hash_node_baseIPNS_11__hash_nodeINS_17__hash_value_typeINS_12basic_stringIcNS_11char_traitsIcEENS1_IcEEEES9_EEPvEEEEEEE4sizeB8ue170006Ev, symObjAddr: 0x1450C, symBinAddr: 0x10001B8A0, symSize: 0x28 }
  - { offsetInCU: 0x2DD2C, offset: 0x4B896, size: 0x8, addend: 0x0, symName: __ZNKSt3__117__compressed_pairIPPNS_16__hash_node_baseIPNS_11__hash_nodeINS_17__hash_value_typeINS_12basic_stringIcNS_11char_traitsIcEENS_9allocatorIcEEEES9_EEPvEEEENS_25__bucket_list_deallocatorINS7_ISF_EEEEE6secondB8ue170006Ev, symObjAddr: 0x14534, symBinAddr: 0x10001B8C8, symSize: 0x28 }
  - { offsetInCU: 0x2DD51, offset: 0x4B8BB, size: 0x8, addend: 0x0, symName: __ZNKSt3__122__compressed_pair_elemINS_25__bucket_list_deallocatorINS_9allocatorIPNS_16__hash_node_baseIPNS_11__hash_nodeINS_17__hash_value_typeINS_12basic_stringIcNS_11char_traitsIcEENS2_IcEEEESA_EEPvEEEEEEEELi1ELb0EE5__getB8ue170006Ev, symObjAddr: 0x1455C, symBinAddr: 0x10001B8F0, symSize: 0x14 }
  - { offsetInCU: 0x2DD76, offset: 0x4B8E0, size: 0x8, addend: 0x0, symName: __ZNKSt3__117__compressed_pairImNS_9allocatorIPNS_16__hash_node_baseIPNS_11__hash_nodeINS_17__hash_value_typeINS_12basic_stringIcNS_11char_traitsIcEENS1_IcEEEES9_EEPvEEEEEEE5firstB8ue170006Ev, symObjAddr: 0x14570, symBinAddr: 0x10001B904, symSize: 0x24 }
  - { offsetInCU: 0x2DD9B, offset: 0x4B905, size: 0x8, addend: 0x0, symName: __ZNKSt3__117__compressed_pairIPPNS_16__hash_node_baseIPNS_11__hash_nodeINS_17__hash_value_typeINS_12basic_stringIcNS_11char_traitsIcEENS_9allocatorIcEEEES9_EEPvEEEENS_25__bucket_list_deallocatorINS7_ISF_EEEEE5firstB8ue170006Ev, symObjAddr: 0x14594, symBinAddr: 0x10001B928, symSize: 0x24 }
  - { offsetInCU: 0x2DDC0, offset: 0x4B92A, size: 0x8, addend: 0x0, symName: __ZNKSt3__122__compressed_pair_elemIPPNS_16__hash_node_baseIPNS_11__hash_nodeINS_17__hash_value_typeINS_12basic_stringIcNS_11char_traitsIcEENS_9allocatorIcEEEES9_EEPvEEEELi0ELb0EE5__getB8ue170006Ev, symObjAddr: 0x145B8, symBinAddr: 0x10001B94C, symSize: 0x14 }
  - { offsetInCU: 0x2DDE5, offset: 0x4B94F, size: 0x8, addend: 0x0, symName: __ZNSt3__117__compressed_pairIfNS_21__unordered_map_equalINS_12basic_stringIcNS_11char_traitsIcEENS_9allocatorIcEEEENS_17__hash_value_typeIS7_S7_EENS_8equal_toIS7_EENS_4hashIS7_EELb1EEEE6secondB8ue170006Ev, symObjAddr: 0x145CC, symBinAddr: 0x10001B960, symSize: 0x24 }
  - { offsetInCU: 0x2DE0A, offset: 0x4B974, size: 0x8, addend: 0x0, symName: __ZNSt3__122__compressed_pair_elemINS_21__unordered_map_equalINS_12basic_stringIcNS_11char_traitsIcEENS_9allocatorIcEEEENS_17__hash_value_typeIS7_S7_EENS_8equal_toIS7_EENS_4hashIS7_EELb1EEELi1ELb1EE5__getB8ue170006Ev, symObjAddr: 0x145F0, symBinAddr: 0x10001B984, symSize: 0x14 }
  - { offsetInCU: 0x2DE2F, offset: 0x4B999, size: 0x8, addend: 0x0, symName: __ZNKSt3__117__hash_value_typeINS_12basic_stringIcNS_11char_traitsIcEENS_9allocatorIcEEEES6_E11__get_valueB8ue170006Ev, symObjAddr: 0x14604, symBinAddr: 0x10001B998, symSize: 0x14 }
  - { offsetInCU: 0x2DE54, offset: 0x4B9BE, size: 0x8, addend: 0x0, symName: __ZNSt3__116allocator_traitsINS_9allocatorINS_11__hash_nodeINS_17__hash_value_typeINS_12basic_stringIcNS_11char_traitsIcEENS1_IcEEEES8_EEPvEEEEE8allocateB8ue170006ERSC_m, symObjAddr: 0x14618, symBinAddr: 0x10001B9AC, symSize: 0x2C }
  - { offsetInCU: 0x2DE87, offset: 0x4B9F1, size: 0x8, addend: 0x0, symName: __ZNSt3__122__hash_node_destructorINS_9allocatorINS_11__hash_nodeINS_17__hash_value_typeINS_12basic_stringIcNS_11char_traitsIcEENS1_IcEEEES8_EEPvEEEEEC1B8ue170006ERSC_b, symObjAddr: 0x14644, symBinAddr: 0x10001B9D8, symSize: 0x48 }
  - { offsetInCU: 0x2DED3, offset: 0x4BA3D, size: 0x8, addend: 0x0, symName: __ZNSt3__110unique_ptrINS_11__hash_nodeINS_17__hash_value_typeINS_12basic_stringIcNS_11char_traitsIcEENS_9allocatorIcEEEES8_EEPvEENS_22__hash_node_destructorINS6_ISB_EEEEEC1B8ue170006ILb1EvEEPSB_NS_16__dependent_typeINS_27__unique_ptr_deleter_sfinaeISE_EEXT_EE20__good_rval_ref_typeE, symObjAddr: 0x1468C, symBinAddr: 0x10001BA20, symSize: 0x3C }
  - { offsetInCU: 0x2DF23, offset: 0x4BA8D, size: 0x8, addend: 0x0, symName: __ZNSt3__116allocator_traitsINS_9allocatorINS_11__hash_nodeINS_17__hash_value_typeINS_12basic_stringIcNS_11char_traitsIcEENS1_IcEEEES8_EEPvEEEEE9constructB8ue170006INS_4pairIKS8_S8_EEJRKNS_21piecewise_construct_tENS_5tupleIJRSG_EEENSL_IJEEEEvEEvRSC_PT_DpOT0_, symObjAddr: 0x146C8, symBinAddr: 0x10001BA5C, symSize: 0x44 }
  - { offsetInCU: 0x2DFA2, offset: 0x4BB0C, size: 0x8, addend: 0x0, symName: __ZNSt3__110unique_ptrINS_11__hash_nodeINS_17__hash_value_typeINS_12basic_stringIcNS_11char_traitsIcEENS_9allocatorIcEEEES8_EEPvEENS_22__hash_node_destructorINS6_ISB_EEEEE11get_deleterB8ue170006Ev, symObjAddr: 0x1470C, symBinAddr: 0x10001BAA0, symSize: 0x24 }
  - { offsetInCU: 0x2DFC7, offset: 0x4BB31, size: 0x8, addend: 0x0, symName: __ZNSt3__19allocatorINS_11__hash_nodeINS_17__hash_value_typeINS_12basic_stringIcNS_11char_traitsIcEENS0_IcEEEES7_EEPvEEE8allocateB8ue170006Em, symObjAddr: 0x14730, symBinAddr: 0x10001BAC4, symSize: 0x58 }
  - { offsetInCU: 0x2E004, offset: 0x4BB6E, size: 0x8, addend: 0x0, symName: __ZNSt3__116allocator_traitsINS_9allocatorINS_11__hash_nodeINS_17__hash_value_typeINS_12basic_stringIcNS_11char_traitsIcEENS1_IcEEEES8_EEPvEEEEE8max_sizeB8ue170006ISC_vEEmRKSC_, symObjAddr: 0x14788, symBinAddr: 0x10001BB1C, symSize: 0x24 }
  - { offsetInCU: 0x2E032, offset: 0x4BB9C, size: 0x8, addend: 0x0, symName: __ZNKSt3__19allocatorINS_11__hash_nodeINS_17__hash_value_typeINS_12basic_stringIcNS_11char_traitsIcEENS0_IcEEEES7_EEPvEEE8max_sizeB8ue170006Ev, symObjAddr: 0x147AC, symBinAddr: 0x10001BB40, symSize: 0x14 }
  - { offsetInCU: 0x2E057, offset: 0x4BBC1, size: 0x8, addend: 0x0, symName: __ZNSt3__122__hash_node_destructorINS_9allocatorINS_11__hash_nodeINS_17__hash_value_typeINS_12basic_stringIcNS_11char_traitsIcEENS1_IcEEEES8_EEPvEEEEEC2B8ue170006ERSC_b, symObjAddr: 0x147C0, symBinAddr: 0x10001BB54, symSize: 0x38 }
  - { offsetInCU: 0x2E09E, offset: 0x4BC08, size: 0x8, addend: 0x0, symName: __ZNSt3__110unique_ptrINS_11__hash_nodeINS_17__hash_value_typeINS_12basic_stringIcNS_11char_traitsIcEENS_9allocatorIcEEEES8_EEPvEENS_22__hash_node_destructorINS6_ISB_EEEEEC2B8ue170006ILb1EvEEPSB_NS_16__dependent_typeINS_27__unique_ptr_deleter_sfinaeISE_EEXT_EE20__good_rval_ref_typeE, symObjAddr: 0x147F8, symBinAddr: 0x10001BB8C, symSize: 0x48 }
  - { offsetInCU: 0x2E0EE, offset: 0x4BC58, size: 0x8, addend: 0x0, symName: __ZNSt3__117__compressed_pairIPNS_11__hash_nodeINS_17__hash_value_typeINS_12basic_stringIcNS_11char_traitsIcEENS_9allocatorIcEEEES8_EEPvEENS_22__hash_node_destructorINS6_ISB_EEEEEC1B8ue170006IRSC_SF_EEOT_OT0_, symObjAddr: 0x14840, symBinAddr: 0x10001BBD4, symSize: 0x3C }
  - { offsetInCU: 0x2E145, offset: 0x4BCAF, size: 0x8, addend: 0x0, symName: __ZNSt3__117__compressed_pairIPNS_11__hash_nodeINS_17__hash_value_typeINS_12basic_stringIcNS_11char_traitsIcEENS_9allocatorIcEEEES8_EEPvEENS_22__hash_node_destructorINS6_ISB_EEEEEC2B8ue170006IRSC_SF_EEOT_OT0_, symObjAddr: 0x1487C, symBinAddr: 0x10001BC10, symSize: 0x48 }
  - { offsetInCU: 0x2E19C, offset: 0x4BD06, size: 0x8, addend: 0x0, symName: __ZNSt3__122__compressed_pair_elemIPNS_11__hash_nodeINS_17__hash_value_typeINS_12basic_stringIcNS_11char_traitsIcEENS_9allocatorIcEEEES8_EEPvEELi0ELb0EEC2B8ue170006IRSC_vEEOT_, symObjAddr: 0x148C4, symBinAddr: 0x10001BC58, symSize: 0x24 }
  - { offsetInCU: 0x2E1DD, offset: 0x4BD47, size: 0x8, addend: 0x0, symName: __ZNSt3__122__compressed_pair_elemINS_22__hash_node_destructorINS_9allocatorINS_11__hash_nodeINS_17__hash_value_typeINS_12basic_stringIcNS_11char_traitsIcEENS2_IcEEEES9_EEPvEEEEEELi1ELb0EEC2B8ue170006ISE_vEEOT_, symObjAddr: 0x148E8, symBinAddr: 0x10001BC7C, symSize: 0x24 }
  - { offsetInCU: 0x2E21E, offset: 0x4BD88, size: 0x8, addend: 0x0, symName: __ZNSt3__19allocatorINS_11__hash_nodeINS_17__hash_value_typeINS_12basic_stringIcNS_11char_traitsIcEENS0_IcEEEES7_EEPvEEE9constructB8ue170006INS_4pairIKS7_S7_EEJRKNS_21piecewise_construct_tENS_5tupleIJRSE_EEENSJ_IJEEEEEEvPT_DpOT0_, symObjAddr: 0x1490C, symBinAddr: 0x10001BCA0, symSize: 0x44 }
  - { offsetInCU: 0x2E299, offset: 0x4BE03, size: 0x8, addend: 0x0, symName: __ZNSt3__14pairIKNS_12basic_stringIcNS_11char_traitsIcEENS_9allocatorIcEEEES6_EC1B8ue170006IJRS7_EJEEENS_21piecewise_construct_tENS_5tupleIJDpT_EEENSC_IJDpT0_EEE, symObjAddr: 0x14950, symBinAddr: 0x10001BCE4, symSize: 0x3C }
  - { offsetInCU: 0x2E2FF, offset: 0x4BE69, size: 0x8, addend: 0x0, symName: __ZNSt3__14pairIKNS_12basic_stringIcNS_11char_traitsIcEENS_9allocatorIcEEEES6_EC1B8ue170006IJRS7_EJEJLm0EEJEEENS_21piecewise_construct_tERNS_5tupleIJDpT_EEERNSC_IJDpT0_EEENS_15__tuple_indicesIJXspT1_EEEENSL_IJXspT2_EEEE, symObjAddr: 0x1498C, symBinAddr: 0x10001BD20, symSize: 0x3C }
  - { offsetInCU: 0x2E38B, offset: 0x4BEF5, size: 0x8, addend: 0x0, symName: __ZNSt3__14pairIKNS_12basic_stringIcNS_11char_traitsIcEENS_9allocatorIcEEEES6_EC2B8ue170006IJRS7_EJEJLm0EEJEEENS_21piecewise_construct_tERNS_5tupleIJDpT_EEERNSC_IJDpT0_EEENS_15__tuple_indicesIJXspT1_EEEENSL_IJXspT2_EEEE, symObjAddr: 0x149C8, symBinAddr: 0x10001BD5C, symSize: 0x50 }
  - { offsetInCU: 0x2E417, offset: 0x4BF81, size: 0x8, addend: 0x0, symName: __ZNSt3__117__compressed_pairIPNS_11__hash_nodeINS_17__hash_value_typeINS_12basic_stringIcNS_11char_traitsIcEENS_9allocatorIcEEEES8_EEPvEENS_22__hash_node_destructorINS6_ISB_EEEEE6secondB8ue170006Ev, symObjAddr: 0x14A18, symBinAddr: 0x10001BDAC, symSize: 0x28 }
  - { offsetInCU: 0x2E43C, offset: 0x4BFA6, size: 0x8, addend: 0x0, symName: __ZNSt3__122__compressed_pair_elemINS_22__hash_node_destructorINS_9allocatorINS_11__hash_nodeINS_17__hash_value_typeINS_12basic_stringIcNS_11char_traitsIcEENS2_IcEEEES9_EEPvEEEEEELi1ELb0EE5__getB8ue170006Ev, symObjAddr: 0x14A40, symBinAddr: 0x10001BDD4, symSize: 0x14 }
  - { offsetInCU: 0x2E461, offset: 0x4BFCB, size: 0x8, addend: 0x0, symName: __ZNSt3__117__compressed_pairImNS_22__unordered_map_hasherINS_12basic_stringIcNS_11char_traitsIcEENS_9allocatorIcEEEENS_17__hash_value_typeIS7_S7_EENS_4hashIS7_EENS_8equal_toIS7_EELb1EEEE5firstB8ue170006Ev, symObjAddr: 0x14A54, symBinAddr: 0x10001BDE8, symSize: 0x24 }
  - { offsetInCU: 0x2E486, offset: 0x4BFF0, size: 0x8, addend: 0x0, symName: __ZNSt3__117__compressed_pairIfNS_21__unordered_map_equalINS_12basic_stringIcNS_11char_traitsIcEENS_9allocatorIcEEEENS_17__hash_value_typeIS7_S7_EENS_8equal_toIS7_EENS_4hashIS7_EELb1EEEE5firstB8ue170006Ev, symObjAddr: 0x14A78, symBinAddr: 0x10001BE0C, symSize: 0x24 }
  - { offsetInCU: 0x2E4AB, offset: 0x4C015, size: 0x8, addend: 0x0, symName: __ZNSt3__112__hash_tableINS_17__hash_value_typeINS_12basic_stringIcNS_11char_traitsIcEENS_9allocatorIcEEEES7_EENS_22__unordered_map_hasherIS7_S8_NS_4hashIS7_EENS_8equal_toIS7_EELb1EEENS_21__unordered_map_equalIS7_S8_SD_SB_Lb1EEENS5_IS8_EEE8__rehashILb1EEEvm, symObjAddr: 0x14A9C, symBinAddr: 0x10001BE30, symSize: 0x1A8 }
  - { offsetInCU: 0x2E4F9, offset: 0x4C063, size: 0x8, addend: 0x0, symName: __ZNSt3__112__hash_tableINS_17__hash_value_typeINS_12basic_stringIcNS_11char_traitsIcEENS_9allocatorIcEEEES7_EENS_22__unordered_map_hasherIS7_S8_NS_4hashIS7_EENS_8equal_toIS7_EELb1EEENS_21__unordered_map_equalIS7_S8_SD_SB_Lb1EEENS5_IS8_EEE11__do_rehashILb1EEEvm, symObjAddr: 0x14C44, symBinAddr: 0x10001BFD8, symSize: 0x288 }
  - { offsetInCU: 0x2E5DE, offset: 0x4C148, size: 0x8, addend: 0x0, symName: __ZNSt3__110unique_ptrIA_PNS_16__hash_node_baseIPNS_11__hash_nodeINS_17__hash_value_typeINS_12basic_stringIcNS_11char_traitsIcEENS_9allocatorIcEEEES9_EEPvEEEENS_25__bucket_list_deallocatorINS7_ISF_EEEEE11get_deleterB8ue170006Ev, symObjAddr: 0x14ECC, symBinAddr: 0x10001C260, symSize: 0x24 }
  - { offsetInCU: 0x2E603, offset: 0x4C16D, size: 0x8, addend: 0x0, symName: __ZNSt3__110unique_ptrIA_PNS_16__hash_node_baseIPNS_11__hash_nodeINS_17__hash_value_typeINS_12basic_stringIcNS_11char_traitsIcEENS_9allocatorIcEEEES9_EEPvEEEENS_25__bucket_list_deallocatorINS7_ISF_EEEEE5resetB8ue170006IPSF_EENS_9enable_ifIXsr28_CheckArrayPointerConversionIT_EE5valueEvE4typeESO_, symObjAddr: 0x14EF0, symBinAddr: 0x10001C284, symSize: 0x78 }
  - { offsetInCU: 0x2E64F, offset: 0x4C1B9, size: 0x8, addend: 0x0, symName: __ZNSt3__116allocator_traitsINS_9allocatorIPNS_16__hash_node_baseIPNS_11__hash_nodeINS_17__hash_value_typeINS_12basic_stringIcNS_11char_traitsIcEENS1_IcEEEES9_EEPvEEEEEEE8allocateB8ue170006ERSG_m, symObjAddr: 0x14F68, symBinAddr: 0x10001C2FC, symSize: 0x2C }
  - { offsetInCU: 0x2E682, offset: 0x4C1EC, size: 0x8, addend: 0x0, symName: __ZNSt3__19allocatorIPNS_16__hash_node_baseIPNS_11__hash_nodeINS_17__hash_value_typeINS_12basic_stringIcNS_11char_traitsIcEENS0_IcEEEES8_EEPvEEEEE8allocateB8ue170006Em, symObjAddr: 0x14F94, symBinAddr: 0x10001C328, symSize: 0x58 }
  - { offsetInCU: 0x2E6BF, offset: 0x4C229, size: 0x8, addend: 0x0, symName: __ZNSt3__116allocator_traitsINS_9allocatorIPNS_16__hash_node_baseIPNS_11__hash_nodeINS_17__hash_value_typeINS_12basic_stringIcNS_11char_traitsIcEENS1_IcEEEES9_EEPvEEEEEEE8max_sizeB8ue170006ISG_vEEmRKSG_, symObjAddr: 0x14FEC, symBinAddr: 0x10001C380, symSize: 0x24 }
  - { offsetInCU: 0x2E6ED, offset: 0x4C257, size: 0x8, addend: 0x0, symName: __ZNKSt3__19allocatorIPNS_16__hash_node_baseIPNS_11__hash_nodeINS_17__hash_value_typeINS_12basic_stringIcNS_11char_traitsIcEENS0_IcEEEES8_EEPvEEEEE8max_sizeB8ue170006Ev, symObjAddr: 0x15010, symBinAddr: 0x10001C3A4, symSize: 0x14 }
  - { offsetInCU: 0x2E712, offset: 0x4C27C, size: 0x8, addend: 0x0, symName: __ZNKSt3__117__compressed_pairIPNS_11__hash_nodeINS_17__hash_value_typeINS_12basic_stringIcNS_11char_traitsIcEENS_9allocatorIcEEEES8_EEPvEENS_22__hash_node_destructorINS6_ISB_EEEEE5firstB8ue170006Ev, symObjAddr: 0x15024, symBinAddr: 0x10001C3B8, symSize: 0x24 }
  - { offsetInCU: 0x2E737, offset: 0x4C2A1, size: 0x8, addend: 0x0, symName: __ZNKSt3__122__compressed_pair_elemIPNS_11__hash_nodeINS_17__hash_value_typeINS_12basic_stringIcNS_11char_traitsIcEENS_9allocatorIcEEEES8_EEPvEELi0ELb0EE5__getB8ue170006Ev, symObjAddr: 0x15048, symBinAddr: 0x10001C3DC, symSize: 0x14 }
  - { offsetInCU: 0x2E75C, offset: 0x4C2C6, size: 0x8, addend: 0x0, symName: __ZNSt3__117__compressed_pairIPNS_11__hash_nodeINS_17__hash_value_typeINS_12basic_stringIcNS_11char_traitsIcEENS_9allocatorIcEEEES8_EEPvEENS_22__hash_node_destructorINS6_ISB_EEEEE5firstB8ue170006Ev, symObjAddr: 0x1505C, symBinAddr: 0x10001C3F0, symSize: 0x24 }
  - { offsetInCU: 0x2E781, offset: 0x4C2EB, size: 0x8, addend: 0x0, symName: __ZNSt3__122__compressed_pair_elemIPNS_11__hash_nodeINS_17__hash_value_typeINS_12basic_stringIcNS_11char_traitsIcEENS_9allocatorIcEEEES8_EEPvEELi0ELb0EE5__getB8ue170006Ev, symObjAddr: 0x15080, symBinAddr: 0x10001C414, symSize: 0x14 }
  - { offsetInCU: 0x2E7A6, offset: 0x4C310, size: 0x8, addend: 0x0, symName: __ZNSt3__110unique_ptrINS_11__hash_nodeINS_17__hash_value_typeINS_12basic_stringIcNS_11char_traitsIcEENS_9allocatorIcEEEES8_EEPvEENS_22__hash_node_destructorINS6_ISB_EEEEED2B8ue170006Ev, symObjAddr: 0x15094, symBinAddr: 0x10001C428, symSize: 0x30 }
  - { offsetInCU: 0x2E7CF, offset: 0x4C339, size: 0x8, addend: 0x0, symName: __ZNSt3__110unique_ptrINS_11__hash_nodeINS_17__hash_value_typeINS_12basic_stringIcNS_11char_traitsIcEENS_9allocatorIcEEEES8_EEPvEENS_22__hash_node_destructorINS6_ISB_EEEEE5resetB8ue170006EPSB_, symObjAddr: 0x150C4, symBinAddr: 0x10001C458, symSize: 0x78 }
  - { offsetInCU: 0x2E812, offset: 0x4C37C, size: 0x8, addend: 0x0, symName: __ZNSt3__122__hash_node_destructorINS_9allocatorINS_11__hash_nodeINS_17__hash_value_typeINS_12basic_stringIcNS_11char_traitsIcEENS1_IcEEEES8_EEPvEEEEEclB8ue170006EPSB_, symObjAddr: 0x1513C, symBinAddr: 0x10001C4D0, symSize: 0x94 }
  - { offsetInCU: 0x2E846, offset: 0x4C3B0, size: 0x8, addend: 0x0, symName: __ZNSt3__115__hash_iteratorIPNS_11__hash_nodeINS_17__hash_value_typeINS_12basic_stringIcNS_11char_traitsIcEENS_9allocatorIcEEEES8_EEPvEEEC2B8ue170006EPNS_16__hash_node_baseISC_EE, symObjAddr: 0x151D0, symBinAddr: 0x10001C564, symSize: 0x20 }
  - { offsetInCU: 0x2E87E, offset: 0x4C3E8, size: 0x8, addend: 0x0, symName: __ZNSt3__14pairINS_15__hash_iteratorIPNS_11__hash_nodeINS_17__hash_value_typeINS_12basic_stringIcNS_11char_traitsIcEENS_9allocatorIcEEEES9_EEPvEEEEbEC2B8ue170006ISE_RbLSB_0EEEOT_OT0_, symObjAddr: 0x151F0, symBinAddr: 0x10001C584, symSize: 0x38 }
  - { offsetInCU: 0x2E8DB, offset: 0x4C445, size: 0x8, addend: 0x0, symName: __ZNSt3__114pointer_traitsIPNS_17__hash_value_typeINS_12basic_stringIcNS_11char_traitsIcEENS_9allocatorIcEEEES7_EEE10pointer_toB8ue170006ERS8_, symObjAddr: 0x15228, symBinAddr: 0x10001C5BC, symSize: 0x14 }
  - { offsetInCU: 0x2E8FE, offset: 0x4C468, size: 0x8, addend: 0x0, symName: __ZNSt3__111__wrap_iterIPNS_12basic_stringIcNS_11char_traitsIcEENS_9allocatorIcEEEEEmmB8ue170006Ev, symObjAddr: 0x1533C, symBinAddr: 0x10001C6D0, symSize: 0x20 }
  - { offsetInCU: 0x2E923, offset: 0x4C48D, size: 0x8, addend: 0x0, symName: __ZNSt3__18_IterOpsINS_17_ClassicAlgPolicyEE9iter_swapB8ue170006IRNS_11__wrap_iterIPNS_12basic_stringIcNS_11char_traitsIcEENS_9allocatorIcEEEEEESD_EEvOT_OT0_, symObjAddr: 0x1535C, symBinAddr: 0x10001C6F0, symSize: 0x44 }
  - { offsetInCU: 0x2E966, offset: 0x4C4D0, size: 0x8, addend: 0x0, symName: __ZNSt3__112basic_stringIcNS_11char_traitsIcEENS_9allocatorIcEEE4swapB8ue170006ERS5_, symObjAddr: 0x1541C, symBinAddr: 0x10001C7B0, symSize: 0x64 }
  - { offsetInCU: 0x2E99B, offset: 0x4C505, size: 0x8, addend: 0x0, symName: __ZNSt3__112basic_stringIcNS_11char_traitsIcEENS_9allocatorIcEEE7__allocB8ue170006Ev, symObjAddr: 0x15500, symBinAddr: 0x10001C894, symSize: 0x24 }
  - { offsetInCU: 0x2E9C0, offset: 0x4C52A, size: 0x8, addend: 0x0, symName: __ZNSt3__117__compressed_pairINS_12basic_stringIcNS_11char_traitsIcEENS_9allocatorIcEEE5__repES5_E6secondB8ue170006Ev, symObjAddr: 0x15538, symBinAddr: 0x10001C8CC, symSize: 0x24 }
  - { offsetInCU: 0x2E9E5, offset: 0x4C54F, size: 0x8, addend: 0x0, symName: __ZNSt3__122__compressed_pair_elemINS_9allocatorIcEELi1ELb1EE5__getB8ue170006Ev, symObjAddr: 0x1555C, symBinAddr: 0x10001C8F0, symSize: 0x14 }
  - { offsetInCU: 0x2EA0A, offset: 0x4C574, size: 0x8, addend: 0x0, symName: __ZNSt3__112__hash_tableINS_12basic_stringIcNS_11char_traitsIcEENS_9allocatorIcEEEENS_4hashIS6_EENS_8equal_toIS6_EENS4_IS6_EEE4findIS6_EENS_15__hash_iteratorIPNS_11__hash_nodeIS6_PvEEEERKT_, symObjAddr: 0x15570, symBinAddr: 0x10001C904, symSize: 0x1B0 }
  - { offsetInCU: 0x2EA93, offset: 0x4C5FD, size: 0x8, addend: 0x0, symName: __ZNSt3__112__hash_tableINS_12basic_stringIcNS_11char_traitsIcEENS_9allocatorIcEEEENS_4hashIS6_EENS_8equal_toIS6_EENS4_IS6_EEE3endEv, symObjAddr: 0x15720, symBinAddr: 0x10001CAB4, symSize: 0x2C }
  - { offsetInCU: 0x2EAB9, offset: 0x4C623, size: 0x8, addend: 0x0, symName: __ZNSt3__16vectorINS_5tupleIJNS_12basic_stringIcNS_11char_traitsIcEENS_9allocatorIcEEEES7_dEEENS5_IS8_EEEC2B8ue170006Ev, symObjAddr: 0x1574C, symBinAddr: 0x10001CAE0, symSize: 0x4C }
  - { offsetInCU: 0x2EAE2, offset: 0x4C64C, size: 0x8, addend: 0x0, symName: __ZNSt3__117__compressed_pairIPNS_5tupleIJNS_12basic_stringIcNS_11char_traitsIcEENS_9allocatorIcEEEES7_dEEENS5_IS8_EEEC1B8ue170006IDnNS_18__default_init_tagEEEOT_OT0_, symObjAddr: 0x15798, symBinAddr: 0x10001CB2C, symSize: 0x3C }
  - { offsetInCU: 0x2EB39, offset: 0x4C6A3, size: 0x8, addend: 0x0, symName: __ZNSt3__117__compressed_pairIPNS_5tupleIJNS_12basic_stringIcNS_11char_traitsIcEENS_9allocatorIcEEEES7_dEEENS5_IS8_EEEC2B8ue170006IDnNS_18__default_init_tagEEEOT_OT0_, symObjAddr: 0x157D4, symBinAddr: 0x10001CB68, symSize: 0x40 }
  - { offsetInCU: 0x2EB90, offset: 0x4C6FA, size: 0x8, addend: 0x0, symName: __ZNSt3__122__compressed_pair_elemIPNS_5tupleIJNS_12basic_stringIcNS_11char_traitsIcEENS_9allocatorIcEEEES7_dEEELi0ELb0EEC2B8ue170006IDnvEEOT_, symObjAddr: 0x15814, symBinAddr: 0x10001CBA8, symSize: 0x1C }
  - { offsetInCU: 0x2EBD1, offset: 0x4C73B, size: 0x8, addend: 0x0, symName: __ZNSt3__122__compressed_pair_elemINS_9allocatorINS_5tupleIJNS_12basic_stringIcNS_11char_traitsIcEENS1_IcEEEES7_dEEEEELi1ELb1EEC2B8ue170006ENS_18__default_init_tagE, symObjAddr: 0x15830, symBinAddr: 0x10001CBC4, symSize: 0x2C }
  - { offsetInCU: 0x2EC05, offset: 0x4C76F, size: 0x8, addend: 0x0, symName: __ZNSt3__19allocatorINS_5tupleIJNS_12basic_stringIcNS_11char_traitsIcEENS0_IcEEEES6_dEEEEC2B8ue170006Ev, symObjAddr: 0x1585C, symBinAddr: 0x10001CBF0, symSize: 0x2C }
  - { offsetInCU: 0x2EC2E, offset: 0x4C798, size: 0x8, addend: 0x0, symName: __ZNSt3__116__non_trivial_ifILb1ENS_9allocatorINS_5tupleIJNS_12basic_stringIcNS_11char_traitsIcEENS1_IcEEEES7_dEEEEEEC2B8ue170006Ev, symObjAddr: 0x15888, symBinAddr: 0x10001CC1C, symSize: 0x14 }
  - { offsetInCU: 0x2EC57, offset: 0x4C7C1, size: 0x8, addend: 0x0, symName: __ZNSt3__114priority_queueINS_4pairIdNS_12basic_stringIcNS_11char_traitsIcEENS_9allocatorIcEEEEEENS_6vectorIS8_NS5_IS8_EEEENS_7greaterIS8_EEEC2B8ue170006Ev, symObjAddr: 0x15D9C, symBinAddr: 0x10001CC30, symSize: 0x2C }
  - { offsetInCU: 0x2EC80, offset: 0x4C7EA, size: 0x8, addend: 0x0, symName: __ZNSt3__16vectorINS_4pairIdNS_12basic_stringIcNS_11char_traitsIcEENS_9allocatorIcEEEEEENS5_IS8_EEEC1B8ue170006Ev, symObjAddr: 0x15DC8, symBinAddr: 0x10001CC5C, symSize: 0x2C }
  - { offsetInCU: 0x2ECA9, offset: 0x4C813, size: 0x8, addend: 0x0, symName: __ZNSt3__16vectorINS_4pairIdNS_12basic_stringIcNS_11char_traitsIcEENS_9allocatorIcEEEEEENS5_IS8_EEEC2B8ue170006Ev, symObjAddr: 0x15DF4, symBinAddr: 0x10001CC88, symSize: 0x4C }
  - { offsetInCU: 0x2ECD2, offset: 0x4C83C, size: 0x8, addend: 0x0, symName: __ZNSt3__117__compressed_pairIPNS_4pairIdNS_12basic_stringIcNS_11char_traitsIcEENS_9allocatorIcEEEEEENS5_IS8_EEEC1B8ue170006IDnNS_18__default_init_tagEEEOT_OT0_, symObjAddr: 0x15E40, symBinAddr: 0x10001CCD4, symSize: 0x3C }
  - { offsetInCU: 0x2ED29, offset: 0x4C893, size: 0x8, addend: 0x0, symName: __ZNSt3__117__compressed_pairIPNS_4pairIdNS_12basic_stringIcNS_11char_traitsIcEENS_9allocatorIcEEEEEENS5_IS8_EEEC2B8ue170006IDnNS_18__default_init_tagEEEOT_OT0_, symObjAddr: 0x15E7C, symBinAddr: 0x10001CD10, symSize: 0x40 }
  - { offsetInCU: 0x2ED80, offset: 0x4C8EA, size: 0x8, addend: 0x0, symName: __ZNSt3__122__compressed_pair_elemIPNS_4pairIdNS_12basic_stringIcNS_11char_traitsIcEENS_9allocatorIcEEEEEELi0ELb0EEC2B8ue170006IDnvEEOT_, symObjAddr: 0x15EBC, symBinAddr: 0x10001CD50, symSize: 0x1C }
  - { offsetInCU: 0x2EDC1, offset: 0x4C92B, size: 0x8, addend: 0x0, symName: __ZNSt3__122__compressed_pair_elemINS_9allocatorINS_4pairIdNS_12basic_stringIcNS_11char_traitsIcEENS1_IcEEEEEEEELi1ELb1EEC2B8ue170006ENS_18__default_init_tagE, symObjAddr: 0x15ED8, symBinAddr: 0x10001CD6C, symSize: 0x2C }
  - { offsetInCU: 0x2EDF5, offset: 0x4C95F, size: 0x8, addend: 0x0, symName: __ZNSt3__19allocatorINS_4pairIdNS_12basic_stringIcNS_11char_traitsIcEENS0_IcEEEEEEEC2B8ue170006Ev, symObjAddr: 0x15F04, symBinAddr: 0x10001CD98, symSize: 0x2C }
  - { offsetInCU: 0x2EE1E, offset: 0x4C988, size: 0x8, addend: 0x0, symName: __ZNSt3__116__non_trivial_ifILb1ENS_9allocatorINS_4pairIdNS_12basic_stringIcNS_11char_traitsIcEENS1_IcEEEEEEEEEC2B8ue170006Ev, symObjAddr: 0x15F30, symBinAddr: 0x10001CDC4, symSize: 0x14 }
  - { offsetInCU: 0x2EE47, offset: 0x4C9B1, size: 0x8, addend: 0x0, symName: __ZNSt3__113unordered_mapINS_12basic_stringIcNS_11char_traitsIcEENS_9allocatorIcEEEEdNS_4hashIS6_EENS_8equal_toIS6_EENS4_INS_4pairIKS6_dEEEEEC2B8ue170006Ev, symObjAddr: 0x15F44, symBinAddr: 0x10001CDD8, symSize: 0x2C }
  - { offsetInCU: 0x2EE70, offset: 0x4C9DA, size: 0x8, addend: 0x0, symName: __ZNSt3__112__hash_tableINS_17__hash_value_typeINS_12basic_stringIcNS_11char_traitsIcEENS_9allocatorIcEEEEdEENS_22__unordered_map_hasherIS7_S8_NS_4hashIS7_EENS_8equal_toIS7_EELb1EEENS_21__unordered_map_equalIS7_S8_SD_SB_Lb1EEENS5_IS8_EEEC1Ev, symObjAddr: 0x15F70, symBinAddr: 0x10001CE04, symSize: 0x2C }
  - { offsetInCU: 0x2EE9B, offset: 0x4CA05, size: 0x8, addend: 0x0, symName: __ZNSt3__112__hash_tableINS_17__hash_value_typeINS_12basic_stringIcNS_11char_traitsIcEENS_9allocatorIcEEEEdEENS_22__unordered_map_hasherIS7_S8_NS_4hashIS7_EENS_8equal_toIS7_EELb1EEENS_21__unordered_map_equalIS7_S8_SD_SB_Lb1EEENS5_IS8_EEEC2Ev, symObjAddr: 0x15F9C, symBinAddr: 0x10001CE30, symSize: 0x7C }
  - { offsetInCU: 0x2EEC6, offset: 0x4CA30, size: 0x8, addend: 0x0, symName: __ZNSt3__110unique_ptrIA_PNS_16__hash_node_baseIPNS_11__hash_nodeINS_17__hash_value_typeINS_12basic_stringIcNS_11char_traitsIcEENS_9allocatorIcEEEEdEEPvEEEENS_25__bucket_list_deallocatorINS7_ISF_EEEEEC1B8ue170006ILb1EvEEv, symObjAddr: 0x16018, symBinAddr: 0x10001CEAC, symSize: 0x2C }
  - { offsetInCU: 0x2EEFA, offset: 0x4CA64, size: 0x8, addend: 0x0, symName: __ZNSt3__117__compressed_pairINS_16__hash_node_baseIPNS_11__hash_nodeINS_17__hash_value_typeINS_12basic_stringIcNS_11char_traitsIcEENS_9allocatorIcEEEEdEEPvEEEENS7_ISC_EEEC1B8ue170006ILb1EvEEv, symObjAddr: 0x16044, symBinAddr: 0x10001CED8, symSize: 0x2C }
  - { offsetInCU: 0x2EF2E, offset: 0x4CA98, size: 0x8, addend: 0x0, symName: __ZNSt3__117__compressed_pairImNS_22__unordered_map_hasherINS_12basic_stringIcNS_11char_traitsIcEENS_9allocatorIcEEEENS_17__hash_value_typeIS7_dEENS_4hashIS7_EENS_8equal_toIS7_EELb1EEEEC1B8ue170006IiNS_18__default_init_tagEEEOT_OT0_, symObjAddr: 0x16070, symBinAddr: 0x10001CF04, symSize: 0x3C }
  - { offsetInCU: 0x2EF85, offset: 0x4CAEF, size: 0x8, addend: 0x0, symName: __ZNSt3__117__compressed_pairIfNS_21__unordered_map_equalINS_12basic_stringIcNS_11char_traitsIcEENS_9allocatorIcEEEENS_17__hash_value_typeIS7_dEENS_8equal_toIS7_EENS_4hashIS7_EELb1EEEEC1B8ue170006IfNS_18__default_init_tagEEEOT_OT0_, symObjAddr: 0x160AC, symBinAddr: 0x10001CF40, symSize: 0x3C }
  - { offsetInCU: 0x2EFDC, offset: 0x4CB46, size: 0x8, addend: 0x0, symName: __ZNSt3__110unique_ptrIA_PNS_16__hash_node_baseIPNS_11__hash_nodeINS_17__hash_value_typeINS_12basic_stringIcNS_11char_traitsIcEENS_9allocatorIcEEEEdEEPvEEEENS_25__bucket_list_deallocatorINS7_ISF_EEEEEC2B8ue170006ILb1EvEEv, symObjAddr: 0x160E8, symBinAddr: 0x10001CF7C, symSize: 0x3C }
  - { offsetInCU: 0x2F010, offset: 0x4CB7A, size: 0x8, addend: 0x0, symName: __ZNSt3__117__compressed_pairIPPNS_16__hash_node_baseIPNS_11__hash_nodeINS_17__hash_value_typeINS_12basic_stringIcNS_11char_traitsIcEENS_9allocatorIcEEEEdEEPvEEEENS_25__bucket_list_deallocatorINS7_ISF_EEEEEC1B8ue170006INS_16__value_init_tagESM_EEOT_OT0_, symObjAddr: 0x16124, symBinAddr: 0x10001CFB8, symSize: 0x3C }
  - { offsetInCU: 0x2F067, offset: 0x4CBD1, size: 0x8, addend: 0x0, symName: __ZNSt3__117__compressed_pairIPPNS_16__hash_node_baseIPNS_11__hash_nodeINS_17__hash_value_typeINS_12basic_stringIcNS_11char_traitsIcEENS_9allocatorIcEEEEdEEPvEEEENS_25__bucket_list_deallocatorINS7_ISF_EEEEEC2B8ue170006INS_16__value_init_tagESM_EEOT_OT0_, symObjAddr: 0x16160, symBinAddr: 0x10001CFF4, symSize: 0x40 }
  - { offsetInCU: 0x2F0BE, offset: 0x4CC28, size: 0x8, addend: 0x0, symName: __ZNSt3__122__compressed_pair_elemIPPNS_16__hash_node_baseIPNS_11__hash_nodeINS_17__hash_value_typeINS_12basic_stringIcNS_11char_traitsIcEENS_9allocatorIcEEEEdEEPvEEEELi0ELb0EEC2B8ue170006ENS_16__value_init_tagE, symObjAddr: 0x161A0, symBinAddr: 0x10001D034, symSize: 0x18 }
  - { offsetInCU: 0x2F0F2, offset: 0x4CC5C, size: 0x8, addend: 0x0, symName: __ZNSt3__122__compressed_pair_elemINS_25__bucket_list_deallocatorINS_9allocatorIPNS_16__hash_node_baseIPNS_11__hash_nodeINS_17__hash_value_typeINS_12basic_stringIcNS_11char_traitsIcEENS2_IcEEEEdEEPvEEEEEEEELi1ELb0EEC2B8ue170006ENS_16__value_init_tagE, symObjAddr: 0x161B8, symBinAddr: 0x10001D04C, symSize: 0x2C }
  - { offsetInCU: 0x2F126, offset: 0x4CC90, size: 0x8, addend: 0x0, symName: __ZNSt3__125__bucket_list_deallocatorINS_9allocatorIPNS_16__hash_node_baseIPNS_11__hash_nodeINS_17__hash_value_typeINS_12basic_stringIcNS_11char_traitsIcEENS1_IcEEEEdEEPvEEEEEEEC1B8ue170006Ev, symObjAddr: 0x161E4, symBinAddr: 0x10001D078, symSize: 0x2C }
  - { offsetInCU: 0x2F14F, offset: 0x4CCB9, size: 0x8, addend: 0x0, symName: __ZNSt3__125__bucket_list_deallocatorINS_9allocatorIPNS_16__hash_node_baseIPNS_11__hash_nodeINS_17__hash_value_typeINS_12basic_stringIcNS_11char_traitsIcEENS1_IcEEEEdEEPvEEEEEEEC2B8ue170006Ev, symObjAddr: 0x16210, symBinAddr: 0x10001D0A4, symSize: 0x40 }
  - { offsetInCU: 0x2F178, offset: 0x4CCE2, size: 0x8, addend: 0x0, symName: __ZNSt3__117__compressed_pairImNS_9allocatorIPNS_16__hash_node_baseIPNS_11__hash_nodeINS_17__hash_value_typeINS_12basic_stringIcNS_11char_traitsIcEENS1_IcEEEEdEEPvEEEEEEEC1B8ue170006IiNS_18__default_init_tagEEEOT_OT0_, symObjAddr: 0x16250, symBinAddr: 0x10001D0E4, symSize: 0x3C }
  - { offsetInCU: 0x2F1CF, offset: 0x4CD39, size: 0x8, addend: 0x0, symName: __ZNSt3__117__compressed_pairImNS_9allocatorIPNS_16__hash_node_baseIPNS_11__hash_nodeINS_17__hash_value_typeINS_12basic_stringIcNS_11char_traitsIcEENS1_IcEEEEdEEPvEEEEEEEC2B8ue170006IiNS_18__default_init_tagEEEOT_OT0_, symObjAddr: 0x1628C, symBinAddr: 0x10001D120, symSize: 0x40 }
  - { offsetInCU: 0x2F226, offset: 0x4CD90, size: 0x8, addend: 0x0, symName: __ZNSt3__122__compressed_pair_elemINS_9allocatorIPNS_16__hash_node_baseIPNS_11__hash_nodeINS_17__hash_value_typeINS_12basic_stringIcNS_11char_traitsIcEENS1_IcEEEEdEEPvEEEEEELi1ELb1EEC2B8ue170006ENS_18__default_init_tagE, symObjAddr: 0x162CC, symBinAddr: 0x10001D160, symSize: 0x2C }
  - { offsetInCU: 0x2F25A, offset: 0x4CDC4, size: 0x8, addend: 0x0, symName: __ZNSt3__19allocatorIPNS_16__hash_node_baseIPNS_11__hash_nodeINS_17__hash_value_typeINS_12basic_stringIcNS_11char_traitsIcEENS0_IcEEEEdEEPvEEEEEC2B8ue170006Ev, symObjAddr: 0x162F8, symBinAddr: 0x10001D18C, symSize: 0x2C }
  - { offsetInCU: 0x2F283, offset: 0x4CDED, size: 0x8, addend: 0x0, symName: __ZNSt3__116__non_trivial_ifILb1ENS_9allocatorIPNS_16__hash_node_baseIPNS_11__hash_nodeINS_17__hash_value_typeINS_12basic_stringIcNS_11char_traitsIcEENS1_IcEEEEdEEPvEEEEEEEC2B8ue170006Ev, symObjAddr: 0x16324, symBinAddr: 0x10001D1B8, symSize: 0x14 }
  - { offsetInCU: 0x2F2AC, offset: 0x4CE16, size: 0x8, addend: 0x0, symName: __ZNSt3__117__compressed_pairINS_16__hash_node_baseIPNS_11__hash_nodeINS_17__hash_value_typeINS_12basic_stringIcNS_11char_traitsIcEENS_9allocatorIcEEEEdEEPvEEEENS7_ISC_EEEC2B8ue170006ILb1EvEEv, symObjAddr: 0x16338, symBinAddr: 0x10001D1CC, symSize: 0x34 }
  - { offsetInCU: 0x2F2E0, offset: 0x4CE4A, size: 0x8, addend: 0x0, symName: __ZNSt3__122__compressed_pair_elemINS_16__hash_node_baseIPNS_11__hash_nodeINS_17__hash_value_typeINS_12basic_stringIcNS_11char_traitsIcEENS_9allocatorIcEEEEdEEPvEEEELi0ELb0EEC2B8ue170006ENS_16__value_init_tagE, symObjAddr: 0x1636C, symBinAddr: 0x10001D200, symSize: 0x2C }
  - { offsetInCU: 0x2F314, offset: 0x4CE7E, size: 0x8, addend: 0x0, symName: __ZNSt3__122__compressed_pair_elemINS_9allocatorINS_11__hash_nodeINS_17__hash_value_typeINS_12basic_stringIcNS_11char_traitsIcEENS1_IcEEEEdEEPvEEEELi1ELb1EEC2B8ue170006ENS_16__value_init_tagE, symObjAddr: 0x16398, symBinAddr: 0x10001D22C, symSize: 0x2C }
  - { offsetInCU: 0x2F348, offset: 0x4CEB2, size: 0x8, addend: 0x0, symName: __ZNSt3__116__hash_node_baseIPNS_11__hash_nodeINS_17__hash_value_typeINS_12basic_stringIcNS_11char_traitsIcEENS_9allocatorIcEEEEdEEPvEEEC1B8ue170006Ev, symObjAddr: 0x163C4, symBinAddr: 0x10001D258, symSize: 0x2C }
  - { offsetInCU: 0x2F371, offset: 0x4CEDB, size: 0x8, addend: 0x0, symName: __ZNSt3__116__hash_node_baseIPNS_11__hash_nodeINS_17__hash_value_typeINS_12basic_stringIcNS_11char_traitsIcEENS_9allocatorIcEEEEdEEPvEEEC2B8ue170006Ev, symObjAddr: 0x163F0, symBinAddr: 0x10001D284, symSize: 0x18 }
  - { offsetInCU: 0x2F39A, offset: 0x4CF04, size: 0x8, addend: 0x0, symName: __ZNSt3__19allocatorINS_11__hash_nodeINS_17__hash_value_typeINS_12basic_stringIcNS_11char_traitsIcEENS0_IcEEEEdEEPvEEEC2B8ue170006Ev, symObjAddr: 0x16408, symBinAddr: 0x10001D29C, symSize: 0x2C }
  - { offsetInCU: 0x2F3C3, offset: 0x4CF2D, size: 0x8, addend: 0x0, symName: __ZNSt3__116__non_trivial_ifILb1ENS_9allocatorINS_11__hash_nodeINS_17__hash_value_typeINS_12basic_stringIcNS_11char_traitsIcEENS1_IcEEEEdEEPvEEEEEC2B8ue170006Ev, symObjAddr: 0x16434, symBinAddr: 0x10001D2C8, symSize: 0x14 }
  - { offsetInCU: 0x2F3EC, offset: 0x4CF56, size: 0x8, addend: 0x0, symName: __ZNSt3__117__compressed_pairImNS_22__unordered_map_hasherINS_12basic_stringIcNS_11char_traitsIcEENS_9allocatorIcEEEENS_17__hash_value_typeIS7_dEENS_4hashIS7_EENS_8equal_toIS7_EELb1EEEEC2B8ue170006IiNS_18__default_init_tagEEEOT_OT0_, symObjAddr: 0x16448, symBinAddr: 0x10001D2DC, symSize: 0x40 }
  - { offsetInCU: 0x2F443, offset: 0x4CFAD, size: 0x8, addend: 0x0, symName: __ZNSt3__122__compressed_pair_elemINS_22__unordered_map_hasherINS_12basic_stringIcNS_11char_traitsIcEENS_9allocatorIcEEEENS_17__hash_value_typeIS7_dEENS_4hashIS7_EENS_8equal_toIS7_EELb1EEELi1ELb1EEC2B8ue170006ENS_18__default_init_tagE, symObjAddr: 0x16488, symBinAddr: 0x10001D31C, symSize: 0x2C }
  - { offsetInCU: 0x2F477, offset: 0x4CFE1, size: 0x8, addend: 0x0, symName: __ZNSt3__122__unordered_map_hasherINS_12basic_stringIcNS_11char_traitsIcEENS_9allocatorIcEEEENS_17__hash_value_typeIS6_dEENS_4hashIS6_EENS_8equal_toIS6_EELb1EEC2B8ue170006Ev, symObjAddr: 0x164B4, symBinAddr: 0x10001D348, symSize: 0x14 }
  - { offsetInCU: 0x2F4A0, offset: 0x4D00A, size: 0x8, addend: 0x0, symName: __ZNSt3__117__compressed_pairIfNS_21__unordered_map_equalINS_12basic_stringIcNS_11char_traitsIcEENS_9allocatorIcEEEENS_17__hash_value_typeIS7_dEENS_8equal_toIS7_EENS_4hashIS7_EELb1EEEEC2B8ue170006IfNS_18__default_init_tagEEEOT_OT0_, symObjAddr: 0x164C8, symBinAddr: 0x10001D35C, symSize: 0x40 }
  - { offsetInCU: 0x2F4F7, offset: 0x4D061, size: 0x8, addend: 0x0, symName: __ZNSt3__122__compressed_pair_elemINS_21__unordered_map_equalINS_12basic_stringIcNS_11char_traitsIcEENS_9allocatorIcEEEENS_17__hash_value_typeIS7_dEENS_8equal_toIS7_EENS_4hashIS7_EELb1EEELi1ELb1EEC2B8ue170006ENS_18__default_init_tagE, symObjAddr: 0x16508, symBinAddr: 0x10001D39C, symSize: 0x2C }
  - { offsetInCU: 0x2F52B, offset: 0x4D095, size: 0x8, addend: 0x0, symName: __ZNSt3__121__unordered_map_equalINS_12basic_stringIcNS_11char_traitsIcEENS_9allocatorIcEEEENS_17__hash_value_typeIS6_dEENS_8equal_toIS6_EENS_4hashIS6_EELb1EEC2B8ue170006Ev, symObjAddr: 0x16534, symBinAddr: 0x10001D3C8, symSize: 0x14 }
  - { offsetInCU: 0x2F554, offset: 0x4D0BE, size: 0x8, addend: 0x0, symName: __ZNSt3__16vectorINS_4pairIdNS_12basic_stringIcNS_11char_traitsIcEENS_9allocatorIcEEEEEENS5_IS8_EEE9push_backB8ue170006EOS8_, symObjAddr: 0x16754, symBinAddr: 0x10001D3DC, symSize: 0x6C }
  - { offsetInCU: 0x2F589, offset: 0x4D0F3, size: 0x8, addend: 0x0, symName: __ZNSt3__16vectorINS_4pairIdNS_12basic_stringIcNS_11char_traitsIcEENS_9allocatorIcEEEEEENS5_IS8_EEE5beginB8ue170006Ev, symObjAddr: 0x16800, symBinAddr: 0x10001D488, symSize: 0x30 }
  - { offsetInCU: 0x2F5AF, offset: 0x4D119, size: 0x8, addend: 0x0, symName: __ZNSt3__16vectorINS_4pairIdNS_12basic_stringIcNS_11char_traitsIcEENS_9allocatorIcEEEEEENS5_IS8_EEE3endB8ue170006Ev, symObjAddr: 0x16830, symBinAddr: 0x10001D4B8, symSize: 0x30 }
  - { offsetInCU: 0x2F5D5, offset: 0x4D13F, size: 0x8, addend: 0x0, symName: __ZNSt3__16vectorINS_4pairIdNS_12basic_stringIcNS_11char_traitsIcEENS_9allocatorIcEEEEEENS5_IS8_EEE9__end_capB8ue170006Ev, symObjAddr: 0x16860, symBinAddr: 0x10001D4E8, symSize: 0x28 }
  - { offsetInCU: 0x2F5FA, offset: 0x4D164, size: 0x8, addend: 0x0, symName: __ZNSt3__16vectorINS_4pairIdNS_12basic_stringIcNS_11char_traitsIcEENS_9allocatorIcEEEEEENS5_IS8_EEE22__construct_one_at_endB8ue170006IJS8_EEEvDpOT_, symObjAddr: 0x16888, symBinAddr: 0x10001D510, symSize: 0x90 }
  - { offsetInCU: 0x2F648, offset: 0x4D1B2, size: 0x8, addend: 0x0, symName: __ZNSt3__16vectorINS_4pairIdNS_12basic_stringIcNS_11char_traitsIcEENS_9allocatorIcEEEEEENS5_IS8_EEE21__push_back_slow_pathIS8_EEvOT_, symObjAddr: 0x16918, symBinAddr: 0x10001D5A0, symSize: 0xD8 }
  - { offsetInCU: 0x2F6A4, offset: 0x4D20E, size: 0x8, addend: 0x0, symName: __ZNSt3__117__compressed_pairIPNS_4pairIdNS_12basic_stringIcNS_11char_traitsIcEENS_9allocatorIcEEEEEENS5_IS8_EEE5firstB8ue170006Ev, symObjAddr: 0x169F0, symBinAddr: 0x10001D678, symSize: 0x24 }
  - { offsetInCU: 0x2F6C9, offset: 0x4D233, size: 0x8, addend: 0x0, symName: __ZNSt3__122__compressed_pair_elemIPNS_4pairIdNS_12basic_stringIcNS_11char_traitsIcEENS_9allocatorIcEEEEEELi0ELb0EE5__getB8ue170006Ev, symObjAddr: 0x16A14, symBinAddr: 0x10001D69C, symSize: 0x14 }
  - { offsetInCU: 0x2F707, offset: 0x4D271, size: 0x8, addend: 0x0, symName: __ZNSt3__16vectorINS_4pairIdNS_12basic_stringIcNS_11char_traitsIcEENS_9allocatorIcEEEEEENS5_IS8_EEE21_ConstructTransactionC1B8ue170006ERSA_m, symObjAddr: 0x16A28, symBinAddr: 0x10001D6B0, symSize: 0x3C }
  - { offsetInCU: 0x2F74E, offset: 0x4D2B8, size: 0x8, addend: 0x0, symName: __ZNSt3__116allocator_traitsINS_9allocatorINS_4pairIdNS_12basic_stringIcNS_11char_traitsIcEENS1_IcEEEEEEEEE9constructB8ue170006IS8_JS8_EvEEvRS9_PT_DpOT0_, symObjAddr: 0x16A64, symBinAddr: 0x10001D6EC, symSize: 0x34 }
  - { offsetInCU: 0x2F7A5, offset: 0x4D30F, size: 0x8, addend: 0x0, symName: __ZNSt3__16vectorINS_4pairIdNS_12basic_stringIcNS_11char_traitsIcEENS_9allocatorIcEEEEEENS5_IS8_EEE21_ConstructTransactionD1B8ue170006Ev, symObjAddr: 0x16A98, symBinAddr: 0x10001D720, symSize: 0x2C }
  - { offsetInCU: 0x2F7CE, offset: 0x4D338, size: 0x8, addend: 0x0, symName: __ZNSt3__16vectorINS_4pairIdNS_12basic_stringIcNS_11char_traitsIcEENS_9allocatorIcEEEEEENS5_IS8_EEE21_ConstructTransactionC2B8ue170006ERSA_m, symObjAddr: 0x16AC4, symBinAddr: 0x10001D74C, symSize: 0x44 }
  - { offsetInCU: 0x2F815, offset: 0x4D37F, size: 0x8, addend: 0x0, symName: __ZNSt3__19allocatorINS_4pairIdNS_12basic_stringIcNS_11char_traitsIcEENS0_IcEEEEEEE9constructB8ue170006IS7_JS7_EEEvPT_DpOT0_, symObjAddr: 0x16B08, symBinAddr: 0x10001D790, symSize: 0x30 }
  - { offsetInCU: 0x2F86A, offset: 0x4D3D4, size: 0x8, addend: 0x0, symName: __ZNSt3__14pairIdNS_12basic_stringIcNS_11char_traitsIcEENS_9allocatorIcEEEEEC1B8ue170006EOS7_, symObjAddr: 0x16B38, symBinAddr: 0x10001D7C0, symSize: 0x34 }
  - { offsetInCU: 0x2F89E, offset: 0x4D408, size: 0x8, addend: 0x0, symName: __ZNSt3__14pairIdNS_12basic_stringIcNS_11char_traitsIcEENS_9allocatorIcEEEEEC2B8ue170006EOS7_, symObjAddr: 0x16B6C, symBinAddr: 0x10001D7F4, symSize: 0x48 }
  - { offsetInCU: 0x2F8D2, offset: 0x4D43C, size: 0x8, addend: 0x0, symName: __ZNSt3__16vectorINS_4pairIdNS_12basic_stringIcNS_11char_traitsIcEENS_9allocatorIcEEEEEENS5_IS8_EEE21_ConstructTransactionD2B8ue170006Ev, symObjAddr: 0x16BB4, symBinAddr: 0x10001D83C, symSize: 0x20 }
  - { offsetInCU: 0x2F8FB, offset: 0x4D465, size: 0x8, addend: 0x0, symName: __ZNKSt3__16vectorINS_4pairIdNS_12basic_stringIcNS_11char_traitsIcEENS_9allocatorIcEEEEEENS5_IS8_EEE11__recommendB8ue170006Em, symObjAddr: 0x16BD4, symBinAddr: 0x10001D85C, symSize: 0xB4 }
  - { offsetInCU: 0x2F94E, offset: 0x4D4B8, size: 0x8, addend: 0x0, symName: __ZNSt3__114__split_bufferINS_4pairIdNS_12basic_stringIcNS_11char_traitsIcEENS_9allocatorIcEEEEEERNS5_IS8_EEEC1EmmSA_, symObjAddr: 0x16C88, symBinAddr: 0x10001D910, symSize: 0x44 }
  - { offsetInCU: 0x2F9A3, offset: 0x4D50D, size: 0x8, addend: 0x0, symName: __ZNSt3__114__split_bufferINS_4pairIdNS_12basic_stringIcNS_11char_traitsIcEENS_9allocatorIcEEEEEERNS5_IS8_EEED1Ev, symObjAddr: 0x16DDC, symBinAddr: 0x10001DA64, symSize: 0x2C }
  - { offsetInCU: 0x2F9CE, offset: 0x4D538, size: 0x8, addend: 0x0, symName: __ZNKSt3__16vectorINS_4pairIdNS_12basic_stringIcNS_11char_traitsIcEENS_9allocatorIcEEEEEENS5_IS8_EEE8max_sizeEv, symObjAddr: 0x16E08, symBinAddr: 0x10001DA90, symSize: 0x60 }
  - { offsetInCU: 0x2F9F4, offset: 0x4D55E, size: 0x8, addend: 0x0, symName: __ZNKSt3__16vectorINS_4pairIdNS_12basic_stringIcNS_11char_traitsIcEENS_9allocatorIcEEEEEENS5_IS8_EEE20__throw_length_errorB8ue170006Ev, symObjAddr: 0x16E68, symBinAddr: 0x10001DAF0, symSize: 0x1C }
  - { offsetInCU: 0x2FA23, offset: 0x4D58D, size: 0x8, addend: 0x0, symName: __ZNSt3__116allocator_traitsINS_9allocatorINS_4pairIdNS_12basic_stringIcNS_11char_traitsIcEENS1_IcEEEEEEEEE8max_sizeB8ue170006IS9_vEEmRKS9_, symObjAddr: 0x16E84, symBinAddr: 0x10001DB0C, symSize: 0x24 }
  - { offsetInCU: 0x2FA51, offset: 0x4D5BB, size: 0x8, addend: 0x0, symName: __ZNKSt3__16vectorINS_4pairIdNS_12basic_stringIcNS_11char_traitsIcEENS_9allocatorIcEEEEEENS5_IS8_EEE7__allocB8ue170006Ev, symObjAddr: 0x16EA8, symBinAddr: 0x10001DB30, symSize: 0x28 }
  - { offsetInCU: 0x2FA76, offset: 0x4D5E0, size: 0x8, addend: 0x0, symName: __ZNKSt3__19allocatorINS_4pairIdNS_12basic_stringIcNS_11char_traitsIcEENS0_IcEEEEEEE8max_sizeB8ue170006Ev, symObjAddr: 0x16ED0, symBinAddr: 0x10001DB58, symSize: 0x14 }
  - { offsetInCU: 0x2FA9B, offset: 0x4D605, size: 0x8, addend: 0x0, symName: __ZNKSt3__117__compressed_pairIPNS_4pairIdNS_12basic_stringIcNS_11char_traitsIcEENS_9allocatorIcEEEEEENS5_IS8_EEE6secondB8ue170006Ev, symObjAddr: 0x16EE4, symBinAddr: 0x10001DB6C, symSize: 0x24 }
  - { offsetInCU: 0x2FAC0, offset: 0x4D62A, size: 0x8, addend: 0x0, symName: __ZNKSt3__122__compressed_pair_elemINS_9allocatorINS_4pairIdNS_12basic_stringIcNS_11char_traitsIcEENS1_IcEEEEEEEELi1ELb1EE5__getB8ue170006Ev, symObjAddr: 0x16F08, symBinAddr: 0x10001DB90, symSize: 0x14 }
  - { offsetInCU: 0x2FAE5, offset: 0x4D64F, size: 0x8, addend: 0x0, symName: __ZNSt3__114__split_bufferINS_4pairIdNS_12basic_stringIcNS_11char_traitsIcEENS_9allocatorIcEEEEEERNS5_IS8_EEEC2EmmSA_, symObjAddr: 0x16F1C, symBinAddr: 0x10001DBA4, symSize: 0xD4 }
  - { offsetInCU: 0x2FB58, offset: 0x4D6C2, size: 0x8, addend: 0x0, symName: __ZNSt3__117__compressed_pairIPNS_4pairIdNS_12basic_stringIcNS_11char_traitsIcEENS_9allocatorIcEEEEEERNS5_IS8_EEEC1B8ue170006IDnSB_EEOT_OT0_, symObjAddr: 0x16FF0, symBinAddr: 0x10001DC78, symSize: 0x3C }
  - { offsetInCU: 0x2FBAF, offset: 0x4D719, size: 0x8, addend: 0x0, symName: __ZNSt3__114__split_bufferINS_4pairIdNS_12basic_stringIcNS_11char_traitsIcEENS_9allocatorIcEEEEEERNS5_IS8_EEE7__allocB8ue170006Ev, symObjAddr: 0x1706C, symBinAddr: 0x10001DCF4, symSize: 0x28 }
  - { offsetInCU: 0x2FBD4, offset: 0x4D73E, size: 0x8, addend: 0x0, symName: __ZNSt3__114__split_bufferINS_4pairIdNS_12basic_stringIcNS_11char_traitsIcEENS_9allocatorIcEEEEEERNS5_IS8_EEE9__end_capB8ue170006Ev, symObjAddr: 0x17094, symBinAddr: 0x10001DD1C, symSize: 0x28 }
  - { offsetInCU: 0x2FBF9, offset: 0x4D763, size: 0x8, addend: 0x0, symName: __ZNSt3__117__compressed_pairIPNS_4pairIdNS_12basic_stringIcNS_11char_traitsIcEENS_9allocatorIcEEEEEERNS5_IS8_EEEC2B8ue170006IDnSB_EEOT_OT0_, symObjAddr: 0x170BC, symBinAddr: 0x10001DD44, symSize: 0x48 }
  - { offsetInCU: 0x2FC50, offset: 0x4D7BA, size: 0x8, addend: 0x0, symName: __ZNSt3__122__compressed_pair_elemIRNS_9allocatorINS_4pairIdNS_12basic_stringIcNS_11char_traitsIcEENS1_IcEEEEEEEELi1ELb0EEC2B8ue170006ISA_vEEOT_, symObjAddr: 0x17104, symBinAddr: 0x10001DD8C, symSize: 0x20 }
  - { offsetInCU: 0x2FC91, offset: 0x4D7FB, size: 0x8, addend: 0x0, symName: __ZNSt3__19allocatorINS_4pairIdNS_12basic_stringIcNS_11char_traitsIcEENS0_IcEEEEEEE8allocateB8ue170006Em, symObjAddr: 0x17124, symBinAddr: 0x10001DDAC, symSize: 0x58 }
  - { offsetInCU: 0x2FCC4, offset: 0x4D82E, size: 0x8, addend: 0x0, symName: __ZNSt3__117__compressed_pairIPNS_4pairIdNS_12basic_stringIcNS_11char_traitsIcEENS_9allocatorIcEEEEEERNS5_IS8_EEE6secondB8ue170006Ev, symObjAddr: 0x1717C, symBinAddr: 0x10001DE04, symSize: 0x28 }
  - { offsetInCU: 0x2FCE9, offset: 0x4D853, size: 0x8, addend: 0x0, symName: __ZNSt3__122__compressed_pair_elemIRNS_9allocatorINS_4pairIdNS_12basic_stringIcNS_11char_traitsIcEENS1_IcEEEEEEEELi1ELb0EE5__getB8ue170006Ev, symObjAddr: 0x171A4, symBinAddr: 0x10001DE2C, symSize: 0x18 }
  - { offsetInCU: 0x2FD0E, offset: 0x4D878, size: 0x8, addend: 0x0, symName: __ZNSt3__117__compressed_pairIPNS_4pairIdNS_12basic_stringIcNS_11char_traitsIcEENS_9allocatorIcEEEEEERNS5_IS8_EEE5firstB8ue170006Ev, symObjAddr: 0x171BC, symBinAddr: 0x10001DE44, symSize: 0x24 }
  - { offsetInCU: 0x2FD33, offset: 0x4D89D, size: 0x8, addend: 0x0, symName: __ZNSt3__116reverse_iteratorIPNS_4pairIdNS_12basic_stringIcNS_11char_traitsIcEENS_9allocatorIcEEEEEEEC1B8ue170006ES9_, symObjAddr: 0x1730C, symBinAddr: 0x10001DF94, symSize: 0x34 }
  - { offsetInCU: 0x2FD6A, offset: 0x4D8D4, size: 0x8, addend: 0x0, symName: __ZNKSt3__116reverse_iteratorIPNS_4pairIdNS_12basic_stringIcNS_11char_traitsIcEENS_9allocatorIcEEEEEEE4baseB8ue170006Ev, symObjAddr: 0x17340, symBinAddr: 0x10001DFC8, symSize: 0x18 }
  - { offsetInCU: 0x2FD8F, offset: 0x4D8F9, size: 0x8, addend: 0x0, symName: __ZNKSt3__16vectorINS_4pairIdNS_12basic_stringIcNS_11char_traitsIcEENS_9allocatorIcEEEEEENS5_IS8_EEE14__annotate_newB8ue170006Em, symObjAddr: 0x17394, symBinAddr: 0x10001E01C, symSize: 0xAC }
  - { offsetInCU: 0x2FDC3, offset: 0x4D92D, size: 0x8, addend: 0x0, symName: __ZNSt3__129_AllocatorDestroyRangeReverseINS_9allocatorINS_4pairIdNS_12basic_stringIcNS_11char_traitsIcEENS1_IcEEEEEEEENS_16reverse_iteratorIPS8_EEEC1B8ue170006ERS9_RSC_SF_, symObjAddr: 0x1748C, symBinAddr: 0x10001E114, symSize: 0x44 }
  - { offsetInCU: 0x2FE19, offset: 0x4D983, size: 0x8, addend: 0x0, symName: __ZNKSt3__116reverse_iteratorIPNS_4pairIdNS_12basic_stringIcNS_11char_traitsIcEENS_9allocatorIcEEEEEEEdeB8ue170006Ev, symObjAddr: 0x1753C, symBinAddr: 0x10001E1C4, symSize: 0x28 }
  - { offsetInCU: 0x2FE4C, offset: 0x4D9B6, size: 0x8, addend: 0x0, symName: __ZNSt3__116reverse_iteratorIPNS_4pairIdNS_12basic_stringIcNS_11char_traitsIcEENS_9allocatorIcEEEEEEEppB8ue170006Ev, symObjAddr: 0x17564, symBinAddr: 0x10001E1EC, symSize: 0x20 }
  - { offsetInCU: 0x2FE71, offset: 0x4D9DB, size: 0x8, addend: 0x0, symName: __ZNSt3__128__exception_guard_exceptionsINS_29_AllocatorDestroyRangeReverseINS_9allocatorINS_4pairIdNS_12basic_stringIcNS_11char_traitsIcEENS2_IcEEEEEEEENS_16reverse_iteratorIPS9_EEEEE10__completeB8ue170006Ev, symObjAddr: 0x17584, symBinAddr: 0x10001E20C, symSize: 0x1C }
  - { offsetInCU: 0x2FE96, offset: 0x4DA00, size: 0x8, addend: 0x0, symName: __ZNSt3__128__exception_guard_exceptionsINS_29_AllocatorDestroyRangeReverseINS_9allocatorINS_4pairIdNS_12basic_stringIcNS_11char_traitsIcEENS2_IcEEEEEEEENS_16reverse_iteratorIPS9_EEEEED1B8ue170006Ev, symObjAddr: 0x175A0, symBinAddr: 0x10001E228, symSize: 0x2C }
  - { offsetInCU: 0x2FEBF, offset: 0x4DA29, size: 0x8, addend: 0x0, symName: __ZNSt3__128__exception_guard_exceptionsINS_29_AllocatorDestroyRangeReverseINS_9allocatorINS_4pairIdNS_12basic_stringIcNS_11char_traitsIcEENS2_IcEEEEEEEENS_16reverse_iteratorIPS9_EEEEEC1B8ue170006ESE_, symObjAddr: 0x175CC, symBinAddr: 0x10001E254, symSize: 0x34 }
  - { offsetInCU: 0x2FEF7, offset: 0x4DA61, size: 0x8, addend: 0x0, symName: __ZNSt3__128__exception_guard_exceptionsINS_29_AllocatorDestroyRangeReverseINS_9allocatorINS_4pairIdNS_12basic_stringIcNS_11char_traitsIcEENS2_IcEEEEEEEENS_16reverse_iteratorIPS9_EEEEEC2B8ue170006ESE_, symObjAddr: 0x17600, symBinAddr: 0x10001E288, symSize: 0x30 }
  - { offsetInCU: 0x2FF2F, offset: 0x4DA99, size: 0x8, addend: 0x0, symName: __ZNSt3__129_AllocatorDestroyRangeReverseINS_9allocatorINS_4pairIdNS_12basic_stringIcNS_11char_traitsIcEENS1_IcEEEEEEEENS_16reverse_iteratorIPS8_EEEC2B8ue170006ERS9_RSC_SF_, symObjAddr: 0x17630, symBinAddr: 0x10001E2B8, symSize: 0x38 }
  - { offsetInCU: 0x2FF8A, offset: 0x4DAF4, size: 0x8, addend: 0x0, symName: __ZNSt3__119__to_address_helperINS_16reverse_iteratorIPNS_4pairIdNS_12basic_stringIcNS_11char_traitsIcEENS_9allocatorIcEEEEEEEEvE6__callB8ue170006ERKSB_, symObjAddr: 0x17668, symBinAddr: 0x10001E2F0, symSize: 0x38 }
  - { offsetInCU: 0x2FFAD, offset: 0x4DB17, size: 0x8, addend: 0x0, symName: __ZNKSt3__116reverse_iteratorIPNS_4pairIdNS_12basic_stringIcNS_11char_traitsIcEENS_9allocatorIcEEEEEEEptB8ue170006Ev, symObjAddr: 0x176A0, symBinAddr: 0x10001E328, symSize: 0x24 }
  - { offsetInCU: 0x2FFD2, offset: 0x4DB3C, size: 0x8, addend: 0x0, symName: __ZNSt3__128__exception_guard_exceptionsINS_29_AllocatorDestroyRangeReverseINS_9allocatorINS_4pairIdNS_12basic_stringIcNS_11char_traitsIcEENS2_IcEEEEEEEENS_16reverse_iteratorIPS9_EEEEED2B8ue170006Ev, symObjAddr: 0x176C4, symBinAddr: 0x10001E34C, symSize: 0x50 }
  - { offsetInCU: 0x2FFFB, offset: 0x4DB65, size: 0x8, addend: 0x0, symName: __ZNKSt3__129_AllocatorDestroyRangeReverseINS_9allocatorINS_4pairIdNS_12basic_stringIcNS_11char_traitsIcEENS1_IcEEEEEEEENS_16reverse_iteratorIPS8_EEEclB8ue170006Ev, symObjAddr: 0x17714, symBinAddr: 0x10001E39C, symSize: 0xB4 }
  - { offsetInCU: 0x30021, offset: 0x4DB8B, size: 0x8, addend: 0x0, symName: __ZNSt3__116reverse_iteratorINS0_IPNS_4pairIdNS_12basic_stringIcNS_11char_traitsIcEENS_9allocatorIcEEEEEEEEEC1B8ue170006ESA_, symObjAddr: 0x17838, symBinAddr: 0x10001E4C0, symSize: 0x3C }
  - { offsetInCU: 0x30058, offset: 0x4DBC2, size: 0x8, addend: 0x0, symName: __ZNSt3__116reverse_iteratorINS0_IPNS_4pairIdNS_12basic_stringIcNS_11char_traitsIcEENS_9allocatorIcEEEEEEEEEppB8ue170006Ev, symObjAddr: 0x178F8, symBinAddr: 0x10001E580, symSize: 0x30 }
  - { offsetInCU: 0x3007D, offset: 0x4DBE7, size: 0x8, addend: 0x0, symName: __ZNKSt3__116reverse_iteratorINS0_IPNS_4pairIdNS_12basic_stringIcNS_11char_traitsIcEENS_9allocatorIcEEEEEEEEE4baseB8ue170006Ev, symObjAddr: 0x17928, symBinAddr: 0x10001E5B0, symSize: 0x24 }
  - { offsetInCU: 0x300A7, offset: 0x4DC11, size: 0x8, addend: 0x0, symName: __ZNSt3__119__to_address_helperINS_16reverse_iteratorINS1_IPNS_4pairIdNS_12basic_stringIcNS_11char_traitsIcEENS_9allocatorIcEEEEEEEEEEvE6__callB8ue170006ERKSC_, symObjAddr: 0x1794C, symBinAddr: 0x10001E5D4, symSize: 0x38 }
  - { offsetInCU: 0x300CA, offset: 0x4DC34, size: 0x8, addend: 0x0, symName: __ZNKSt3__116reverse_iteratorINS0_IPNS_4pairIdNS_12basic_stringIcNS_11char_traitsIcEENS_9allocatorIcEEEEEEEEEptB8ue170006Ev, symObjAddr: 0x17984, symBinAddr: 0x10001E60C, symSize: 0x24 }
  - { offsetInCU: 0x300EF, offset: 0x4DC59, size: 0x8, addend: 0x0, symName: __ZNKSt3__116reverse_iteratorINS0_IPNS_4pairIdNS_12basic_stringIcNS_11char_traitsIcEENS_9allocatorIcEEEEEEEEEdeB8ue170006Ev, symObjAddr: 0x179A8, symBinAddr: 0x10001E630, symSize: 0x34 }
  - { offsetInCU: 0x30122, offset: 0x4DC8C, size: 0x8, addend: 0x0, symName: __ZNSt3__116reverse_iteratorIPNS_4pairIdNS_12basic_stringIcNS_11char_traitsIcEENS_9allocatorIcEEEEEEEmmB8ue170006Ev, symObjAddr: 0x179DC, symBinAddr: 0x10001E664, symSize: 0x20 }
  - { offsetInCU: 0x30147, offset: 0x4DCB1, size: 0x8, addend: 0x0, symName: __ZNSt3__116reverse_iteratorINS0_IPNS_4pairIdNS_12basic_stringIcNS_11char_traitsIcEENS_9allocatorIcEEEEEEEEEC2B8ue170006ESA_, symObjAddr: 0x179FC, symBinAddr: 0x10001E684, symSize: 0x2C }
  - { offsetInCU: 0x3017E, offset: 0x4DCE8, size: 0x8, addend: 0x0, symName: __ZNSt3__116reverse_iteratorIPNS_4pairIdNS_12basic_stringIcNS_11char_traitsIcEENS_9allocatorIcEEEEEEEC2B8ue170006ES9_, symObjAddr: 0x17A28, symBinAddr: 0x10001E6B0, symSize: 0x28 }
  - { offsetInCU: 0x301B5, offset: 0x4DD1F, size: 0x8, addend: 0x0, symName: __ZNSt3__114__split_bufferINS_4pairIdNS_12basic_stringIcNS_11char_traitsIcEENS_9allocatorIcEEEEEERNS5_IS8_EEED2Ev, symObjAddr: 0x17A50, symBinAddr: 0x10001E6D8, symSize: 0x8C }
  - { offsetInCU: 0x301E0, offset: 0x4DD4A, size: 0x8, addend: 0x0, symName: __ZNSt3__114__split_bufferINS_4pairIdNS_12basic_stringIcNS_11char_traitsIcEENS_9allocatorIcEEEEEERNS5_IS8_EEE5clearB8ue170006Ev, symObjAddr: 0x17ADC, symBinAddr: 0x10001E764, symSize: 0x28 }
  - { offsetInCU: 0x30205, offset: 0x4DD6F, size: 0x8, addend: 0x0, symName: __ZNKSt3__114__split_bufferINS_4pairIdNS_12basic_stringIcNS_11char_traitsIcEENS_9allocatorIcEEEEEERNS5_IS8_EEE8capacityB8ue170006Ev, symObjAddr: 0x17B04, symBinAddr: 0x10001E78C, symSize: 0x40 }
  - { offsetInCU: 0x3022A, offset: 0x4DD94, size: 0x8, addend: 0x0, symName: __ZNSt3__114__split_bufferINS_4pairIdNS_12basic_stringIcNS_11char_traitsIcEENS_9allocatorIcEEEEEERNS5_IS8_EEE17__destruct_at_endB8ue170006EPS8_, symObjAddr: 0x17B44, symBinAddr: 0x10001E7CC, symSize: 0x2C }
  - { offsetInCU: 0x3025D, offset: 0x4DDC7, size: 0x8, addend: 0x0, symName: __ZNSt3__114__split_bufferINS_4pairIdNS_12basic_stringIcNS_11char_traitsIcEENS_9allocatorIcEEEEEERNS5_IS8_EEE17__destruct_at_endB8ue170006EPS8_NS_17integral_constantIbLb0EEE, symObjAddr: 0x17B70, symBinAddr: 0x10001E7F8, symSize: 0x80 }
  - { offsetInCU: 0x3029C, offset: 0x4DE06, size: 0x8, addend: 0x0, symName: __ZNKSt3__114__split_bufferINS_4pairIdNS_12basic_stringIcNS_11char_traitsIcEENS_9allocatorIcEEEEEERNS5_IS8_EEE9__end_capB8ue170006Ev, symObjAddr: 0x17BF0, symBinAddr: 0x10001E878, symSize: 0x28 }
  - { offsetInCU: 0x302C1, offset: 0x4DE2B, size: 0x8, addend: 0x0, symName: __ZNKSt3__117__compressed_pairIPNS_4pairIdNS_12basic_stringIcNS_11char_traitsIcEENS_9allocatorIcEEEEEERNS5_IS8_EEE5firstB8ue170006Ev, symObjAddr: 0x17C18, symBinAddr: 0x10001E8A0, symSize: 0x24 }
  - { offsetInCU: 0x302E6, offset: 0x4DE50, size: 0x8, addend: 0x0, symName: __ZNKSt3__111__wrap_iterIPNS_4pairIdNS_12basic_stringIcNS_11char_traitsIcEENS_9allocatorIcEEEEEEE4baseB8ue170006Ev, symObjAddr: 0x17E7C, symBinAddr: 0x10001EB04, symSize: 0x18 }
  - { offsetInCU: 0x3030B, offset: 0x4DE75, size: 0x8, addend: 0x0, symName: __ZNKSt3__111__wrap_iterIPNS_4pairIdNS_12basic_stringIcNS_11char_traitsIcEENS_9allocatorIcEEEEEEEplB8ue170006El, symObjAddr: 0x17E94, symBinAddr: 0x10001EB1C, symSize: 0x3C }
  - { offsetInCU: 0x3034C, offset: 0x4DEB6, size: 0x8, addend: 0x0, symName: __ZNKSt3__17greaterINS_4pairIdNS_12basic_stringIcNS_11char_traitsIcEENS_9allocatorIcEEEEEEEclB8ue170006ERKS8_SB_, symObjAddr: 0x17ED0, symBinAddr: 0x10001EB58, symSize: 0x34 }
  - { offsetInCU: 0x3038F, offset: 0x4DEF9, size: 0x8, addend: 0x0, symName: __ZNKSt3__111__wrap_iterIPNS_4pairIdNS_12basic_stringIcNS_11char_traitsIcEENS_9allocatorIcEEEEEEEdeB8ue170006Ev, symObjAddr: 0x17F04, symBinAddr: 0x10001EB8C, symSize: 0x18 }
  - { offsetInCU: 0x303B4, offset: 0x4DF1E, size: 0x8, addend: 0x0, symName: __ZNSt3__111__wrap_iterIPNS_4pairIdNS_12basic_stringIcNS_11char_traitsIcEENS_9allocatorIcEEEEEEEmmB8ue170006Ev, symObjAddr: 0x17F1C, symBinAddr: 0x10001EBA4, symSize: 0x20 }
  - { offsetInCU: 0x303D9, offset: 0x4DF43, size: 0x8, addend: 0x0, symName: __ZNSt3__18_IterOpsINS_17_ClassicAlgPolicyEE11__iter_moveB8ue170006IRNS_11__wrap_iterIPNS_4pairIdNS_12basic_stringIcNS_11char_traitsIcEENS_9allocatorIcEEEEEEEEEENS_9enable_ifIXsr12is_referenceIDTdeclsr3stdE7declvalIRT_EEEEE5valueEDTclsr3stdE4movedeclsr3stdE7declvalISI_EEEEE4typeEOSH_, symObjAddr: 0x17F3C, symBinAddr: 0x10001EBC4, symSize: 0x28 }
  - { offsetInCU: 0x30405, offset: 0x4DF6F, size: 0x8, addend: 0x0, symName: __ZNSt3__14pairIdNS_12basic_stringIcNS_11char_traitsIcEENS_9allocatorIcEEEEEaSB8ue170006EOS7_, symObjAddr: 0x17F64, symBinAddr: 0x10001EBEC, symSize: 0x48 }
  - { offsetInCU: 0x30439, offset: 0x4DFA3, size: 0x8, addend: 0x0, symName: __ZNSt3__111__wrap_iterIPNS_4pairIdNS_12basic_stringIcNS_11char_traitsIcEENS_9allocatorIcEEEEEEEpLB8ue170006El, symObjAddr: 0x17FAC, symBinAddr: 0x10001EC34, symSize: 0x28 }
  - { offsetInCU: 0x3046C, offset: 0x4DFD6, size: 0x8, addend: 0x0, symName: __ZNKSt3__112basic_stringIcNS_11char_traitsIcEENS_9allocatorIcEEE7compareB8ue170006ERKS5_, symObjAddr: 0x180DC, symBinAddr: 0x10001ED64, symSize: 0x4C }
  - { offsetInCU: 0x304A1, offset: 0x4E00B, size: 0x8, addend: 0x0, symName: __ZNKSt3__112basic_stringIcNS_11char_traitsIcEENS_9allocatorIcEEE7compareINS_17basic_string_viewIcS2_EELi0EEEiRKT_, symObjAddr: 0x18128, symBinAddr: 0x10001EDB0, symSize: 0x12C }
  - { offsetInCU: 0x30522, offset: 0x4E08C, size: 0x8, addend: 0x0, symName: __ZNKSt3__112basic_stringIcNS_11char_traitsIcEENS_9allocatorIcEEEcvNS_17basic_string_viewIcS2_EEB8ue170006Ev, symObjAddr: 0x18254, symBinAddr: 0x10001EEDC, symSize: 0x50 }
  - { offsetInCU: 0x30547, offset: 0x4E0B1, size: 0x8, addend: 0x0, symName: __ZNKSt3__117basic_string_viewIcNS_11char_traitsIcEEE4sizeB8ue170006Ev, symObjAddr: 0x182A4, symBinAddr: 0x10001EF2C, symSize: 0x18 }
  - { offsetInCU: 0x3056C, offset: 0x4E0D6, size: 0x8, addend: 0x0, symName: __ZNKSt3__117basic_string_viewIcNS_11char_traitsIcEEE4dataB8ue170006Ev, symObjAddr: 0x182BC, symBinAddr: 0x10001EF44, symSize: 0x18 }
  - { offsetInCU: 0x30591, offset: 0x4E0FB, size: 0x8, addend: 0x0, symName: __ZNSt3__117basic_string_viewIcNS_11char_traitsIcEEEC1B8ue170006EPKcm, symObjAddr: 0x182D4, symBinAddr: 0x10001EF5C, symSize: 0x3C }
  - { offsetInCU: 0x305D8, offset: 0x4E142, size: 0x8, addend: 0x0, symName: __ZNSt3__117basic_string_viewIcNS_11char_traitsIcEEEC2B8ue170006EPKcm, symObjAddr: 0x18310, symBinAddr: 0x10001EF98, symSize: 0x2C }
  - { offsetInCU: 0x3061F, offset: 0x4E189, size: 0x8, addend: 0x0, symName: __ZNSt3__18_IterOpsINS_17_ClassicAlgPolicyEE25__validate_iter_referenceB8ue170006IRNS_11__wrap_iterIPNS_4pairIdNS_12basic_stringIcNS_11char_traitsIcEENS_9allocatorIcEEEEEEEEEEvv, symObjAddr: 0x1833C, symBinAddr: 0x10001EFC4, symSize: 0x4 }
  - { offsetInCU: 0x3063D, offset: 0x4E1A7, size: 0x8, addend: 0x0, symName: __ZNSt3__112basic_stringIcNS_11char_traitsIcEENS_9allocatorIcEEEaSB8ue170006EOS5_, symObjAddr: 0x18340, symBinAddr: 0x10001EFC8, symSize: 0x34 }
  - { offsetInCU: 0x30671, offset: 0x4E1DB, size: 0x8, addend: 0x0, symName: __ZNSt3__112basic_stringIcNS_11char_traitsIcEENS_9allocatorIcEEE13__move_assignB8ue170006ERS5_NS_17integral_constantIbLb1EEE, symObjAddr: 0x18374, symBinAddr: 0x10001EFFC, symSize: 0xC8 }
  - { offsetInCU: 0x306B1, offset: 0x4E21B, size: 0x8, addend: 0x0, symName: __ZNSt3__116allocator_traitsINS_9allocatorIcEEE10deallocateB8ue170006ERS2_Pcm, symObjAddr: 0x1843C, symBinAddr: 0x10001F0C4, symSize: 0x34 }
  - { offsetInCU: 0x306F3, offset: 0x4E25D, size: 0x8, addend: 0x0, symName: __ZNKSt3__112basic_stringIcNS_11char_traitsIcEENS_9allocatorIcEEE14__get_long_capB8ue170006Ev, symObjAddr: 0x18470, symBinAddr: 0x10001F0F8, symSize: 0x30 }
  - { offsetInCU: 0x30718, offset: 0x4E282, size: 0x8, addend: 0x0, symName: __ZNSt3__112basic_stringIcNS_11char_traitsIcEENS_9allocatorIcEEE19__move_assign_allocB8ue170006ERS5_, symObjAddr: 0x184A0, symBinAddr: 0x10001F128, symSize: 0x2C }
  - { offsetInCU: 0x3074C, offset: 0x4E2B6, size: 0x8, addend: 0x0, symName: __ZNSt3__19allocatorIcE10deallocateB8ue170006EPcm, symObjAddr: 0x184CC, symBinAddr: 0x10001F154, symSize: 0x40 }
  - { offsetInCU: 0x3078D, offset: 0x4E2F7, size: 0x8, addend: 0x0, symName: __ZNSt3__112basic_stringIcNS_11char_traitsIcEENS_9allocatorIcEEE19__move_assign_allocB8ue170006ERS5_NS_17integral_constantIbLb1EEE, symObjAddr: 0x1850C, symBinAddr: 0x10001F194, symSize: 0x38 }
  - { offsetInCU: 0x307CC, offset: 0x4E336, size: 0x8, addend: 0x0, symName: __ZNSt3__16vectorINS_4pairIdNS_12basic_stringIcNS_11char_traitsIcEENS_9allocatorIcEEEEEENS5_IS8_EEE11__make_iterB8ue170006EPS8_, symObjAddr: 0x18544, symBinAddr: 0x10001F1CC, symSize: 0x30 }
  - { offsetInCU: 0x30800, offset: 0x4E36A, size: 0x8, addend: 0x0, symName: __ZNSt3__111__wrap_iterIPNS_4pairIdNS_12basic_stringIcNS_11char_traitsIcEENS_9allocatorIcEEEEEEEC1B8ue170006ES9_, symObjAddr: 0x18574, symBinAddr: 0x10001F1FC, symSize: 0x34 }
  - { offsetInCU: 0x30837, offset: 0x4E3A1, size: 0x8, addend: 0x0, symName: __ZNSt3__111__wrap_iterIPNS_4pairIdNS_12basic_stringIcNS_11char_traitsIcEENS_9allocatorIcEEEEEEEC2B8ue170006ES9_, symObjAddr: 0x185A8, symBinAddr: 0x10001F230, symSize: 0x20 }
  - { offsetInCU: 0x3086E, offset: 0x4E3D8, size: 0x8, addend: 0x0, symName: __ZNSt3__14pairIdNS_12basic_stringIcNS_11char_traitsIcEENS_9allocatorIcEEEEEC2B8ue170006IdRKS6_LPv0EEEOT_OT0_, symObjAddr: 0x185C8, symBinAddr: 0x10001F250, symSize: 0x48 }
  - { offsetInCU: 0x308CB, offset: 0x4E435, size: 0x8, addend: 0x0, symName: __ZNKSt3__16vectorINS_4pairIdNS_12basic_stringIcNS_11char_traitsIcEENS_9allocatorIcEEEEEENS5_IS8_EEE5emptyB8ue170006Ev, symObjAddr: 0x18610, symBinAddr: 0x10001F298, symSize: 0x28 }
  - { offsetInCU: 0x308F0, offset: 0x4E45A, size: 0x8, addend: 0x0, symName: __ZNKSt3__16vectorINS_4pairIdNS_12basic_stringIcNS_11char_traitsIcEENS_9allocatorIcEEEEEENS5_IS8_EEE5frontB8ue170006Ev, symObjAddr: 0x18638, symBinAddr: 0x10001F2C0, symSize: 0x18 }
  - { offsetInCU: 0x30915, offset: 0x4E47F, size: 0x8, addend: 0x0, symName: __ZNSt3__16vectorINS_4pairIdNS_12basic_stringIcNS_11char_traitsIcEENS_9allocatorIcEEEEEENS5_IS8_EEE8pop_backEv, symObjAddr: 0x186A8, symBinAddr: 0x10001F330, symSize: 0x2C }
  - { offsetInCU: 0x3093B, offset: 0x4E4A5, size: 0x8, addend: 0x0, symName: __ZNSt3__111__wrap_iterIPNS_4pairIdNS_12basic_stringIcNS_11char_traitsIcEENS_9allocatorIcEEEEEEEppB8ue170006Ev, symObjAddr: 0x189C8, symBinAddr: 0x10001F650, symSize: 0x20 }
  - { offsetInCU: 0x30960, offset: 0x4E4CA, size: 0x8, addend: 0x0, symName: __ZNSt3__16vectorINS_4pairIdNS_12basic_stringIcNS_11char_traitsIcEENS_9allocatorIcEEEEEENS5_IS8_EEE17__destruct_at_endB8ue170006EPS8_, symObjAddr: 0x189E8, symBinAddr: 0x10001F670, symSize: 0x4C }
  - { offsetInCU: 0x309A3, offset: 0x4E50D, size: 0x8, addend: 0x0, symName: __ZNKSt3__16vectorINS_4pairIdNS_12basic_stringIcNS_11char_traitsIcEENS_9allocatorIcEEEEEENS5_IS8_EEE17__annotate_shrinkB8ue170006Em, symObjAddr: 0x18A34, symBinAddr: 0x10001F6BC, symSize: 0xB4 }
  - { offsetInCU: 0x309D7, offset: 0x4E541, size: 0x8, addend: 0x0, symName: __ZNSt3__15tupleIJNS_12basic_stringIcNS_11char_traitsIcEENS_9allocatorIcEEEES6_dEEC1B8ue170006IJRS6_S9_RdELi0EEEDpOT_, symObjAddr: 0x18AE8, symBinAddr: 0x10001F770, symSize: 0x44 }
  - { offsetInCU: 0x30A48, offset: 0x4E5B2, size: 0x8, addend: 0x0, symName: __ZNSt3__15tupleIJNS_12basic_stringIcNS_11char_traitsIcEENS_9allocatorIcEEEES6_dEEC2B8ue170006IJRS6_S9_RdELi0EEEDpOT_, symObjAddr: 0x18B2C, symBinAddr: 0x10001F7B4, symSize: 0x44 }
  - { offsetInCU: 0x30AB9, offset: 0x4E623, size: 0x8, addend: 0x0, symName: __ZNSt3__112__tuple_implINS_15__tuple_indicesIJLm0ELm1ELm2EEEEJNS_12basic_stringIcNS_11char_traitsIcEENS_9allocatorIcEEEES8_dEEC1B8ue170006IJLm0ELm1ELm2EEJS8_S8_dEJEJEJRS8_SB_RdEEENS1_IJXspT_EEEENS_13__tuple_typesIJDpT0_EEENS1_IJXspT1_EEEENSE_IJDpT2_EEEDpOT3_, symObjAddr: 0x18B70, symBinAddr: 0x10001F7F8, symSize: 0x44 }
  - { offsetInCU: 0x30B87, offset: 0x4E6F1, size: 0x8, addend: 0x0, symName: __ZNSt3__112__tuple_implINS_15__tuple_indicesIJLm0ELm1ELm2EEEEJNS_12basic_stringIcNS_11char_traitsIcEENS_9allocatorIcEEEES8_dEEC2B8ue170006IJLm0ELm1ELm2EEJS8_S8_dEJEJEJRS8_SB_RdEEENS1_IJXspT_EEEENS_13__tuple_typesIJDpT0_EEENS1_IJXspT1_EEEENSE_IJDpT2_EEEDpOT3_, symObjAddr: 0x18BB4, symBinAddr: 0x10001F83C, symSize: 0x84 }
  - { offsetInCU: 0x30C55, offset: 0x4E7BF, size: 0x8, addend: 0x0, symName: __ZNSt3__112__tuple_leafILm0ENS_12basic_stringIcNS_11char_traitsIcEENS_9allocatorIcEEEELb0EEC2B8ue170006IRS6_vEEOT_, symObjAddr: 0x18C38, symBinAddr: 0x10001F8C0, symSize: 0x34 }
  - { offsetInCU: 0x30C97, offset: 0x4E801, size: 0x8, addend: 0x0, symName: __ZNSt3__112__tuple_leafILm1ENS_12basic_stringIcNS_11char_traitsIcEENS_9allocatorIcEEEELb0EEC2B8ue170006IRS6_vEEOT_, symObjAddr: 0x18C6C, symBinAddr: 0x10001F8F4, symSize: 0x34 }
  - { offsetInCU: 0x30CD9, offset: 0x4E843, size: 0x8, addend: 0x0, symName: __ZNSt3__112__tuple_leafILm2EdLb0EEC2B8ue170006IRdvEEOT_, symObjAddr: 0x18CA0, symBinAddr: 0x10001F928, symSize: 0x24 }
  - { offsetInCU: 0x30D1B, offset: 0x4E885, size: 0x8, addend: 0x0, symName: __ZNSt3__16vectorINS_5tupleIJNS_12basic_stringIcNS_11char_traitsIcEENS_9allocatorIcEEEES7_dEEENS5_IS8_EEE9__end_capB8ue170006Ev, symObjAddr: 0x18CC4, symBinAddr: 0x10001F94C, symSize: 0x28 }
  - { offsetInCU: 0x30D40, offset: 0x4E8AA, size: 0x8, addend: 0x0, symName: __ZNSt3__16vectorINS_5tupleIJNS_12basic_stringIcNS_11char_traitsIcEENS_9allocatorIcEEEES7_dEEENS5_IS8_EEE22__construct_one_at_endB8ue170006IJRKS8_EEEvDpOT_, symObjAddr: 0x18CEC, symBinAddr: 0x10001F974, symSize: 0x90 }
  - { offsetInCU: 0x30D8E, offset: 0x4E8F8, size: 0x8, addend: 0x0, symName: __ZNSt3__16vectorINS_5tupleIJNS_12basic_stringIcNS_11char_traitsIcEENS_9allocatorIcEEEES7_dEEENS5_IS8_EEE21__push_back_slow_pathIRKS8_EEvOT_, symObjAddr: 0x18D7C, symBinAddr: 0x10001FA04, symSize: 0xD8 }
  - { offsetInCU: 0x30DEA, offset: 0x4E954, size: 0x8, addend: 0x0, symName: __ZNSt3__117__compressed_pairIPNS_5tupleIJNS_12basic_stringIcNS_11char_traitsIcEENS_9allocatorIcEEEES7_dEEENS5_IS8_EEE5firstB8ue170006Ev, symObjAddr: 0x18E54, symBinAddr: 0x10001FADC, symSize: 0x24 }
  - { offsetInCU: 0x30E0F, offset: 0x4E979, size: 0x8, addend: 0x0, symName: __ZNSt3__122__compressed_pair_elemIPNS_5tupleIJNS_12basic_stringIcNS_11char_traitsIcEENS_9allocatorIcEEEES7_dEEELi0ELb0EE5__getB8ue170006Ev, symObjAddr: 0x18E78, symBinAddr: 0x10001FB00, symSize: 0x14 }
  - { offsetInCU: 0x30E4D, offset: 0x4E9B7, size: 0x8, addend: 0x0, symName: __ZNSt3__16vectorINS_5tupleIJNS_12basic_stringIcNS_11char_traitsIcEENS_9allocatorIcEEEES7_dEEENS5_IS8_EEE21_ConstructTransactionC1B8ue170006ERSA_m, symObjAddr: 0x18E8C, symBinAddr: 0x10001FB14, symSize: 0x3C }
  - { offsetInCU: 0x30E94, offset: 0x4E9FE, size: 0x8, addend: 0x0, symName: __ZNSt3__116allocator_traitsINS_9allocatorINS_5tupleIJNS_12basic_stringIcNS_11char_traitsIcEENS1_IcEEEES7_dEEEEEE9constructB8ue170006IS8_JRKS8_EvEEvRS9_PT_DpOT0_, symObjAddr: 0x18EC8, symBinAddr: 0x10001FB50, symSize: 0x34 }
  - { offsetInCU: 0x30EEB, offset: 0x4EA55, size: 0x8, addend: 0x0, symName: __ZNSt3__16vectorINS_5tupleIJNS_12basic_stringIcNS_11char_traitsIcEENS_9allocatorIcEEEES7_dEEENS5_IS8_EEE21_ConstructTransactionD1B8ue170006Ev, symObjAddr: 0x18EFC, symBinAddr: 0x10001FB84, symSize: 0x2C }
  - { offsetInCU: 0x30F14, offset: 0x4EA7E, size: 0x8, addend: 0x0, symName: __ZNSt3__16vectorINS_5tupleIJNS_12basic_stringIcNS_11char_traitsIcEENS_9allocatorIcEEEES7_dEEENS5_IS8_EEE21_ConstructTransactionC2B8ue170006ERSA_m, symObjAddr: 0x18F28, symBinAddr: 0x10001FBB0, symSize: 0x4C }
  - { offsetInCU: 0x30F5B, offset: 0x4EAC5, size: 0x8, addend: 0x0, symName: __ZNSt3__19allocatorINS_5tupleIJNS_12basic_stringIcNS_11char_traitsIcEENS0_IcEEEES6_dEEEE9constructB8ue170006IS7_JRKS7_EEEvPT_DpOT0_, symObjAddr: 0x18F74, symBinAddr: 0x10001FBFC, symSize: 0x30 }
  - { offsetInCU: 0x30FB0, offset: 0x4EB1A, size: 0x8, addend: 0x0, symName: __ZNSt3__15tupleIJNS_12basic_stringIcNS_11char_traitsIcEENS_9allocatorIcEEEES6_dEEC1ERKS7_, symObjAddr: 0x18FA4, symBinAddr: 0x10001FC2C, symSize: 0x34 }
  - { offsetInCU: 0x30FE4, offset: 0x4EB4E, size: 0x8, addend: 0x0, symName: __ZNSt3__15tupleIJNS_12basic_stringIcNS_11char_traitsIcEENS_9allocatorIcEEEES6_dEEC2ERKS7_, symObjAddr: 0x18FD8, symBinAddr: 0x10001FC60, symSize: 0x34 }
  - { offsetInCU: 0x31018, offset: 0x4EB82, size: 0x8, addend: 0x0, symName: __ZNSt3__112__tuple_implINS_15__tuple_indicesIJLm0ELm1ELm2EEEEJNS_12basic_stringIcNS_11char_traitsIcEENS_9allocatorIcEEEES8_dEEC1ERKS9_, symObjAddr: 0x1900C, symBinAddr: 0x10001FC94, symSize: 0x34 }
  - { offsetInCU: 0x3104C, offset: 0x4EBB6, size: 0x8, addend: 0x0, symName: __ZNSt3__112__tuple_implINS_15__tuple_indicesIJLm0ELm1ELm2EEEEJNS_12basic_stringIcNS_11char_traitsIcEENS_9allocatorIcEEEES8_dEEC2ERKS9_, symObjAddr: 0x19040, symBinAddr: 0x10001FCC8, symSize: 0x7C }
  - { offsetInCU: 0x31080, offset: 0x4EBEA, size: 0x8, addend: 0x0, symName: __ZNSt3__112__tuple_leafILm0ENS_12basic_stringIcNS_11char_traitsIcEENS_9allocatorIcEEEELb0EEC2B8ue170006ERKS7_, symObjAddr: 0x190BC, symBinAddr: 0x10001FD44, symSize: 0x34 }
  - { offsetInCU: 0x310B8, offset: 0x4EC22, size: 0x8, addend: 0x0, symName: __ZNSt3__112__tuple_leafILm1ENS_12basic_stringIcNS_11char_traitsIcEENS_9allocatorIcEEEELb0EEC2B8ue170006ERKS7_, symObjAddr: 0x190F0, symBinAddr: 0x10001FD78, symSize: 0x34 }
  - { offsetInCU: 0x310F0, offset: 0x4EC5A, size: 0x8, addend: 0x0, symName: __ZNSt3__16vectorINS_5tupleIJNS_12basic_stringIcNS_11char_traitsIcEENS_9allocatorIcEEEES7_dEEENS5_IS8_EEE21_ConstructTransactionD2B8ue170006Ev, symObjAddr: 0x19124, symBinAddr: 0x10001FDAC, symSize: 0x20 }
  - { offsetInCU: 0x31119, offset: 0x4EC83, size: 0x8, addend: 0x0, symName: __ZNKSt3__16vectorINS_5tupleIJNS_12basic_stringIcNS_11char_traitsIcEENS_9allocatorIcEEEES7_dEEENS5_IS8_EEE11__recommendB8ue170006Em, symObjAddr: 0x19144, symBinAddr: 0x10001FDCC, symSize: 0xB4 }
  - { offsetInCU: 0x3116C, offset: 0x4ECD6, size: 0x8, addend: 0x0, symName: __ZNSt3__114__split_bufferINS_5tupleIJNS_12basic_stringIcNS_11char_traitsIcEENS_9allocatorIcEEEES7_dEEERNS5_IS8_EEEC1EmmSA_, symObjAddr: 0x191F8, symBinAddr: 0x10001FE80, symSize: 0x44 }
  - { offsetInCU: 0x311C1, offset: 0x4ED2B, size: 0x8, addend: 0x0, symName: __ZNSt3__114__split_bufferINS_5tupleIJNS_12basic_stringIcNS_11char_traitsIcEENS_9allocatorIcEEEES7_dEEERNS5_IS8_EEED1Ev, symObjAddr: 0x1934C, symBinAddr: 0x10001FFD4, symSize: 0x2C }
  - { offsetInCU: 0x311EC, offset: 0x4ED56, size: 0x8, addend: 0x0, symName: __ZNKSt3__16vectorINS_5tupleIJNS_12basic_stringIcNS_11char_traitsIcEENS_9allocatorIcEEEES7_dEEENS5_IS8_EEE8max_sizeEv, symObjAddr: 0x19378, symBinAddr: 0x100020000, symSize: 0x60 }
  - { offsetInCU: 0x31212, offset: 0x4ED7C, size: 0x8, addend: 0x0, symName: __ZNKSt3__16vectorINS_5tupleIJNS_12basic_stringIcNS_11char_traitsIcEENS_9allocatorIcEEEES7_dEEENS5_IS8_EEE20__throw_length_errorB8ue170006Ev, symObjAddr: 0x193D8, symBinAddr: 0x100020060, symSize: 0x1C }
  - { offsetInCU: 0x31241, offset: 0x4EDAB, size: 0x8, addend: 0x0, symName: __ZNSt3__116allocator_traitsINS_9allocatorINS_5tupleIJNS_12basic_stringIcNS_11char_traitsIcEENS1_IcEEEES7_dEEEEEE8max_sizeB8ue170006IS9_vEEmRKS9_, symObjAddr: 0x193F4, symBinAddr: 0x10002007C, symSize: 0x24 }
  - { offsetInCU: 0x3126F, offset: 0x4EDD9, size: 0x8, addend: 0x0, symName: __ZNKSt3__16vectorINS_5tupleIJNS_12basic_stringIcNS_11char_traitsIcEENS_9allocatorIcEEEES7_dEEENS5_IS8_EEE7__allocB8ue170006Ev, symObjAddr: 0x19418, symBinAddr: 0x1000200A0, symSize: 0x28 }
  - { offsetInCU: 0x31294, offset: 0x4EDFE, size: 0x8, addend: 0x0, symName: __ZNKSt3__19allocatorINS_5tupleIJNS_12basic_stringIcNS_11char_traitsIcEENS0_IcEEEES6_dEEEE8max_sizeB8ue170006Ev, symObjAddr: 0x19440, symBinAddr: 0x1000200C8, symSize: 0x20 }
  - { offsetInCU: 0x312B9, offset: 0x4EE23, size: 0x8, addend: 0x0, symName: __ZNKSt3__117__compressed_pairIPNS_5tupleIJNS_12basic_stringIcNS_11char_traitsIcEENS_9allocatorIcEEEES7_dEEENS5_IS8_EEE6secondB8ue170006Ev, symObjAddr: 0x19460, symBinAddr: 0x1000200E8, symSize: 0x24 }
  - { offsetInCU: 0x312DE, offset: 0x4EE48, size: 0x8, addend: 0x0, symName: __ZNKSt3__122__compressed_pair_elemINS_9allocatorINS_5tupleIJNS_12basic_stringIcNS_11char_traitsIcEENS1_IcEEEES7_dEEEEELi1ELb1EE5__getB8ue170006Ev, symObjAddr: 0x19484, symBinAddr: 0x10002010C, symSize: 0x14 }
  - { offsetInCU: 0x31303, offset: 0x4EE6D, size: 0x8, addend: 0x0, symName: __ZNSt3__114__split_bufferINS_5tupleIJNS_12basic_stringIcNS_11char_traitsIcEENS_9allocatorIcEEEES7_dEEERNS5_IS8_EEEC2EmmSA_, symObjAddr: 0x19498, symBinAddr: 0x100020120, symSize: 0xE0 }
  - { offsetInCU: 0x31376, offset: 0x4EEE0, size: 0x8, addend: 0x0, symName: __ZNSt3__117__compressed_pairIPNS_5tupleIJNS_12basic_stringIcNS_11char_traitsIcEENS_9allocatorIcEEEES7_dEEERNS5_IS8_EEEC1B8ue170006IDnSB_EEOT_OT0_, symObjAddr: 0x19578, symBinAddr: 0x100020200, symSize: 0x3C }
  - { offsetInCU: 0x313CD, offset: 0x4EF37, size: 0x8, addend: 0x0, symName: __ZNSt3__114__split_bufferINS_5tupleIJNS_12basic_stringIcNS_11char_traitsIcEENS_9allocatorIcEEEES7_dEEERNS5_IS8_EEE7__allocB8ue170006Ev, symObjAddr: 0x195F4, symBinAddr: 0x10002027C, symSize: 0x28 }
  - { offsetInCU: 0x313F2, offset: 0x4EF5C, size: 0x8, addend: 0x0, symName: __ZNSt3__114__split_bufferINS_5tupleIJNS_12basic_stringIcNS_11char_traitsIcEENS_9allocatorIcEEEES7_dEEERNS5_IS8_EEE9__end_capB8ue170006Ev, symObjAddr: 0x1961C, symBinAddr: 0x1000202A4, symSize: 0x28 }
  - { offsetInCU: 0x31417, offset: 0x4EF81, size: 0x8, addend: 0x0, symName: __ZNSt3__117__compressed_pairIPNS_5tupleIJNS_12basic_stringIcNS_11char_traitsIcEENS_9allocatorIcEEEES7_dEEERNS5_IS8_EEEC2B8ue170006IDnSB_EEOT_OT0_, symObjAddr: 0x19644, symBinAddr: 0x1000202CC, symSize: 0x48 }
  - { offsetInCU: 0x3146E, offset: 0x4EFD8, size: 0x8, addend: 0x0, symName: __ZNSt3__122__compressed_pair_elemIRNS_9allocatorINS_5tupleIJNS_12basic_stringIcNS_11char_traitsIcEENS1_IcEEEES7_dEEEEELi1ELb0EEC2B8ue170006ISA_vEEOT_, symObjAddr: 0x1968C, symBinAddr: 0x100020314, symSize: 0x20 }
  - { offsetInCU: 0x314AF, offset: 0x4F019, size: 0x8, addend: 0x0, symName: __ZNSt3__19allocatorINS_5tupleIJNS_12basic_stringIcNS_11char_traitsIcEENS0_IcEEEES6_dEEEE8allocateB8ue170006Em, symObjAddr: 0x196AC, symBinAddr: 0x100020334, symSize: 0x5C }
  - { offsetInCU: 0x314E2, offset: 0x4F04C, size: 0x8, addend: 0x0, symName: __ZNSt3__117__compressed_pairIPNS_5tupleIJNS_12basic_stringIcNS_11char_traitsIcEENS_9allocatorIcEEEES7_dEEERNS5_IS8_EEE6secondB8ue170006Ev, symObjAddr: 0x19708, symBinAddr: 0x100020390, symSize: 0x28 }
  - { offsetInCU: 0x31507, offset: 0x4F071, size: 0x8, addend: 0x0, symName: __ZNSt3__122__compressed_pair_elemIRNS_9allocatorINS_5tupleIJNS_12basic_stringIcNS_11char_traitsIcEENS1_IcEEEES7_dEEEEELi1ELb0EE5__getB8ue170006Ev, symObjAddr: 0x19730, symBinAddr: 0x1000203B8, symSize: 0x18 }
  - { offsetInCU: 0x3152C, offset: 0x4F096, size: 0x8, addend: 0x0, symName: __ZNSt3__117__compressed_pairIPNS_5tupleIJNS_12basic_stringIcNS_11char_traitsIcEENS_9allocatorIcEEEES7_dEEERNS5_IS8_EEE5firstB8ue170006Ev, symObjAddr: 0x19748, symBinAddr: 0x1000203D0, symSize: 0x24 }
  - { offsetInCU: 0x31551, offset: 0x4F0BB, size: 0x8, addend: 0x0, symName: __ZNSt3__116reverse_iteratorIPNS_5tupleIJNS_12basic_stringIcNS_11char_traitsIcEENS_9allocatorIcEEEES7_dEEEEC1B8ue170006ES9_, symObjAddr: 0x19898, symBinAddr: 0x100020520, symSize: 0x34 }
  - { offsetInCU: 0x31588, offset: 0x4F0F2, size: 0x8, addend: 0x0, symName: __ZNKSt3__116reverse_iteratorIPNS_5tupleIJNS_12basic_stringIcNS_11char_traitsIcEENS_9allocatorIcEEEES7_dEEEE4baseB8ue170006Ev, symObjAddr: 0x198CC, symBinAddr: 0x100020554, symSize: 0x18 }
  - { offsetInCU: 0x315AD, offset: 0x4F117, size: 0x8, addend: 0x0, symName: __ZNKSt3__16vectorINS_5tupleIJNS_12basic_stringIcNS_11char_traitsIcEENS_9allocatorIcEEEES7_dEEENS5_IS8_EEE14__annotate_newB8ue170006Em, symObjAddr: 0x19920, symBinAddr: 0x1000205A8, symSize: 0xC8 }
  - { offsetInCU: 0x315E1, offset: 0x4F14B, size: 0x8, addend: 0x0, symName: __ZNSt3__129_AllocatorDestroyRangeReverseINS_9allocatorINS_5tupleIJNS_12basic_stringIcNS_11char_traitsIcEENS1_IcEEEES7_dEEEEENS_16reverse_iteratorIPS8_EEEC1B8ue170006ERS9_RSC_SF_, symObjAddr: 0x19A34, symBinAddr: 0x1000206BC, symSize: 0x44 }
  - { offsetInCU: 0x31637, offset: 0x4F1A1, size: 0x8, addend: 0x0, symName: __ZNSt3__116allocator_traitsINS_9allocatorINS_5tupleIJNS_12basic_stringIcNS_11char_traitsIcEENS1_IcEEEES7_dEEEEEE9constructB8ue170006IS8_JS8_EvEEvRS9_PT_DpOT0_, symObjAddr: 0x19AC0, symBinAddr: 0x100020748, symSize: 0x34 }
  - { offsetInCU: 0x3168E, offset: 0x4F1F8, size: 0x8, addend: 0x0, symName: __ZNKSt3__116reverse_iteratorIPNS_5tupleIJNS_12basic_stringIcNS_11char_traitsIcEENS_9allocatorIcEEEES7_dEEEEdeB8ue170006Ev, symObjAddr: 0x19B18, symBinAddr: 0x1000207A0, symSize: 0x28 }
  - { offsetInCU: 0x316C1, offset: 0x4F22B, size: 0x8, addend: 0x0, symName: __ZNSt3__116reverse_iteratorIPNS_5tupleIJNS_12basic_stringIcNS_11char_traitsIcEENS_9allocatorIcEEEES7_dEEEEppB8ue170006Ev, symObjAddr: 0x19B40, symBinAddr: 0x1000207C8, symSize: 0x20 }
  - { offsetInCU: 0x316E6, offset: 0x4F250, size: 0x8, addend: 0x0, symName: __ZNSt3__128__exception_guard_exceptionsINS_29_AllocatorDestroyRangeReverseINS_9allocatorINS_5tupleIJNS_12basic_stringIcNS_11char_traitsIcEENS2_IcEEEES8_dEEEEENS_16reverse_iteratorIPS9_EEEEE10__completeB8ue170006Ev, symObjAddr: 0x19B60, symBinAddr: 0x1000207E8, symSize: 0x1C }
  - { offsetInCU: 0x3170B, offset: 0x4F275, size: 0x8, addend: 0x0, symName: __ZNSt3__128__exception_guard_exceptionsINS_29_AllocatorDestroyRangeReverseINS_9allocatorINS_5tupleIJNS_12basic_stringIcNS_11char_traitsIcEENS2_IcEEEES8_dEEEEENS_16reverse_iteratorIPS9_EEEEED1B8ue170006Ev, symObjAddr: 0x19B7C, symBinAddr: 0x100020804, symSize: 0x2C }
  - { offsetInCU: 0x31734, offset: 0x4F29E, size: 0x8, addend: 0x0, symName: __ZNSt3__128__exception_guard_exceptionsINS_29_AllocatorDestroyRangeReverseINS_9allocatorINS_5tupleIJNS_12basic_stringIcNS_11char_traitsIcEENS2_IcEEEES8_dEEEEENS_16reverse_iteratorIPS9_EEEEEC1B8ue170006ESE_, symObjAddr: 0x19BA8, symBinAddr: 0x100020830, symSize: 0x34 }
  - { offsetInCU: 0x3176C, offset: 0x4F2D6, size: 0x8, addend: 0x0, symName: __ZNSt3__128__exception_guard_exceptionsINS_29_AllocatorDestroyRangeReverseINS_9allocatorINS_5tupleIJNS_12basic_stringIcNS_11char_traitsIcEENS2_IcEEEES8_dEEEEENS_16reverse_iteratorIPS9_EEEEEC2B8ue170006ESE_, symObjAddr: 0x19BDC, symBinAddr: 0x100020864, symSize: 0x30 }
  - { offsetInCU: 0x317A4, offset: 0x4F30E, size: 0x8, addend: 0x0, symName: __ZNSt3__129_AllocatorDestroyRangeReverseINS_9allocatorINS_5tupleIJNS_12basic_stringIcNS_11char_traitsIcEENS1_IcEEEES7_dEEEEENS_16reverse_iteratorIPS8_EEEC2B8ue170006ERS9_RSC_SF_, symObjAddr: 0x19C0C, symBinAddr: 0x100020894, symSize: 0x38 }
  - { offsetInCU: 0x317FA, offset: 0x4F364, size: 0x8, addend: 0x0, symName: __ZNSt3__19allocatorINS_5tupleIJNS_12basic_stringIcNS_11char_traitsIcEENS0_IcEEEES6_dEEEE9constructB8ue170006IS7_JS7_EEEvPT_DpOT0_, symObjAddr: 0x19C44, symBinAddr: 0x1000208CC, symSize: 0x30 }
  - { offsetInCU: 0x3184F, offset: 0x4F3B9, size: 0x8, addend: 0x0, symName: __ZNSt3__15tupleIJNS_12basic_stringIcNS_11char_traitsIcEENS_9allocatorIcEEEES6_dEEC1EOS7_, symObjAddr: 0x19C74, symBinAddr: 0x1000208FC, symSize: 0x34 }
  - { offsetInCU: 0x31883, offset: 0x4F3ED, size: 0x8, addend: 0x0, symName: __ZNSt3__15tupleIJNS_12basic_stringIcNS_11char_traitsIcEENS_9allocatorIcEEEES6_dEEC2EOS7_, symObjAddr: 0x19CA8, symBinAddr: 0x100020930, symSize: 0x34 }
  - { offsetInCU: 0x318B7, offset: 0x4F421, size: 0x8, addend: 0x0, symName: __ZNSt3__112__tuple_implINS_15__tuple_indicesIJLm0ELm1ELm2EEEEJNS_12basic_stringIcNS_11char_traitsIcEENS_9allocatorIcEEEES8_dEEC1EOS9_, symObjAddr: 0x19CDC, symBinAddr: 0x100020964, symSize: 0x34 }
  - { offsetInCU: 0x318EB, offset: 0x4F455, size: 0x8, addend: 0x0, symName: __ZNSt3__112__tuple_implINS_15__tuple_indicesIJLm0ELm1ELm2EEEEJNS_12basic_stringIcNS_11char_traitsIcEENS_9allocatorIcEEEES8_dEEC2EOS9_, symObjAddr: 0x19D10, symBinAddr: 0x100020998, symSize: 0x54 }
  - { offsetInCU: 0x3191F, offset: 0x4F489, size: 0x8, addend: 0x0, symName: __ZNSt3__112__tuple_leafILm0ENS_12basic_stringIcNS_11char_traitsIcEENS_9allocatorIcEEEELb0EEC2B8ue170006EOS7_, symObjAddr: 0x19D64, symBinAddr: 0x1000209EC, symSize: 0x34 }
  - { offsetInCU: 0x31957, offset: 0x4F4C1, size: 0x8, addend: 0x0, symName: __ZNSt3__112__tuple_leafILm1ENS_12basic_stringIcNS_11char_traitsIcEENS_9allocatorIcEEEELb0EEC2B8ue170006EOS7_, symObjAddr: 0x19D98, symBinAddr: 0x100020A20, symSize: 0x34 }
  - { offsetInCU: 0x31994, offset: 0x4F4FE, size: 0x8, addend: 0x0, symName: __ZNSt3__119__to_address_helperINS_16reverse_iteratorIPNS_5tupleIJNS_12basic_stringIcNS_11char_traitsIcEENS_9allocatorIcEEEES8_dEEEEEvE6__callB8ue170006ERKSB_, symObjAddr: 0x19DCC, symBinAddr: 0x100020A54, symSize: 0x38 }
  - { offsetInCU: 0x319B7, offset: 0x4F521, size: 0x8, addend: 0x0, symName: __ZNKSt3__116reverse_iteratorIPNS_5tupleIJNS_12basic_stringIcNS_11char_traitsIcEENS_9allocatorIcEEEES7_dEEEEptB8ue170006Ev, symObjAddr: 0x19E04, symBinAddr: 0x100020A8C, symSize: 0x24 }
  - { offsetInCU: 0x319DC, offset: 0x4F546, size: 0x8, addend: 0x0, symName: __ZNSt3__128__exception_guard_exceptionsINS_29_AllocatorDestroyRangeReverseINS_9allocatorINS_5tupleIJNS_12basic_stringIcNS_11char_traitsIcEENS2_IcEEEES8_dEEEEENS_16reverse_iteratorIPS9_EEEEED2B8ue170006Ev, symObjAddr: 0x19E28, symBinAddr: 0x100020AB0, symSize: 0x50 }
  - { offsetInCU: 0x31A05, offset: 0x4F56F, size: 0x8, addend: 0x0, symName: __ZNKSt3__129_AllocatorDestroyRangeReverseINS_9allocatorINS_5tupleIJNS_12basic_stringIcNS_11char_traitsIcEENS1_IcEEEES7_dEEEEENS_16reverse_iteratorIPS8_EEEclB8ue170006Ev, symObjAddr: 0x19E78, symBinAddr: 0x100020B00, symSize: 0xB4 }
  - { offsetInCU: 0x31A2B, offset: 0x4F595, size: 0x8, addend: 0x0, symName: __ZNSt3__116reverse_iteratorINS0_IPNS_5tupleIJNS_12basic_stringIcNS_11char_traitsIcEENS_9allocatorIcEEEES7_dEEEEEEC1B8ue170006ESA_, symObjAddr: 0x19F9C, symBinAddr: 0x100020C24, symSize: 0x3C }
  - { offsetInCU: 0x31A62, offset: 0x4F5CC, size: 0x8, addend: 0x0, symName: __ZNSt3__116reverse_iteratorINS0_IPNS_5tupleIJNS_12basic_stringIcNS_11char_traitsIcEENS_9allocatorIcEEEES7_dEEEEEEppB8ue170006Ev, symObjAddr: 0x1A05C, symBinAddr: 0x100020CE4, symSize: 0x30 }
  - { offsetInCU: 0x31A87, offset: 0x4F5F1, size: 0x8, addend: 0x0, symName: __ZNKSt3__116reverse_iteratorINS0_IPNS_5tupleIJNS_12basic_stringIcNS_11char_traitsIcEENS_9allocatorIcEEEES7_dEEEEEE4baseB8ue170006Ev, symObjAddr: 0x1A08C, symBinAddr: 0x100020D14, symSize: 0x24 }
  - { offsetInCU: 0x31AB1, offset: 0x4F61B, size: 0x8, addend: 0x0, symName: __ZNSt3__119__to_address_helperINS_16reverse_iteratorINS1_IPNS_5tupleIJNS_12basic_stringIcNS_11char_traitsIcEENS_9allocatorIcEEEES8_dEEEEEEEvE6__callB8ue170006ERKSC_, symObjAddr: 0x1A0B0, symBinAddr: 0x100020D38, symSize: 0x38 }
  - { offsetInCU: 0x31AD4, offset: 0x4F63E, size: 0x8, addend: 0x0, symName: __ZNKSt3__116reverse_iteratorINS0_IPNS_5tupleIJNS_12basic_stringIcNS_11char_traitsIcEENS_9allocatorIcEEEES7_dEEEEEEptB8ue170006Ev, symObjAddr: 0x1A0E8, symBinAddr: 0x100020D70, symSize: 0x24 }
  - { offsetInCU: 0x31AF9, offset: 0x4F663, size: 0x8, addend: 0x0, symName: __ZNKSt3__116reverse_iteratorINS0_IPNS_5tupleIJNS_12basic_stringIcNS_11char_traitsIcEENS_9allocatorIcEEEES7_dEEEEEEdeB8ue170006Ev, symObjAddr: 0x1A10C, symBinAddr: 0x100020D94, symSize: 0x34 }
  - { offsetInCU: 0x31B2C, offset: 0x4F696, size: 0x8, addend: 0x0, symName: __ZNSt3__116reverse_iteratorIPNS_5tupleIJNS_12basic_stringIcNS_11char_traitsIcEENS_9allocatorIcEEEES7_dEEEEmmB8ue170006Ev, symObjAddr: 0x1A140, symBinAddr: 0x100020DC8, symSize: 0x20 }
  - { offsetInCU: 0x31B51, offset: 0x4F6BB, size: 0x8, addend: 0x0, symName: __ZNSt3__116reverse_iteratorINS0_IPNS_5tupleIJNS_12basic_stringIcNS_11char_traitsIcEENS_9allocatorIcEEEES7_dEEEEEEC2B8ue170006ESA_, symObjAddr: 0x1A160, symBinAddr: 0x100020DE8, symSize: 0x2C }
  - { offsetInCU: 0x31B88, offset: 0x4F6F2, size: 0x8, addend: 0x0, symName: __ZNSt3__116reverse_iteratorIPNS_5tupleIJNS_12basic_stringIcNS_11char_traitsIcEENS_9allocatorIcEEEES7_dEEEEC2B8ue170006ES9_, symObjAddr: 0x1A18C, symBinAddr: 0x100020E14, symSize: 0x28 }
  - { offsetInCU: 0x31BBF, offset: 0x4F729, size: 0x8, addend: 0x0, symName: __ZNSt3__114__split_bufferINS_5tupleIJNS_12basic_stringIcNS_11char_traitsIcEENS_9allocatorIcEEEES7_dEEERNS5_IS8_EEED2Ev, symObjAddr: 0x1A1B4, symBinAddr: 0x100020E3C, symSize: 0x8C }
  - { offsetInCU: 0x31BEA, offset: 0x4F754, size: 0x8, addend: 0x0, symName: __ZNSt3__114__split_bufferINS_5tupleIJNS_12basic_stringIcNS_11char_traitsIcEENS_9allocatorIcEEEES7_dEEERNS5_IS8_EEE5clearB8ue170006Ev, symObjAddr: 0x1A240, symBinAddr: 0x100020EC8, symSize: 0x28 }
  - { offsetInCU: 0x31C0F, offset: 0x4F779, size: 0x8, addend: 0x0, symName: __ZNKSt3__114__split_bufferINS_5tupleIJNS_12basic_stringIcNS_11char_traitsIcEENS_9allocatorIcEEEES7_dEEERNS5_IS8_EEE8capacityB8ue170006Ev, symObjAddr: 0x1A268, symBinAddr: 0x100020EF0, symSize: 0x40 }
  - { offsetInCU: 0x31C34, offset: 0x4F79E, size: 0x8, addend: 0x0, symName: __ZNSt3__114__split_bufferINS_5tupleIJNS_12basic_stringIcNS_11char_traitsIcEENS_9allocatorIcEEEES7_dEEERNS5_IS8_EEE17__destruct_at_endB8ue170006EPS8_, symObjAddr: 0x1A2A8, symBinAddr: 0x100020F30, symSize: 0x2C }
  - { offsetInCU: 0x31C67, offset: 0x4F7D1, size: 0x8, addend: 0x0, symName: __ZNSt3__114__split_bufferINS_5tupleIJNS_12basic_stringIcNS_11char_traitsIcEENS_9allocatorIcEEEES7_dEEERNS5_IS8_EEE17__destruct_at_endB8ue170006EPS8_NS_17integral_constantIbLb0EEE, symObjAddr: 0x1A2D4, symBinAddr: 0x100020F5C, symSize: 0x80 }
  - { offsetInCU: 0x31CA6, offset: 0x4F810, size: 0x8, addend: 0x0, symName: __ZNKSt3__114__split_bufferINS_5tupleIJNS_12basic_stringIcNS_11char_traitsIcEENS_9allocatorIcEEEES7_dEEERNS5_IS8_EEE9__end_capB8ue170006Ev, symObjAddr: 0x1A354, symBinAddr: 0x100020FDC, symSize: 0x28 }
  - { offsetInCU: 0x31CCB, offset: 0x4F835, size: 0x8, addend: 0x0, symName: __ZNKSt3__117__compressed_pairIPNS_5tupleIJNS_12basic_stringIcNS_11char_traitsIcEENS_9allocatorIcEEEES7_dEEERNS5_IS8_EEE5firstB8ue170006Ev, symObjAddr: 0x1A37C, symBinAddr: 0x100021004, symSize: 0x24 }
  - { offsetInCU: 0x31CF0, offset: 0x4F85A, size: 0x8, addend: 0x0, symName: __ZNSt3__15tupleIJNS_12basic_stringIcNS_11char_traitsIcEENS_9allocatorIcEEEES6_iEEC1B8ue170006IJRKS6_SA_iELi0EEEDpOT_, symObjAddr: 0x1A3A0, symBinAddr: 0x100021028, symSize: 0x44 }
  - { offsetInCU: 0x31D61, offset: 0x4F8CB, size: 0x8, addend: 0x0, symName: __ZNSt3__15tupleIJNS_12basic_stringIcNS_11char_traitsIcEENS_9allocatorIcEEEES6_iEEC2B8ue170006IJRKS6_SA_iELi0EEEDpOT_, symObjAddr: 0x1A3E4, symBinAddr: 0x10002106C, symSize: 0x44 }
  - { offsetInCU: 0x31DD2, offset: 0x4F93C, size: 0x8, addend: 0x0, symName: __ZNSt3__112__tuple_implINS_15__tuple_indicesIJLm0ELm1ELm2EEEEJNS_12basic_stringIcNS_11char_traitsIcEENS_9allocatorIcEEEES8_iEEC1B8ue170006IJLm0ELm1ELm2EEJS8_S8_iEJEJEJRKS8_SC_iEEENS1_IJXspT_EEEENS_13__tuple_typesIJDpT0_EEENS1_IJXspT1_EEEENSE_IJDpT2_EEEDpOT3_, symObjAddr: 0x1A428, symBinAddr: 0x1000210B0, symSize: 0x44 }
  - { offsetInCU: 0x31EA0, offset: 0x4FA0A, size: 0x8, addend: 0x0, symName: __ZNSt3__112__tuple_implINS_15__tuple_indicesIJLm0ELm1ELm2EEEEJNS_12basic_stringIcNS_11char_traitsIcEENS_9allocatorIcEEEES8_iEEC2B8ue170006IJLm0ELm1ELm2EEJS8_S8_iEJEJEJRKS8_SC_iEEENS1_IJXspT_EEEENS_13__tuple_typesIJDpT0_EEENS1_IJXspT1_EEEENSE_IJDpT2_EEEDpOT3_, symObjAddr: 0x1A46C, symBinAddr: 0x1000210F4, symSize: 0x84 }
  - { offsetInCU: 0x31F6E, offset: 0x4FAD8, size: 0x8, addend: 0x0, symName: __ZNSt3__112__tuple_leafILm0ENS_12basic_stringIcNS_11char_traitsIcEENS_9allocatorIcEEEELb0EEC2B8ue170006IRKS6_vEEOT_, symObjAddr: 0x1A4F0, symBinAddr: 0x100021178, symSize: 0x34 }
  - { offsetInCU: 0x31FB0, offset: 0x4FB1A, size: 0x8, addend: 0x0, symName: __ZNSt3__112__tuple_leafILm1ENS_12basic_stringIcNS_11char_traitsIcEENS_9allocatorIcEEEELb0EEC2B8ue170006IRKS6_vEEOT_, symObjAddr: 0x1A524, symBinAddr: 0x1000211AC, symSize: 0x34 }
  - { offsetInCU: 0x31FF2, offset: 0x4FB5C, size: 0x8, addend: 0x0, symName: __ZNSt3__112__tuple_leafILm2EiLb0EEC2B8ue170006IivEEOT_, symObjAddr: 0x1A558, symBinAddr: 0x1000211E0, symSize: 0x24 }
  - { offsetInCU: 0x32034, offset: 0x4FB9E, size: 0x8, addend: 0x0, symName: __ZNSt3__16vectorINS_5tupleIJNS_12basic_stringIcNS_11char_traitsIcEENS_9allocatorIcEEEES7_dEEENS5_IS8_EEE22__construct_one_at_endB8ue170006IJS8_EEEvDpOT_, symObjAddr: 0x1A57C, symBinAddr: 0x100021204, symSize: 0x90 }
  - { offsetInCU: 0x32082, offset: 0x4FBEC, size: 0x8, addend: 0x0, symName: __ZNSt3__16vectorINS_5tupleIJNS_12basic_stringIcNS_11char_traitsIcEENS_9allocatorIcEEEES7_dEEENS5_IS8_EEE21__push_back_slow_pathIS8_EEvOT_, symObjAddr: 0x1A60C, symBinAddr: 0x100021294, symSize: 0xD8 }
  - { offsetInCU: 0x320DE, offset: 0x4FC48, size: 0x8, addend: 0x0, symName: __ZNSt3__15tupleIJNS_12basic_stringIcNS_11char_traitsIcEENS_9allocatorIcEEEES6_dEEC2B8ue170006IJS6_S6_iELi0EEEONS0_IJDpT_EEE, symObjAddr: 0x1A6E4, symBinAddr: 0x10002136C, symSize: 0x34 }
  - { offsetInCU: 0x32131, offset: 0x4FC9B, size: 0x8, addend: 0x0, symName: __ZNSt3__112__tuple_implINS_15__tuple_indicesIJLm0ELm1ELm2EEEEJNS_12basic_stringIcNS_11char_traitsIcEENS_9allocatorIcEEEES8_dEEC1B8ue170006INS_5tupleIJS8_S8_iEEEvEEOT_, symObjAddr: 0x1A718, symBinAddr: 0x1000213A0, symSize: 0x34 }
  - { offsetInCU: 0x32173, offset: 0x4FCDD, size: 0x8, addend: 0x0, symName: __ZNSt3__112__tuple_implINS_15__tuple_indicesIJLm0ELm1ELm2EEEEJNS_12basic_stringIcNS_11char_traitsIcEENS_9allocatorIcEEEES8_dEEC2B8ue170006INS_5tupleIJS8_S8_iEEEvEEOT_, symObjAddr: 0x1A74C, symBinAddr: 0x1000213D4, symSize: 0x70 }
  - { offsetInCU: 0x321B5, offset: 0x4FD1F, size: 0x8, addend: 0x0, symName: __ZNSt3__112__tuple_leafILm0ENS_12basic_stringIcNS_11char_traitsIcEENS_9allocatorIcEEEELb0EEC2B8ue170006IS6_vEEOT_, symObjAddr: 0x1A7E0, symBinAddr: 0x100021468, symSize: 0x34 }
  - { offsetInCU: 0x321F7, offset: 0x4FD61, size: 0x8, addend: 0x0, symName: __ZNSt3__112__tuple_leafILm1ENS_12basic_stringIcNS_11char_traitsIcEENS_9allocatorIcEEEELb0EEC2B8ue170006IS6_vEEOT_, symObjAddr: 0x1A83C, symBinAddr: 0x1000214C4, symSize: 0x34 }
  - { offsetInCU: 0x32239, offset: 0x4FDA3, size: 0x8, addend: 0x0, symName: __ZNSt3__112__tuple_leafILm2EdLb0EEC2B8ue170006IivEEOT_, symObjAddr: 0x1A898, symBinAddr: 0x100021520, symSize: 0x30 }
  - { offsetInCU: 0x3227B, offset: 0x4FDE5, size: 0x8, addend: 0x0, symName: __ZNSt3__112__tuple_leafILm0ENS_12basic_stringIcNS_11char_traitsIcEENS_9allocatorIcEEEELb0EE3getB8ue170006Ev, symObjAddr: 0x1A8C8, symBinAddr: 0x100021550, symSize: 0x14 }
  - { offsetInCU: 0x322A0, offset: 0x4FE0A, size: 0x8, addend: 0x0, symName: __ZNSt3__112__tuple_leafILm1ENS_12basic_stringIcNS_11char_traitsIcEENS_9allocatorIcEEEELb0EE3getB8ue170006Ev, symObjAddr: 0x1A8DC, symBinAddr: 0x100021564, symSize: 0x14 }
  - { offsetInCU: 0x322C5, offset: 0x4FE2F, size: 0x8, addend: 0x0, symName: __ZNSt3__112__tuple_leafILm2EiLb0EE3getB8ue170006Ev, symObjAddr: 0x1A8F0, symBinAddr: 0x100021578, symSize: 0x14 }
  - { offsetInCU: 0x322EA, offset: 0x4FE54, size: 0x8, addend: 0x0, symName: __ZNSt3__111__wrap_iterIPNS_5tupleIJNS_12basic_stringIcNS_11char_traitsIcEENS_9allocatorIcEEEES7_dEEEEmmB8ue170006Ev, symObjAddr: 0x1AABC, symBinAddr: 0x10002168C, symSize: 0x20 }
  - { offsetInCU: 0x3230F, offset: 0x4FE79, size: 0x8, addend: 0x0, symName: __ZNSt3__18_IterOpsINS_17_ClassicAlgPolicyEE9iter_swapB8ue170006IRNS_11__wrap_iterIPNS_5tupleIJNS_12basic_stringIcNS_11char_traitsIcEENS_9allocatorIcEEEESB_dEEEEESF_EEvOT_OT0_, symObjAddr: 0x1AADC, symBinAddr: 0x1000216AC, symSize: 0x44 }
  - { offsetInCU: 0x32352, offset: 0x4FEBC, size: 0x8, addend: 0x0, symName: __ZNSt3__15tupleIJNS_12basic_stringIcNS_11char_traitsIcEENS_9allocatorIcEEEES6_dEE4swapB8ue170006ERS7_, symObjAddr: 0x1AC34, symBinAddr: 0x10002176C, symSize: 0x2C }
  - { offsetInCU: 0x32386, offset: 0x4FEF0, size: 0x8, addend: 0x0, symName: __ZNSt3__112__tuple_implINS_15__tuple_indicesIJLm0ELm1ELm2EEEEJNS_12basic_stringIcNS_11char_traitsIcEENS_9allocatorIcEEEES8_dEE4swapB8ue170006ERS9_, symObjAddr: 0x1AC60, symBinAddr: 0x100021798, symSize: 0x88 }
  - { offsetInCU: 0x323BA, offset: 0x4FF24, size: 0x8, addend: 0x0, symName: __ZNSt3__112__tuple_leafILm0ENS_12basic_stringIcNS_11char_traitsIcEENS_9allocatorIcEEEELb0EE4swapB8ue170006ERS7_, symObjAddr: 0x1AD00, symBinAddr: 0x100021838, symSize: 0x30 }
  - { offsetInCU: 0x323EE, offset: 0x4FF58, size: 0x8, addend: 0x0, symName: __ZNSt3__112__tuple_leafILm1ENS_12basic_stringIcNS_11char_traitsIcEENS_9allocatorIcEEEELb0EE4swapB8ue170006ERS7_, symObjAddr: 0x1AD30, symBinAddr: 0x100021868, symSize: 0x30 }
  - { offsetInCU: 0x32422, offset: 0x4FF8C, size: 0x8, addend: 0x0, symName: __ZNSt3__112__tuple_leafILm2EdLb0EE4swapB8ue170006ERS1_, symObjAddr: 0x1AD60, symBinAddr: 0x100021898, symSize: 0x30 }
  - { offsetInCU: 0x32456, offset: 0x4FFC0, size: 0x8, addend: 0x0, symName: __ZNSt3__112__tuple_leafILm2EdLb0EE3getB8ue170006Ev, symObjAddr: 0x1AE8C, symBinAddr: 0x1000219C4, symSize: 0x14 }
  - { offsetInCU: 0x3247B, offset: 0x4FFE5, size: 0x8, addend: 0x0, symName: __ZNSt3__14pairIdNS_12basic_stringIcNS_11char_traitsIcEENS_9allocatorIcEEEEEC2B8ue170006IRdRKS6_LPv0EEEOT_OT0_, symObjAddr: 0x1AEA0, symBinAddr: 0x1000219D8, symSize: 0x48 }
  - { offsetInCU: 0x324D8, offset: 0x50042, size: 0x8, addend: 0x0, symName: __ZNSt3__112__hash_tableINS_17__hash_value_typeINS_12basic_stringIcNS_11char_traitsIcEENS_9allocatorIcEEEEbEENS_22__unordered_map_hasherIS7_S8_NS_4hashIS7_EENS_8equal_toIS7_EELb1EEENS_21__unordered_map_equalIS7_S8_SD_SB_Lb1EEENS5_IS8_EEE25__emplace_unique_key_argsIS7_JRKNS_21piecewise_construct_tENS_5tupleIJRKS7_EEENSN_IJEEEEEENS_4pairINS_15__hash_iteratorIPNS_11__hash_nodeIS8_PvEEEEbEERKT_DpOT0_, symObjAddr: 0x1AEE8, symBinAddr: 0x100021A20, symSize: 0x4CC }
  - { offsetInCU: 0x325E0, offset: 0x5014A, size: 0x8, addend: 0x0, symName: __ZNKSt3__115__hash_iteratorIPNS_11__hash_nodeINS_17__hash_value_typeINS_12basic_stringIcNS_11char_traitsIcEENS_9allocatorIcEEEEbEEPvEEEptB8ue170006Ev, symObjAddr: 0x1B3B4, symBinAddr: 0x100021EEC, symSize: 0x30 }
  - { offsetInCU: 0x32605, offset: 0x5016F, size: 0x8, addend: 0x0, symName: __ZNSt3__117__hash_value_typeINS_12basic_stringIcNS_11char_traitsIcEENS_9allocatorIcEEEEbE11__get_valueB8ue170006Ev, symObjAddr: 0x1B3E4, symBinAddr: 0x100021F1C, symSize: 0x14 }
  - { offsetInCU: 0x3262A, offset: 0x50194, size: 0x8, addend: 0x0, symName: __ZNSt3__112__hash_tableINS_17__hash_value_typeINS_12basic_stringIcNS_11char_traitsIcEENS_9allocatorIcEEEEbEENS_22__unordered_map_hasherIS7_S8_NS_4hashIS7_EENS_8equal_toIS7_EELb1EEENS_21__unordered_map_equalIS7_S8_SD_SB_Lb1EEENS5_IS8_EEE13hash_functionB8ue170006Ev, symObjAddr: 0x1B3F8, symBinAddr: 0x100021F30, symSize: 0x28 }
  - { offsetInCU: 0x3264F, offset: 0x501B9, size: 0x8, addend: 0x0, symName: __ZNKSt3__122__unordered_map_hasherINS_12basic_stringIcNS_11char_traitsIcEENS_9allocatorIcEEEENS_17__hash_value_typeIS6_bEENS_4hashIS6_EENS_8equal_toIS6_EELb1EEclB8ue170006ERKS6_, symObjAddr: 0x1B420, symBinAddr: 0x100021F58, symSize: 0x2C }
  - { offsetInCU: 0x32683, offset: 0x501ED, size: 0x8, addend: 0x0, symName: __ZNKSt3__112__hash_tableINS_17__hash_value_typeINS_12basic_stringIcNS_11char_traitsIcEENS_9allocatorIcEEEEbEENS_22__unordered_map_hasherIS7_S8_NS_4hashIS7_EENS_8equal_toIS7_EELb1EEENS_21__unordered_map_equalIS7_S8_SD_SB_Lb1EEENS5_IS8_EEE12bucket_countB8ue170006Ev, symObjAddr: 0x1B44C, symBinAddr: 0x100021F84, symSize: 0x28 }
  - { offsetInCU: 0x326A8, offset: 0x50212, size: 0x8, addend: 0x0, symName: __ZNKSt3__110unique_ptrIA_PNS_16__hash_node_baseIPNS_11__hash_nodeINS_17__hash_value_typeINS_12basic_stringIcNS_11char_traitsIcEENS_9allocatorIcEEEEbEEPvEEEENS_25__bucket_list_deallocatorINS7_ISF_EEEEEixB8ue170006Em, symObjAddr: 0x1B474, symBinAddr: 0x100021FAC, symSize: 0x34 }
  - { offsetInCU: 0x326DC, offset: 0x50246, size: 0x8, addend: 0x0, symName: __ZNKSt3__116__hash_node_baseIPNS_11__hash_nodeINS_17__hash_value_typeINS_12basic_stringIcNS_11char_traitsIcEENS_9allocatorIcEEEEbEEPvEEE6__hashB8ue170006Ev, symObjAddr: 0x1B4A8, symBinAddr: 0x100021FE0, symSize: 0x18 }
  - { offsetInCU: 0x32701, offset: 0x5026B, size: 0x8, addend: 0x0, symName: __ZNSt3__112__hash_tableINS_17__hash_value_typeINS_12basic_stringIcNS_11char_traitsIcEENS_9allocatorIcEEEEbEENS_22__unordered_map_hasherIS7_S8_NS_4hashIS7_EENS_8equal_toIS7_EELb1EEENS_21__unordered_map_equalIS7_S8_SD_SB_Lb1EEENS5_IS8_EEE6key_eqB8ue170006Ev, symObjAddr: 0x1B4C0, symBinAddr: 0x100021FF8, symSize: 0x28 }
  - { offsetInCU: 0x32726, offset: 0x50290, size: 0x8, addend: 0x0, symName: __ZNKSt3__121__unordered_map_equalINS_12basic_stringIcNS_11char_traitsIcEENS_9allocatorIcEEEENS_17__hash_value_typeIS6_bEENS_8equal_toIS6_EENS_4hashIS6_EELb1EEclB8ue170006ERKS8_RKS6_, symObjAddr: 0x1B4E8, symBinAddr: 0x100022020, symSize: 0x48 }
  - { offsetInCU: 0x32769, offset: 0x502D3, size: 0x8, addend: 0x0, symName: __ZNSt3__116__hash_node_baseIPNS_11__hash_nodeINS_17__hash_value_typeINS_12basic_stringIcNS_11char_traitsIcEENS_9allocatorIcEEEEbEEPvEEE8__upcastB8ue170006Ev, symObjAddr: 0x1B530, symBinAddr: 0x100022068, symSize: 0x24 }
  - { offsetInCU: 0x3278E, offset: 0x502F8, size: 0x8, addend: 0x0, symName: __ZNSt3__112__hash_tableINS_17__hash_value_typeINS_12basic_stringIcNS_11char_traitsIcEENS_9allocatorIcEEEEbEENS_22__unordered_map_hasherIS7_S8_NS_4hashIS7_EENS_8equal_toIS7_EELb1EEENS_21__unordered_map_equalIS7_S8_SD_SB_Lb1EEENS5_IS8_EEE21__construct_node_hashIRKNS_21piecewise_construct_tEJNS_5tupleIJRKS7_EEENSN_IJEEEEEENS_10unique_ptrINS_11__hash_nodeIS8_PvEENS_22__hash_node_destructorINS5_ISV_EEEEEEmOT_DpOT0_, symObjAddr: 0x1B554, symBinAddr: 0x10002208C, symSize: 0x150 }
  - { offsetInCU: 0x32828, offset: 0x50392, size: 0x8, addend: 0x0, symName: __ZNSt3__112__hash_tableINS_17__hash_value_typeINS_12basic_stringIcNS_11char_traitsIcEENS_9allocatorIcEEEEbEENS_22__unordered_map_hasherIS7_S8_NS_4hashIS7_EENS_8equal_toIS7_EELb1EEENS_21__unordered_map_equalIS7_S8_SD_SB_Lb1EEENS5_IS8_EEE4sizeB8ue170006Ev, symObjAddr: 0x1B6A4, symBinAddr: 0x1000221DC, symSize: 0x28 }
  - { offsetInCU: 0x3284D, offset: 0x503B7, size: 0x8, addend: 0x0, symName: __ZNSt3__112__hash_tableINS_17__hash_value_typeINS_12basic_stringIcNS_11char_traitsIcEENS_9allocatorIcEEEEbEENS_22__unordered_map_hasherIS7_S8_NS_4hashIS7_EENS_8equal_toIS7_EELb1EEENS_21__unordered_map_equalIS7_S8_SD_SB_Lb1EEENS5_IS8_EEE15max_load_factorB8ue170006Ev, symObjAddr: 0x1B6CC, symBinAddr: 0x100022204, symSize: 0x28 }
  - { offsetInCU: 0x32872, offset: 0x503DC, size: 0x8, addend: 0x0, symName: __ZNSt3__112__hash_tableINS_17__hash_value_typeINS_12basic_stringIcNS_11char_traitsIcEENS_9allocatorIcEEEEbEENS_22__unordered_map_hasherIS7_S8_NS_4hashIS7_EENS_8equal_toIS7_EELb1EEENS_21__unordered_map_equalIS7_S8_SD_SB_Lb1EEENS5_IS8_EEE15__rehash_uniqueB8ue170006Em, symObjAddr: 0x1B6F4, symBinAddr: 0x10002222C, symSize: 0x2C }
  - { offsetInCU: 0x328A6, offset: 0x50410, size: 0x8, addend: 0x0, symName: __ZNSt3__117__compressed_pairINS_16__hash_node_baseIPNS_11__hash_nodeINS_17__hash_value_typeINS_12basic_stringIcNS_11char_traitsIcEENS_9allocatorIcEEEEbEEPvEEEENS7_ISC_EEE5firstB8ue170006Ev, symObjAddr: 0x1B720, symBinAddr: 0x100022258, symSize: 0x24 }
  - { offsetInCU: 0x328CB, offset: 0x50435, size: 0x8, addend: 0x0, symName: __ZNSt3__116__hash_node_baseIPNS_11__hash_nodeINS_17__hash_value_typeINS_12basic_stringIcNS_11char_traitsIcEENS_9allocatorIcEEEEbEEPvEEE5__ptrB8ue170006Ev, symObjAddr: 0x1B744, symBinAddr: 0x10002227C, symSize: 0x24 }
  - { offsetInCU: 0x328F0, offset: 0x5045A, size: 0x8, addend: 0x0, symName: __ZNKSt3__110unique_ptrINS_11__hash_nodeINS_17__hash_value_typeINS_12basic_stringIcNS_11char_traitsIcEENS_9allocatorIcEEEEbEEPvEENS_22__hash_node_destructorINS6_ISB_EEEEEptB8ue170006Ev, symObjAddr: 0x1B768, symBinAddr: 0x1000222A0, symSize: 0x28 }
  - { offsetInCU: 0x32915, offset: 0x5047F, size: 0x8, addend: 0x0, symName: __ZNKSt3__110unique_ptrINS_11__hash_nodeINS_17__hash_value_typeINS_12basic_stringIcNS_11char_traitsIcEENS_9allocatorIcEEEEbEEPvEENS_22__hash_node_destructorINS6_ISB_EEEEE3getB8ue170006Ev, symObjAddr: 0x1B790, symBinAddr: 0x1000222C8, symSize: 0x28 }
  - { offsetInCU: 0x3293A, offset: 0x504A4, size: 0x8, addend: 0x0, symName: __ZNSt3__110unique_ptrINS_11__hash_nodeINS_17__hash_value_typeINS_12basic_stringIcNS_11char_traitsIcEENS_9allocatorIcEEEEbEEPvEENS_22__hash_node_destructorINS6_ISB_EEEEE7releaseB8ue170006Ev, symObjAddr: 0x1B7B8, symBinAddr: 0x1000222F0, symSize: 0x44 }
  - { offsetInCU: 0x3296E, offset: 0x504D8, size: 0x8, addend: 0x0, symName: __ZNSt3__110unique_ptrINS_11__hash_nodeINS_17__hash_value_typeINS_12basic_stringIcNS_11char_traitsIcEENS_9allocatorIcEEEEbEEPvEENS_22__hash_node_destructorINS6_ISB_EEEEED1B8ue170006Ev, symObjAddr: 0x1B7FC, symBinAddr: 0x100022334, symSize: 0x2C }
  - { offsetInCU: 0x32997, offset: 0x50501, size: 0x8, addend: 0x0, symName: __ZNSt3__115__hash_iteratorIPNS_11__hash_nodeINS_17__hash_value_typeINS_12basic_stringIcNS_11char_traitsIcEENS_9allocatorIcEEEEbEEPvEEEC1B8ue170006EPNS_16__hash_node_baseISC_EE, symObjAddr: 0x1B828, symBinAddr: 0x100022360, symSize: 0x34 }
  - { offsetInCU: 0x329D4, offset: 0x5053E, size: 0x8, addend: 0x0, symName: __ZNSt3__14pairINS_15__hash_iteratorIPNS_11__hash_nodeINS_17__hash_value_typeINS_12basic_stringIcNS_11char_traitsIcEENS_9allocatorIcEEEEbEEPvEEEEbEC1B8ue170006ISE_RbLSB_0EEEOT_OT0_, symObjAddr: 0x1B85C, symBinAddr: 0x100022394, symSize: 0x3C }
  - { offsetInCU: 0x32A31, offset: 0x5059B, size: 0x8, addend: 0x0, symName: __ZNSt3__117__compressed_pairImNS_22__unordered_map_hasherINS_12basic_stringIcNS_11char_traitsIcEENS_9allocatorIcEEEENS_17__hash_value_typeIS7_bEENS_4hashIS7_EENS_8equal_toIS7_EELb1EEEE6secondB8ue170006Ev, symObjAddr: 0x1B898, symBinAddr: 0x1000223D0, symSize: 0x24 }
  - { offsetInCU: 0x32A56, offset: 0x505C0, size: 0x8, addend: 0x0, symName: __ZNSt3__122__compressed_pair_elemINS_22__unordered_map_hasherINS_12basic_stringIcNS_11char_traitsIcEENS_9allocatorIcEEEENS_17__hash_value_typeIS7_bEENS_4hashIS7_EENS_8equal_toIS7_EELb1EEELi1ELb1EE5__getB8ue170006Ev, symObjAddr: 0x1B8BC, symBinAddr: 0x1000223F4, symSize: 0x14 }
  - { offsetInCU: 0x32A7B, offset: 0x505E5, size: 0x8, addend: 0x0, symName: __ZNKSt3__110unique_ptrIA_PNS_16__hash_node_baseIPNS_11__hash_nodeINS_17__hash_value_typeINS_12basic_stringIcNS_11char_traitsIcEENS_9allocatorIcEEEEbEEPvEEEENS_25__bucket_list_deallocatorINS7_ISF_EEEEE11get_deleterB8ue170006Ev, symObjAddr: 0x1B8D0, symBinAddr: 0x100022408, symSize: 0x24 }
  - { offsetInCU: 0x32AA0, offset: 0x5060A, size: 0x8, addend: 0x0, symName: __ZNKSt3__125__bucket_list_deallocatorINS_9allocatorIPNS_16__hash_node_baseIPNS_11__hash_nodeINS_17__hash_value_typeINS_12basic_stringIcNS_11char_traitsIcEENS1_IcEEEEbEEPvEEEEEEE4sizeB8ue170006Ev, symObjAddr: 0x1B8F4, symBinAddr: 0x10002242C, symSize: 0x28 }
  - { offsetInCU: 0x32AC5, offset: 0x5062F, size: 0x8, addend: 0x0, symName: __ZNKSt3__117__compressed_pairIPPNS_16__hash_node_baseIPNS_11__hash_nodeINS_17__hash_value_typeINS_12basic_stringIcNS_11char_traitsIcEENS_9allocatorIcEEEEbEEPvEEEENS_25__bucket_list_deallocatorINS7_ISF_EEEEE6secondB8ue170006Ev, symObjAddr: 0x1B91C, symBinAddr: 0x100022454, symSize: 0x28 }
  - { offsetInCU: 0x32AEA, offset: 0x50654, size: 0x8, addend: 0x0, symName: __ZNKSt3__122__compressed_pair_elemINS_25__bucket_list_deallocatorINS_9allocatorIPNS_16__hash_node_baseIPNS_11__hash_nodeINS_17__hash_value_typeINS_12basic_stringIcNS_11char_traitsIcEENS2_IcEEEEbEEPvEEEEEEEELi1ELb0EE5__getB8ue170006Ev, symObjAddr: 0x1B944, symBinAddr: 0x10002247C, symSize: 0x14 }
  - { offsetInCU: 0x32B0F, offset: 0x50679, size: 0x8, addend: 0x0, symName: __ZNKSt3__117__compressed_pairImNS_9allocatorIPNS_16__hash_node_baseIPNS_11__hash_nodeINS_17__hash_value_typeINS_12basic_stringIcNS_11char_traitsIcEENS1_IcEEEEbEEPvEEEEEEE5firstB8ue170006Ev, symObjAddr: 0x1B958, symBinAddr: 0x100022490, symSize: 0x24 }
